

Microchip MPLAB XC8 Assembler V3.00 build 20241204225717 
                                                                                               Wed Mar 19 22:11:14 2025

Microchip MPLAB XC8 C Compiler v3.00 (Free license) build 20241204225717 Og1 
     1                           	processor	16F877A
     2                           	pagewidth 120
     3                           	opt	flic
     4                           	psect	idataBANK1,global,class=CODE,space=0,delta=2,noexec
     5                           	psect	idataBANK3,global,class=CODE,space=0,delta=2,noexec
     6                           	psect	strings,global,class=STRING,space=0,delta=2,noexec
     7                           	psect	cinit,global,class=CODE,space=0,merge=1,delta=2
     8                           	psect	bssBANK0,global,class=BANK0,space=1,delta=1,noexec
     9                           	psect	bssBANK1,global,class=BANK1,space=1,delta=1,noexec
    10                           	psect	dataBANK1,global,class=BANK1,space=1,delta=1,noexec
    11                           	psect	bssBANK3,global,class=BANK3,space=1,delta=1,noexec
    12                           	psect	dataBANK3,global,class=BANK3,space=1,delta=1,noexec
    13                           	psect	bssBANK2,global,class=BANK2,space=1,delta=1,noexec
    14                           	psect	inittext,global,class=CODE,space=0,delta=2
    15                           	psect	clrtext,global,class=CODE,space=0,delta=2
    16                           	psect	cstackBANK3,global,class=BANK3,space=1,delta=1,noexec
    17                           	psect	cstackBANK1,global,class=BANK1,space=1,delta=1,noexec
    18                           	psect	cstackCOMMON,global,class=COMMON,space=1,delta=1,noexec
    19                           	psect	cstackBANK0,global,class=BANK0,space=1,delta=1,noexec
    20                           	psect	maintext,global,class=CODE,space=0,split=1,delta=2
    21                           	psect	text1,local,class=CODE,space=0,merge=1,delta=2
    22                           	psect	text2,local,class=CODE,space=0,merge=1,delta=2
    23                           	psect	text3,local,class=CODE,space=0,merge=1,delta=2,group=3
    24                           	psect	text4,local,class=CODE,space=0,merge=1,delta=2,group=1
    25                           	psect	text5,local,class=CODE,space=0,merge=1,delta=2,group=1
    26                           	psect	text6,local,class=CODE,space=0,merge=1,delta=2,group=1
    27                           	psect	text7,local,class=CODE,space=0,merge=1,delta=2,group=2
    28                           	psect	text8,local,class=CODE,space=0,merge=1,delta=2,group=1
    29                           	psect	text9,local,class=CODE,space=0,merge=1,delta=2,group=3
    30                           	psect	text10,local,class=CODE,space=0,merge=1,delta=2,group=1
    31                           	psect	text11,local,class=CODE,space=0,merge=1,delta=2,group=3
    32                           	psect	text12,local,class=CODE,space=0,merge=1,delta=2,group=3
    33                           	psect	text13,local,class=CODE,space=0,merge=1,delta=2,group=3
    34                           	psect	text14,local,class=CODE,space=0,merge=1,delta=2,group=3
    35                           	psect	text15,local,class=CODE,space=0,merge=1,delta=2,group=3
    36                           	psect	text16,local,class=CODE,space=0,merge=1,delta=2,group=3
    37                           	psect	text17,local,class=CODE,space=0,merge=1,delta=2,group=3
    38                           	psect	text18,local,class=CODE,space=0,merge=1,delta=2,group=2
    39                           	psect	text19,local,class=CODE,space=0,merge=1,delta=2,group=2
    40                           	psect	text20,local,class=CODE,space=0,merge=1,delta=2,group=2
    41                           	psect	text21,local,class=CODE,space=0,merge=1,delta=2,group=2
    42                           	psect	text22,local,class=CODE,space=0,merge=1,delta=2,group=2
    43                           	psect	text23,local,class=CODE,space=0,merge=1,delta=2,group=2
    44                           	psect	text24,local,class=CODE,space=0,merge=1,delta=2,group=2
    45                           	psect	text25,local,class=CODE,space=0,merge=1,delta=2,group=2
    46                           	psect	text26,local,class=CODE,space=0,merge=1,delta=2,group=2
    47                           	psect	text27,local,class=CODE,space=0,merge=1,delta=2
    48                           	psect	text28,local,class=CODE,space=0,merge=1,delta=2
    49                           	psect	config,global,abs,ovrld,class=CONFIG,space=4,delta=2,noexec
    50                           	psect	text8_split_1,local,class=CODE,space=0,merge=1,delta=2
    51                           	dabs	1,0x7E,2
    52     0000                     
    53                           ; Generated 12/10/2023 GMT
    54                           ; 
    55                           ; Copyright © 2023, Microchip Technology Inc. and its subsidiaries ("Microchip")
    56                           ; All rights reserved.
    57                           ; 
    58                           ; This software is developed by Microchip Technology Inc. and its subsidiaries ("Microch
      +                          ip").
    59                           ; 
    60                           ; Redistribution and use in source and binary forms, with or without modification, are
    61                           ; permitted provided that the following conditions are met:
    62                           ; 
    63                           ;     1. Redistributions of source code must retain the above copyright notice, this lis
      +                          t of
    64                           ;        conditions and the following disclaimer.
    65                           ; 
    66                           ;     2. Redistributions in binary form must reproduce the above copyright notice, this 
      +                          list
    67                           ;        of conditions and the following disclaimer in the documentation and/or other
    68                           ;        materials provided with the distribution. Publication is not required when
    69                           ;        this file is used in an embedded application.
    70                           ; 
    71                           ;     3. Microchip's name may not be used to endorse or promote products derived from th
      +                          is
    72                           ;        software without specific prior written permission.
    73                           ; 
    74                           ; THIS SOFTWARE IS PROVIDED BY MICROCHIP "AS IS" AND ANY EXPRESS OR IMPLIED WARRANTIES,
    75                           ; INCLUDING, BUT NOT LIMITED TO, THE IMPLIED WARRANTIES OF MERCHANTABILITY AND FITNESS F
      +                          OR
    76                           ; PURPOSE ARE DISCLAIMED.  IN NO EVENT SHALL MICROCHIP BE LIABLE FOR ANY DIRECT, INDIREC
      +                          T,
    77                           ; INCIDENTAL, SPECIAL, EXEMPLARY, OR CONSEQUENTIAL DAMAGES (INCLUDING BUT NOT LIMITED TO
    78                           ; PROCUREMENT OF SUBSTITUTE GOODS OR SERVICES; LOSS OF USE, DATA OR PROFITS; OR BUSINESS
    79                           ; INTERRUPTION) HOWSOEVER CAUSED AND ON ANY THEORY OF LIABILITY, WHETHER IN CONTRACT, ST
      +                          RICT
    80                           ; LIABILITY, OR TORT (INCLUDING NEGLIGENCE OR OTHERWISE) ARISING IN ANY WAY OUT OF THE U
      +                          SE OF
    81                           ; THIS SOFTWARE, EVEN IF ADVISED OF THE POSSIBILITY OF SUCH DAMAGE.
    82                           ; 
    83                           ; 
    84                           ; Code-generator required, PIC16F877A Definitions
    85                           ; 
    86                           ; SFR Addresses
    87     0004                     fsr             equ	4
    88     0004                     fsr0            equ	4
    89     0000                     indf            equ	0
    90     0000                     indf0           equ	0
    91     0002                     pc              equ	2
    92     0002                     pcl             equ	2
    93     000A                     pclath          equ	10
    94     0003                     status          equ	3
    95     0000                     INDF            equ	0	;# 
    96     0001                     TMR0            equ	1	;# 
    97     0002                     PCL             equ	2	;# 
    98     0003                     STATUS          equ	3	;# 
    99     0004                     FSR             equ	4	;# 
   100     0005                     PORTA           equ	5	;# 
   101     0006                     PORTB           equ	6	;# 
   102     0007                     PORTC           equ	7	;# 
   103     0008                     PORTD           equ	8	;# 
   104     0009                     PORTE           equ	9	;# 
   105     000A                     PCLATH          equ	10	;# 
   106     000B                     INTCON          equ	11	;# 
   107     000C                     PIR1            equ	12	;# 
   108     000D                     PIR2            equ	13	;# 
   109     000E                     TMR1            equ	14	;# 
   110     000E                     TMR1L           equ	14	;# 
   111     000F                     TMR1H           equ	15	;# 
   112     0010                     T1CON           equ	16	;# 
   113     0011                     TMR2            equ	17	;# 
   114     0012                     T2CON           equ	18	;# 
   115     0013                     SSPBUF          equ	19	;# 
   116     0014                     SSPCON          equ	20	;# 
   117     0015                     CCPR1           equ	21	;# 
   118     0015                     CCPR1L          equ	21	;# 
   119     0016                     CCPR1H          equ	22	;# 
   120     0017                     CCP1CON         equ	23	;# 
   121     0018                     RCSTA           equ	24	;# 
   122     0019                     TXREG           equ	25	;# 
   123     001A                     RCREG           equ	26	;# 
   124     001B                     CCPR2           equ	27	;# 
   125     001B                     CCPR2L          equ	27	;# 
   126     001C                     CCPR2H          equ	28	;# 
   127     001D                     CCP2CON         equ	29	;# 
   128     001E                     ADRESH          equ	30	;# 
   129     001F                     ADCON0          equ	31	;# 
   130     0081                     OPTION_REG      equ	129	;# 
   131     0085                     TRISA           equ	133	;# 
   132     0086                     TRISB           equ	134	;# 
   133     0087                     TRISC           equ	135	;# 
   134     0088                     TRISD           equ	136	;# 
   135     0089                     TRISE           equ	137	;# 
   136     008C                     PIE1            equ	140	;# 
   137     008D                     PIE2            equ	141	;# 
   138     008E                     PCON            equ	142	;# 
   139     0091                     SSPCON2         equ	145	;# 
   140     0092                     PR2             equ	146	;# 
   141     0093                     SSPADD          equ	147	;# 
   142     0094                     SSPSTAT         equ	148	;# 
   143     0098                     TXSTA           equ	152	;# 
   144     0099                     SPBRG           equ	153	;# 
   145     009C                     CMCON           equ	156	;# 
   146     009D                     CVRCON          equ	157	;# 
   147     009E                     ADRESL          equ	158	;# 
   148     009F                     ADCON1          equ	159	;# 
   149     010C                     EEDATA          equ	268	;# 
   150     010D                     EEADR           equ	269	;# 
   151     010E                     EEDATH          equ	270	;# 
   152     010F                     EEADRH          equ	271	;# 
   153     018C                     EECON1          equ	396	;# 
   154     018D                     EECON2          equ	397	;# 
   155     0000                     INDF            equ	0	;# 
   156     0001                     TMR0            equ	1	;# 
   157     0002                     PCL             equ	2	;# 
   158     0003                     STATUS          equ	3	;# 
   159     0004                     FSR             equ	4	;# 
   160     0005                     PORTA           equ	5	;# 
   161     0006                     PORTB           equ	6	;# 
   162     0007                     PORTC           equ	7	;# 
   163     0008                     PORTD           equ	8	;# 
   164     0009                     PORTE           equ	9	;# 
   165     000A                     PCLATH          equ	10	;# 
   166     000B                     INTCON          equ	11	;# 
   167     000C                     PIR1            equ	12	;# 
   168     000D                     PIR2            equ	13	;# 
   169     000E                     TMR1            equ	14	;# 
   170     000E                     TMR1L           equ	14	;# 
   171     000F                     TMR1H           equ	15	;# 
   172     0010                     T1CON           equ	16	;# 
   173     0011                     TMR2            equ	17	;# 
   174     0012                     T2CON           equ	18	;# 
   175     0013                     SSPBUF          equ	19	;# 
   176     0014                     SSPCON          equ	20	;# 
   177     0015                     CCPR1           equ	21	;# 
   178     0015                     CCPR1L          equ	21	;# 
   179     0016                     CCPR1H          equ	22	;# 
   180     0017                     CCP1CON         equ	23	;# 
   181     0018                     RCSTA           equ	24	;# 
   182     0019                     TXREG           equ	25	;# 
   183     001A                     RCREG           equ	26	;# 
   184     001B                     CCPR2           equ	27	;# 
   185     001B                     CCPR2L          equ	27	;# 
   186     001C                     CCPR2H          equ	28	;# 
   187     001D                     CCP2CON         equ	29	;# 
   188     001E                     ADRESH          equ	30	;# 
   189     001F                     ADCON0          equ	31	;# 
   190     0081                     OPTION_REG      equ	129	;# 
   191     0085                     TRISA           equ	133	;# 
   192     0086                     TRISB           equ	134	;# 
   193     0087                     TRISC           equ	135	;# 
   194     0088                     TRISD           equ	136	;# 
   195     0089                     TRISE           equ	137	;# 
   196     008C                     PIE1            equ	140	;# 
   197     008D                     PIE2            equ	141	;# 
   198     008E                     PCON            equ	142	;# 
   199     0091                     SSPCON2         equ	145	;# 
   200     0092                     PR2             equ	146	;# 
   201     0093                     SSPADD          equ	147	;# 
   202     0094                     SSPSTAT         equ	148	;# 
   203     0098                     TXSTA           equ	152	;# 
   204     0099                     SPBRG           equ	153	;# 
   205     009C                     CMCON           equ	156	;# 
   206     009D                     CVRCON          equ	157	;# 
   207     009E                     ADRESL          equ	158	;# 
   208     009F                     ADCON1          equ	159	;# 
   209     010C                     EEDATA          equ	268	;# 
   210     010D                     EEADR           equ	269	;# 
   211     010E                     EEDATH          equ	270	;# 
   212     010F                     EEADRH          equ	271	;# 
   213     018C                     EECON1          equ	396	;# 
   214     018D                     EECON2          equ	397	;# 
   215                           
   216                           	psect	idataBANK1
   217     1000                     __pidataBANK1:
   218                           
   219                           ;initializer for _k
   220     1000  3400               	retlw	0
   221     1001  3400               	retlw	0
   222     1002  3478               	retlw	120
   223     1003  3441               	retlw	65
   224                           
   225                           	psect	idataBANK3
   226     1C89                     __pidataBANK3:
   227                           
   228                           ;initializer for _BatHighArray
   229     1C89  3442               	retlw	66
   230     1C8A  3441               	retlw	65
   231     1C8B  3454               	retlw	84
   232     1C8C  3420               	retlw	32
   233     1C8D  3448               	retlw	72
   234     1C8E  3449               	retlw	73
   235     1C8F  3447               	retlw	71
   236     1C90  3448               	retlw	72
   237     1C91  3420               	retlw	32
   238     1C92  3420               	retlw	32
   239     1C93  3420               	retlw	32
   240     1C94  3400               	retlw	0
   241     1C95  3400               	retlw	0
   242     1C96  3400               	retlw	0
   243     1C97  3400               	retlw	0
   244                           
   245                           ;initializer for _BatMediumArray
   246     1C98  3442               	retlw	66
   247     1C99  3441               	retlw	65
   248     1C9A  3454               	retlw	84
   249     1C9B  3420               	retlw	32
   250     1C9C  344D               	retlw	77
   251     1C9D  3445               	retlw	69
   252     1C9E  3444               	retlw	68
   253     1C9F  3449               	retlw	73
   254     1CA0  3455               	retlw	85
   255     1CA1  344D               	retlw	77
   256     1CA2  3400               	retlw	0
   257     1CA3  3400               	retlw	0
   258     1CA4  3400               	retlw	0
   259     1CA5  3400               	retlw	0
   260     1CA6  3400               	retlw	0
   261                           
   262                           ;initializer for _BatLowArray
   263     1CA7  3442               	retlw	66
   264     1CA8  3441               	retlw	65
   265     1CA9  3454               	retlw	84
   266     1CAA  3420               	retlw	32
   267     1CAB  344C               	retlw	76
   268     1CAC  344F               	retlw	79
   269     1CAD  3457               	retlw	87
   270     1CAE  3420               	retlw	32
   271     1CAF  3420               	retlw	32
   272     1CB0  3420               	retlw	32
   273     1CB1  3420               	retlw	32
   274     1CB2  3400               	retlw	0
   275     1CB3  3400               	retlw	0
   276     1CB4  3400               	retlw	0
   277     1CB5  3400               	retlw	0
   278                           
   279                           ;initializer for _Array
   280     1CB6  3442               	retlw	66
   281     1CB7  3441               	retlw	65
   282     1CB8  3454               	retlw	84
   283     1CB9  3420               	retlw	32
   284     1CBA  3456               	retlw	86
   285     1CBB  344F               	retlw	79
   286     1CBC  344C               	retlw	76
   287     1CBD  3454               	retlw	84
   288     1CBE  343D               	retlw	61
   289     1CBF  3420               	retlw	32
   290     1CC0  3420               	retlw	32
   291     1CC1  3420               	retlw	32
   292     1CC2  3420               	retlw	32
   293     1CC3  3476               	retlw	118
   294     1CC4  3400               	retlw	0
   295                           
   296                           ;initializer for _j
   297     1CC5  3400               	retlw	0
   298     1CC6  3400               	retlw	0
   299     1CC7  348C               	retlw	140
   300     1CC8  3441               	retlw	65
   301     0008                     _PORTD          set	8
   302     0007                     _PORTC          set	7
   303     0006                     _PORTB          set	6
   304     0081                     _OPTION_REG     set	129
   305     0086                     _TRISB          set	134
   306     0088                     _TRISD          set	136
   307     0087                     _TRISC          set	135
   308                           
   309                           	psect	strings
   310     1800                     __pstrings:
   311     1800                     stringtab:
   312     1800                     __stringtab:
   313     1800                     stringcode:	
   314                           ;	String table - string pointers are 1 byte each
   315                           
   316     1800                     stringdir:
   317     1800  3018               	movlw	high stringdir
   318     1801  008A               	movwf	10
   319     1802  0804               	movf	4,w
   320     1803  0A84               	incf	4,f
   321     1804  0782               	addwf	2,f
   322     1805                     __stringbase:
   323     1805  3400               	retlw	0
   324     1806                     __end_of__stringtab:
   325     1806                     STR_1:
   326     1806  3425               	retlw	37	;'%'
   327     1807  342E               	retlw	46	;'.'
   328     1808  3431               	retlw	49	;'1'
   329     1809  3466               	retlw	102	;'f'
   330     180A  3400               	retlw	0
   331     180B                     STR_5:
   332     180B  3469               	retlw	105	;'i'
   333     180C  346E               	retlw	110	;'n'
   334     180D  3466               	retlw	102	;'f'
   335     180E  3400               	retlw	0
   336     180F                     STR_8:
   337     180F  346E               	retlw	110	;'n'
   338     1810  3461               	retlw	97	;'a'
   339     1811  346E               	retlw	110	;'n'
   340     1812  3400               	retlw	0
   341     180F                     STR_9           equ	STR_8
   342     180F                     STR_10          equ	STR_8
   343     180B                     STR_6           equ	STR_5
   344     180B                     STR_7           equ	STR_5
   345     1806                     STR_2           equ	STR_1
   346     1806                     STR_3           equ	STR_1
   347     1806                     STR_4           equ	STR_1
   348                           
   349                           	psect	cinit
   350     07C3                     start_initialization:	
   351                           ; #config settings
   352                           
   353     07C3                     __initialization:
   354                           
   355                           ; Initialize objects allocated to BANK3
   356     07C3  1783               	bsf	3,7	;select IRP bank2
   357     07C4  30D0               	movlw	low (__pdataBANK3+64)
   358     07C5  00FD               	movwf	btemp+-1
   359     07C6  301C               	movlw	high __pidataBANK3
   360     07C7  00FE               	movwf	btemp
   361     07C8  3089               	movlw	low __pidataBANK3
   362     07C9  00FF               	movwf	btemp+1
   363     07CA  3090               	movlw	low __pdataBANK3
   364     07CB  0084               	movwf	4
   365     07CC  160A  158A  22F4  120A  118A  	fcall	init_ram0
   366                           
   367                           ; Initialize objects allocated to BANK1
   368     07D1  1383               	bcf	3,7	;select IRP bank0
   369     07D2  30EF               	movlw	low (__pdataBANK1+4)
   370     07D3  00FD               	movwf	btemp+-1
   371     07D4  3010               	movlw	high __pidataBANK1
   372     07D5  00FE               	movwf	btemp
   373     07D6  3000               	movlw	low __pidataBANK1
   374     07D7  00FF               	movwf	btemp+1
   375     07D8  30EB               	movlw	low __pdataBANK1
   376     07D9  0084               	movwf	4
   377     07DA  160A  158A  22F4  120A  118A  	fcall	init_ram0
   378                           
   379                           ; Clear objects allocated to BANK3
   380     07DF  1683               	bsf	3,5	;RP0=1, select bank3
   381     07E0  1703               	bsf	3,6	;RP1=1, select bank3
   382     07E1  01EA               	clrf	__pbssBANK3& (0+127)
   383                           
   384                           ; Clear objects allocated to BANK2
   385     07E2  1783               	bsf	3,7	;select IRP bank2
   386     07E3  3010               	movlw	low __pbssBANK2
   387     07E4  0084               	movwf	4
   388     07E5  3060               	movlw	low (__pbssBANK2+80)
   389     07E6  120A  118A  2004  120A  118A  	fcall	clear_ram0
   390                           
   391                           ; Clear objects allocated to BANK1
   392     07EB  1383               	bcf	3,7	;select IRP bank0
   393     07EC  30DD               	movlw	low __pbssBANK1
   394     07ED  0084               	movwf	4
   395     07EE  30EB               	movlw	low (__pbssBANK1+14)
   396     07EF  120A  118A  2004  120A  118A  	fcall	clear_ram0
   397                           
   398                           ; Clear objects allocated to BANK0
   399     07F4  3062               	movlw	low __pbssBANK0
   400     07F5  0084               	movwf	4
   401     07F6  306E               	movlw	low (__pbssBANK0+12)
   402     07F7  120A  118A  2004  120A  118A  	fcall	clear_ram0
   403     07FC                     end_of_initialization:	
   404                           ;End of C runtime variable initialization code
   405                           
   406     07FC                     __end_of__initialization:
   407     07FC  0183               	clrf	3
   408     07FD  160A  158A  2B4A   	ljmp	_main	;jump to C main() function
   409                           
   410                           	psect	bssBANK0
   411     0062                     __pbssBANK0:
   412     0062                     ___fpclassifyf@F465:
   413     0062                     	ds	4
   414     0066                     _width:
   415     0066                     	ds	2
   416     0068                     _prec:
   417     0068                     	ds	2
   418     006A                     _flags:
   419     006A                     	ds	1
   420     006B                     _n:
   421     006B                     	ds	1
   422     006C                     _m:
   423     006C                     	ds	1
   424     006D                     _x:
   425     006D                     	ds	1
   426                           
   427                           	psect	bssBANK1
   428     00DD                     __pbssBANK1:
   429     00DD                     floorf@F521:
   430     00DD                     	ds	4
   431     00E1                     _buffer:
   432     00E1                     	ds	10
   433                           
   434                           	psect	dataBANK1
   435     00EB                     __pdataBANK1:
   436     00EB                     _k:
   437     00EB                     	ds	4
   438                           
   439                           	psect	bssBANK3
   440     01EA                     __pbssBANK3:
   441     01EA                     _value:
   442     01EA                     	ds	1
   443                           
   444                           	psect	dataBANK3
   445     0190                     __pdataBANK3:
   446     0190                     _BatHighArray:
   447     0190                     	ds	15
   448     019F                     _BatMediumArray:
   449     019F                     	ds	15
   450     01AE                     _BatLowArray:
   451     01AE                     	ds	15
   452     01BD                     _Array:
   453     01BD                     	ds	15
   454     01CC                     _j:
   455     01CC                     	ds	4
   456                           
   457                           	psect	bssBANK2
   458     0110                     __pbssBANK2:
   459     0110                     _dbuf:
   460     0110                     	ds	80
   461                           
   462                           	psect	inittext
   463     1AF0                     init_fetch0:	
   464                           ;	Called with low address in FSR and high address in W
   465                           
   466     1AF0  087E               	movf	btemp,w
   467     1AF1  008A               	movwf	10
   468     1AF2  087F               	movf	btemp+1,w
   469     1AF3  0082               	movwf	2
   470     1AF4                     init_ram0:	
   471                           ;Called with:
   472                           ;	high address of idata address in btemp 
   473                           ;	low address of idata address in btemp+1 
   474                           ;	low address of data in FSR
   475                           ;	high address + 1 of data in btemp-1
   476                           
   477     1AF4  160A  158A  22F0  160A  158A  	fcall	init_fetch0
   478     1AF9  0080               	movwf	0
   479     1AFA  0A84               	incf	4,f
   480     1AFB  0804               	movf	4,w
   481     1AFC  067D               	xorwf	btemp+-1,w
   482     1AFD  1903               	btfsc	3,2
   483     1AFE  3400               	retlw	0
   484     1AFF  0AFF               	incf	btemp+1,f
   485     1B00  1903               	btfsc	3,2
   486     1B01  0AFE               	incf	btemp,f
   487     1B02  2AF4               	goto	init_ram0
   488                           
   489                           	psect	clrtext
   490     0004                     clear_ram0:	
   491                           ;	Called with FSR containing the base address, and
   492                           ;	W with the last address+1
   493                           
   494     0004  0064               	clrwdt	;clear the watchdog before getting into this loop
   495     0005                     clrloop0:
   496     0005  0180               	clrf	0	;clear RAM location pointed to by FSR
   497     0006  0A84               	incf	4,f	;increment pointer
   498     0007  0604               	xorwf	4,w	;XOR with final address
   499     0008  1903               	btfsc	3,2	;have we reached the end yet?
   500     0009  3400               	retlw	0	;all done for this memory range, return
   501     000A  0604               	xorwf	4,w	;XOR again to restore value
   502     000B  2805               	goto	clrloop0	;do the next byte
   503                           
   504                           	psect	cstackBANK3
   505     01D0                     __pcstackBANK3:
   506     01D0                     BatStatus@i_79:
   507                           
   508                           ; 2 bytes @ 0x0
   509     01D0                     	ds	2
   510     01D2                     BatStatus@i_82:
   511                           
   512                           ; 2 bytes @ 0x2
   513     01D2                     	ds	2
   514     01D4                     BatStatus@i_87:
   515                           
   516                           ; 2 bytes @ 0x4
   517     01D4                     	ds	2
   518     01D6                     BatStatus@i_92:
   519                           
   520                           ; 2 bytes @ 0x6
   521     01D6                     	ds	2
   522     01D8                     BatStatus@i:
   523                           
   524                           ; 2 bytes @ 0x8
   525     01D8                     	ds	2
   526     01DA                     BatStatus@i_80:
   527                           
   528                           ; 2 bytes @ 0xA
   529     01DA                     	ds	2
   530     01DC                     BatStatus@i_83:
   531                           
   532                           ; 2 bytes @ 0xC
   533     01DC                     	ds	2
   534     01DE                     BatStatus@i_84:
   535                           
   536                           ; 2 bytes @ 0xE
   537     01DE                     	ds	2
   538     01E0                     BatStatus@i_85:
   539                           
   540                           ; 2 bytes @ 0x10
   541     01E0                     	ds	2
   542     01E2                     BatStatus@i_88:
   543                           
   544                           ; 2 bytes @ 0x12
   545     01E2                     	ds	2
   546     01E4                     BatStatus@i_89:
   547                           
   548                           ; 2 bytes @ 0x14
   549     01E4                     	ds	2
   550     01E6                     BatStatus@i_90:
   551                           
   552                           ; 2 bytes @ 0x16
   553     01E6                     	ds	2
   554     01E8                     BatStatus@i_93:
   555                           
   556                           ; 2 bytes @ 0x18
   557     01E8                     	ds	2
   558                           
   559                           	psect	cstackBANK1
   560     00A0                     __pcstackBANK1:
   561     00A0                     efgtoa@ne:
   562                           
   563                           ; 2 bytes @ 0x0
   564     00A0                     	ds	2
   565     00A2                     efgtoa@p:
   566                           
   567                           ; 2 bytes @ 0x2
   568     00A2                     	ds	2
   569     00A4                     efgtoa@t:
   570                           
   571                           ; 2 bytes @ 0x4
   572     00A4                     	ds	2
   573     00A6                     _efgtoa$670:
   574                           
   575                           ; 2 bytes @ 0x6
   576     00A6                     	ds	2
   577     00A8                     efgtoa@pp:
   578                           
   579                           ; 1 bytes @ 0x8
   580     00A8                     	ds	1
   581     00A9                     efgtoa@mode:
   582                           
   583                           ; 1 bytes @ 0x9
   584     00A9                     	ds	1
   585     00AA                     efgtoa@nmode:
   586                           
   587                           ; 1 bytes @ 0xA
   588     00AA                     	ds	1
   589     00AB                     efgtoa@d:
   590                           
   591                           ; 2 bytes @ 0xB
   592     00AB                     	ds	2
   593     00AD                     efgtoa@m:
   594                           
   595                           ; 2 bytes @ 0xD
   596     00AD                     	ds	2
   597     00AF                     efgtoa@e:
   598                           
   599                           ; 2 bytes @ 0xF
   600     00AF                     	ds	2
   601     00B1                     efgtoa@w:
   602                           
   603                           ; 2 bytes @ 0x11
   604     00B1                     	ds	2
   605     00B3                     efgtoa@ou:
   606                           
   607                           ; 4 bytes @ 0x13
   608     00B3                     	ds	4
   609     00B7                     efgtoa@i:
   610                           
   611                           ; 2 bytes @ 0x17
   612     00B7                     	ds	2
   613     00B9                     efgtoa@h:
   614                           
   615                           ; 4 bytes @ 0x19
   616     00B9                     	ds	4
   617     00BD                     efgtoa@l:
   618                           
   619                           ; 4 bytes @ 0x1D
   620     00BD                     	ds	4
   621     00C1                     efgtoa@sign:
   622                           
   623                           ; 1 bytes @ 0x21
   624     00C1                     	ds	1
   625     00C2                     efgtoa@n:
   626                           
   627                           ; 2 bytes @ 0x22
   628     00C2                     	ds	2
   629     00C4                     efgtoa@g:
   630                           
   631                           ; 4 bytes @ 0x24
   632     00C4                     	ds	4
   633     00C8                     efgtoa@u:
   634                           
   635                           ; 4 bytes @ 0x28
   636     00C8                     	ds	4
   637     00CC                     ?_vfpfcnvrt:
   638     00CC                     vfpfcnvrt@fp:	
   639                           ; 1 bytes @ 0x2C
   640                           
   641                           
   642                           ; 2 bytes @ 0x2C
   643     00CC                     	ds	2
   644     00CE                     vfpfcnvrt@fmt:
   645                           
   646                           ; 1 bytes @ 0x2E
   647     00CE                     	ds	1
   648     00CF                     vfpfcnvrt@ap:
   649                           
   650                           ; 1 bytes @ 0x2F
   651     00CF                     	ds	1
   652     00D0                     ?_vfprintf:
   653     00D0                     vfprintf@fp:	
   654                           ; 2 bytes @ 0x30
   655                           
   656                           
   657                           ; 2 bytes @ 0x30
   658     00D0                     	ds	2
   659     00D2                     vfprintf@fmt:
   660                           
   661                           ; 1 bytes @ 0x32
   662     00D2                     	ds	1
   663     00D3                     vfprintf@ap:
   664                           
   665                           ; 1 bytes @ 0x33
   666     00D3                     	ds	1
   667     00D4                     ?_sprintf:
   668     00D4                     sprintf@s:	
   669                           ; 2 bytes @ 0x34
   670                           
   671                           
   672                           ; 1 bytes @ 0x34
   673     00D4                     	ds	1
   674     00D5                     sprintf@fmt:
   675                           
   676                           ; 1 bytes @ 0x35
   677     00D5                     	ds	5
   678     00DA                     ??_main:
   679                           
   680                           ; 1 bytes @ 0x3A
   681     00DA                     	ds	3
   682                           
   683                           	psect	cstackCOMMON
   684     0070                     __pcstackCOMMON:
   685     0070                     ?_Lcdinit:
   686     0070                     ?_BatStatus:	
   687                           ; 1 bytes @ 0x0
   688                           
   689     0070                     ?_LcdCommand:	
   690                           ; 1 bytes @ 0x0
   691                           
   692     0070                     ?_LcdData:	
   693                           ; 1 bytes @ 0x0
   694                           
   695     0070                     ?_strcpy:	
   696                           ; 1 bytes @ 0x0
   697                           
   698     0070                     ?_memcpy:	
   699                           ; 1 bytes @ 0x0
   700                           
   701     0070                     ?_putch:	
   702                           ; 1 bytes @ 0x0
   703                           
   704     0070                     ?_main:	
   705                           ; 1 bytes @ 0x0
   706                           
   707     0070                     ?___fleq:	
   708                           ; 1 bytes @ 0x0
   709                           
   710     0070                     ?__Umul8_16:	
   711                           ; 1 bit 
   712                           
   713     0070                     ?_fputc:	
   714                           ; 2 bytes @ 0x0
   715                           
   716     0070                     ?___fpclassifyf:	
   717                           ; 2 bytes @ 0x0
   718                           
   719     0070                     ?___wmul:	
   720                           ; 2 bytes @ 0x0
   721                           
   722     0070                     ?_labs:	
   723                           ; 2 bytes @ 0x0
   724                           
   725     0070                     ?___flneg:	
   726                           ; 4 bytes @ 0x0
   727                           
   728     0070                     ?___fltol:	
   729                           ; 4 bytes @ 0x0
   730                           
   731     0070                     ?___fladd:	
   732                           ; 4 bytes @ 0x0
   733                           
   734     0070                     ?___fldiv:	
   735                           ; 4 bytes @ 0x0
   736                           
   737     0070                     __Umul8_16@multiplicand:	
   738                           ; 4 bytes @ 0x0
   739                           
   740     0070                     memcpy@d1:	
   741                           ; 1 bytes @ 0x0
   742                           
   743     0070                     putch@c:	
   744                           ; 1 bytes @ 0x0
   745                           
   746     0070                     strcpy@dest:	
   747                           ; 1 bytes @ 0x0
   748                           
   749     0070                     ___wmul@multiplier:	
   750                           ; 1 bytes @ 0x0
   751                           
   752     0070                     fputc@c:	
   753                           ; 2 bytes @ 0x0
   754                           
   755     0070                     ___fleq@ff1:	
   756                           ; 2 bytes @ 0x0
   757                           
   758     0070                     ___flneg@f1:	
   759                           ; 4 bytes @ 0x0
   760                           
   761     0070                     ___fltol@f1:	
   762                           ; 4 bytes @ 0x0
   763                           
   764     0070                     ___fladd@b:	
   765                           ; 4 bytes @ 0x0
   766                           
   767     0070                     ___fldiv@a:	
   768                           ; 4 bytes @ 0x0
   769                           
   770     0070                     ___fpclassifyf@x:	
   771                           ; 4 bytes @ 0x0
   772                           
   773     0070                     labs@a:	
   774                           ; 4 bytes @ 0x0
   775                           
   776     0070                     ??_LcdCommand:	
   777                           ; 4 bytes @ 0x0
   778                           
   779     0070                     ??_LcdData:	
   780                           ; 1 bytes @ 0x0
   781                           
   782     0070                     ??_putch:	
   783                           ; 1 bytes @ 0x0
   784                           
   785                           
   786                           ; 1 bytes @ 0x0
   787     0070                     	ds	1
   788     0071                     memcpy@s1:
   789     0071                     strcpy@src:	
   790                           ; 1 bytes @ 0x1
   791                           
   792                           
   793                           ; 1 bytes @ 0x1
   794     0071                     	ds	1
   795     0072                     strcpy@d:
   796     0072                     ___wmul@multiplicand:	
   797                           ; 1 bytes @ 0x2
   798                           
   799     0072                     memcpy@n:	
   800                           ; 2 bytes @ 0x2
   801                           
   802     0072                     fputc@fp:	
   803                           ; 2 bytes @ 0x2
   804                           
   805     0072                     ??__Umul8_16:	
   806                           ; 2 bytes @ 0x2
   807                           
   808     0072                     ??_strcpy:	
   809                           ; 1 bytes @ 0x2
   810                           
   811                           
   812                           ; 1 bytes @ 0x2
   813     0072                     	ds	1
   814     0073                     LcdData@i:
   815     0073                     LcdCommand@i:	
   816                           ; 1 bytes @ 0x3
   817                           
   818                           
   819                           ; 1 bytes @ 0x3
   820     0073                     	ds	1
   821     0074                     memcpy@tmp:
   822     0074                     ___wmul@product:	
   823                           ; 1 bytes @ 0x4
   824                           
   825     0074                     __Umul8_16@product:	
   826                           ; 2 bytes @ 0x4
   827                           
   828     0074                     ___fleq@ff2:	
   829                           ; 2 bytes @ 0x4
   830                           
   831     0074                     ___fladd@a:	
   832                           ; 4 bytes @ 0x4
   833                           
   834     0074                     ___fldiv@b:	
   835                           ; 4 bytes @ 0x4
   836                           
   837     0074                     ??_Lcdinit:	
   838                           ; 4 bytes @ 0x4
   839                           
   840     0074                     ??_fputc:	
   841                           ; 1 bytes @ 0x4
   842                           
   843     0074                     ??___fpclassifyf:	
   844                           ; 1 bytes @ 0x4
   845                           
   846     0074                     ??_labs:	
   847                           ; 1 bytes @ 0x4
   848                           
   849     0074                     ??_memcpy:	
   850                           ; 1 bytes @ 0x4
   851                           
   852     0074                     ??___wmul:	
   853                           ; 1 bytes @ 0x4
   854                           
   855     0074                     ??___flneg:	
   856                           ; 1 bytes @ 0x4
   857                           
   858     0074                     ??___fltol:	
   859                           ; 1 bytes @ 0x4
   860                           
   861                           
   862                           ; 1 bytes @ 0x4
   863     0074                     	ds	1
   864     0075                     memcpy@d:
   865                           
   866                           ; 1 bytes @ 0x5
   867     0075                     	ds	1
   868     0076                     ?_read_prec_or_width:
   869     0076                     read_prec_or_width@fmt:	
   870                           ; 2 bytes @ 0x6
   871                           
   872     0076                     memcpy@s:	
   873                           ; 1 bytes @ 0x6
   874                           
   875     0076                     __Umul8_16@word_mpld:	
   876                           ; 1 bytes @ 0x6
   877                           
   878                           
   879                           ; 2 bytes @ 0x6
   880     0076                     	ds	1
   881     0077                     read_prec_or_width@ap:
   882                           
   883                           ; 1 bytes @ 0x7
   884     0077                     	ds	1
   885     0078                     ___fltol@sign1:
   886     0078                     ___fladd@signs:	
   887                           ; 1 bytes @ 0x8
   888                           
   889     0078                     __Umul8_16@multiplier:	
   890                           ; 1 bytes @ 0x8
   891                           
   892     0078                     read_prec_or_width@c:	
   893                           ; 1 bytes @ 0x8
   894                           
   895     0078                     ??___fleq:	
   896                           ; 1 bytes @ 0x8
   897                           
   898     0078                     ??___fldiv:	
   899                           ; 1 bytes @ 0x8
   900                           
   901     0078                     ??_read_prec_or_width:	
   902                           ; 1 bytes @ 0x8
   903                           
   904                           
   905                           ; 1 bytes @ 0x8
   906     0078                     	ds	1
   907     0079                     ___fltol@exp1:
   908     0079                     ___fladd@aexp:	
   909                           ; 1 bytes @ 0x9
   910                           
   911     0079                     read_prec_or_width@n:	
   912                           ; 1 bytes @ 0x9
   913                           
   914     0079                     ??___flmul:	
   915                           ; 2 bytes @ 0x9
   916                           
   917                           
   918                           ; 1 bytes @ 0x9
   919     0079                     	ds	1
   920     007A                     ___fladd@bexp:
   921                           
   922                           ; 1 bytes @ 0xA
   923     007A                     	ds	1
   924     007B                     ___fladd@grs:
   925                           
   926                           ; 1 bytes @ 0xB
   927     007B                     	ds	2
   928     007D                     ??_pad:
   929                           
   930                           ; 1 bytes @ 0xD
   931     007D                     	ds	1
   932     007E                     ??_BatStatus:
   933     007E                     ??_vfprintf:	
   934                           ; 1 bytes @ 0xE
   935                           
   936     007E                     ??___flsub:	
   937                           ; 1 bytes @ 0xE
   938                           
   939                           
   940                           	psect	cstackBANK0
   941     0020                     __pcstackBANK0:	
   942                           ; 1 bytes @ 0xE
   943                           
   944     0020                     ?_fputs:
   945     0020                     ?___flmul:	
   946                           ; 2 bytes @ 0x0
   947                           
   948     0020                     fputs@s:	
   949                           ; 4 bytes @ 0x0
   950                           
   951     0020                     ___fpclassifyf@e:	
   952                           ; 1 bytes @ 0x0
   953                           
   954     0020                     ___fldiv@rem:	
   955                           ; 2 bytes @ 0x0
   956                           
   957     0020                     ___flmul@b:	
   958                           ; 4 bytes @ 0x0
   959                           
   960     0020                     ??___fladd:	
   961                           ; 4 bytes @ 0x0
   962                           
   963                           
   964                           ; 1 bytes @ 0x0
   965     0020                     	ds	1
   966     0021                     fputs@fp:
   967                           
   968                           ; 2 bytes @ 0x1
   969     0021                     	ds	1
   970     0022                     ___fpclassifyf@u:
   971                           
   972                           ; 4 bytes @ 0x2
   973     0022                     	ds	1
   974     0023                     ??_fputs:
   975                           
   976                           ; 1 bytes @ 0x3
   977     0023                     	ds	1
   978     0024                     ___fldiv@sign:
   979     0024                     ___flmul@a:	
   980                           ; 1 bytes @ 0x4
   981                           
   982                           
   983                           ; 4 bytes @ 0x4
   984     0024                     	ds	1
   985     0025                     fputs@c:
   986     0025                     ___fldiv@new_exp:	
   987                           ; 1 bytes @ 0x5
   988                           
   989                           
   990                           ; 2 bytes @ 0x5
   991     0025                     	ds	1
   992     0026                     fputs@i:
   993                           
   994                           ; 2 bytes @ 0x6
   995     0026                     	ds	1
   996     0027                     ___fldiv@grs:
   997                           
   998                           ; 4 bytes @ 0x7
   999     0027                     	ds	1
  1000     0028                     ?_pad:
  1001     0028                     ___flmul@sign:	
  1002                           ; 1 bytes @ 0x8
  1003                           
  1004     0028                     pad@fp:	
  1005                           ; 1 bytes @ 0x8
  1006                           
  1007                           
  1008                           ; 2 bytes @ 0x8
  1009     0028                     	ds	1
  1010     0029                     ___flmul@grs:
  1011                           
  1012                           ; 4 bytes @ 0x9
  1013     0029                     	ds	1
  1014     002A                     pad@buf:
  1015                           
  1016                           ; 1 bytes @ 0xA
  1017     002A                     	ds	1
  1018     002B                     ___fldiv@bexp:
  1019     002B                     pad@p:	
  1020                           ; 1 bytes @ 0xB
  1021                           
  1022                           
  1023                           ; 2 bytes @ 0xB
  1024     002B                     	ds	1
  1025     002C                     ___fldiv@aexp:
  1026                           
  1027                           ; 1 bytes @ 0xC
  1028     002C                     	ds	1
  1029     002D                     ?_floorf:
  1030     002D                     ___flmul@aexp:	
  1031                           ; 4 bytes @ 0xD
  1032                           
  1033     002D                     pad@i:	
  1034                           ; 1 bytes @ 0xD
  1035                           
  1036     002D                     floorf@x:	
  1037                           ; 2 bytes @ 0xD
  1038                           
  1039                           
  1040                           ; 4 bytes @ 0xD
  1041     002D                     	ds	1
  1042     002E                     ___flmul@bexp:
  1043                           
  1044                           ; 1 bytes @ 0xE
  1045     002E                     	ds	1
  1046     002F                     ___flmul@prod:
  1047                           
  1048                           ; 4 bytes @ 0xF
  1049     002F                     	ds	2
  1050     0031                     ??_floorf:
  1051                           
  1052                           ; 1 bytes @ 0x11
  1053     0031                     	ds	2
  1054     0033                     ___flmul@temp:
  1055                           
  1056                           ; 2 bytes @ 0x13
  1057     0033                     	ds	2
  1058     0035                     ?___flge:
  1059     0035                     ?___flsub:	
  1060                           ; 1 bit 
  1061                           
  1062     0035                     ___flge@ff1:	
  1063                           ; 4 bytes @ 0x15
  1064                           
  1065     0035                     ___flsub@a:	
  1066                           ; 4 bytes @ 0x15
  1067                           
  1068                           
  1069                           ; 4 bytes @ 0x15
  1070     0035                     	ds	2
  1071     0037                     floorf@m:
  1072                           
  1073                           ; 4 bytes @ 0x17
  1074     0037                     	ds	2
  1075     0039                     ___flge@ff2:
  1076     0039                     ___flsub@b:	
  1077                           ; 4 bytes @ 0x19
  1078                           
  1079                           
  1080                           ; 4 bytes @ 0x19
  1081     0039                     	ds	2
  1082     003B                     floorf@e:
  1083                           
  1084                           ; 2 bytes @ 0x1B
  1085     003B                     	ds	2
  1086     003D                     floorf@u:
  1087     003D                     ??___flge:	
  1088                           ; 4 bytes @ 0x1D
  1089                           
  1090                           
  1091                           ; 1 bytes @ 0x1D
  1092     003D                     	ds	4
  1093     0041                     ?_efgtoa:
  1094     0041                     efgtoa@fp:	
  1095                           ; 1 bytes @ 0x21
  1096                           
  1097                           
  1098                           ; 2 bytes @ 0x21
  1099     0041                     	ds	2
  1100     0043                     efgtoa@f:
  1101                           
  1102                           ; 4 bytes @ 0x23
  1103     0043                     	ds	4
  1104     0047                     efgtoa@c:
  1105                           
  1106                           ; 1 bytes @ 0x27
  1107     0047                     	ds	1
  1108     0048                     ??_efgtoa:
  1109                           
  1110                           ; 1 bytes @ 0x28
  1111     0048                     	ds	4
  1112     004C                     ??_vfpfcnvrt:
  1113                           
  1114                           ; 1 bytes @ 0x2C
  1115     004C                     	ds	2
  1116     004E                     vfpfcnvrt@convarg:
  1117                           
  1118                           ; 4 bytes @ 0x2E
  1119     004E                     	ds	4
  1120     0052                     vfpfcnvrt@c:
  1121                           
  1122                           ; 1 bytes @ 0x32
  1123     0052                     	ds	1
  1124     0053                     vfpfcnvrt@cp:
  1125                           
  1126                           ; 1 bytes @ 0x33
  1127     0053                     	ds	1
  1128     0054                     vfprintf@cfmt:
  1129                           
  1130                           ; 1 bytes @ 0x34
  1131     0054                     	ds	1
  1132     0055                     ??_sprintf:
  1133                           
  1134                           ; 1 bytes @ 0x35
  1135     0055                     	ds	1
  1136     0056                     sprintf@ap:
  1137                           
  1138                           ; 1 bytes @ 0x36
  1139     0056                     	ds	1
  1140     0057                     sprintf@f:
  1141                           
  1142                           ; 11 bytes @ 0x37
  1143     0057                     	ds	11
  1144                           
  1145                           	psect	maintext
  1146     1B4A                     __pmaintext:	
  1147 ;;
  1148 ;;Main: autosize = 0, tempsize = 3, incstack = 0, save=0
  1149 ;;
  1150 ;; *************** function _main *****************
  1151 ;; Defined at:
  1152 ;;		line 40 in file "main.c"
  1153 ;; Parameters:    Size  Location     Type
  1154 ;;		None
  1155 ;; Auto vars:     Size  Location     Type
  1156 ;;		None
  1157 ;; Return value:  Size  Location     Type
  1158 ;;                  1    wreg      void 
  1159 ;; Registers used:
  1160 ;;		wreg, fsr0l, fsr0h, status,2, status,0, btemp+1, pclath, cstack
  1161 ;; Tracked objects:
  1162 ;;		On entry : B00/0
  1163 ;;		On exit  : 0/0
  1164 ;;		Unchanged: 0/0
  1165 ;; Data sizes:     COMMON   BANK0   BANK1   BANK3   BANK2
  1166 ;;      Params:         0       0       0       0       0
  1167 ;;      Locals:         0       0       0       0       0
  1168 ;;      Temps:          0       0       3       0       0
  1169 ;;      Totals:         0       0       3       0       0
  1170 ;;Total ram usage:        3 bytes
  1171 ;; Hardware stack levels required when called: 9
  1172 ;; This function calls:
  1173 ;;		_BatStatus
  1174 ;;		_Lcdinit
  1175 ;; This function is called by:
  1176 ;;		Startup code after reset
  1177 ;; This function uses a non-reentrant model
  1178 ;;
  1179                           
  1180     1B4A                     _main:	
  1181                           ;psect for function _main
  1182                           
  1183     1B4A                     l3461:	
  1184                           ;incstack = 0
  1185 ;; hardware stack exceeded
  1186                           ; Regs used in _main: [wreg-fsr0h+status,2+status,0+btemp+1+pclath+cstack]
  1187                           
  1188                           
  1189                           ;main.c: 41:     LcdCommand(0x30);
  1190     1B4A  160A  118A  2031  160A  158A  	fcall	_Lcdinit
  1191     1B4F                     l3463:
  1192                           
  1193                           ;main.c: 44:     _delay((unsigned long)((100)*(20000000/4000.0)));;main.c: 45:     LcdCo
      +                          mmand(0x38);
  1194     1B4F  120A  158A  2276  160A  158A  	fcall	_BatStatus
  1195     1B54                     l3465:
  1196                           
  1197                           ;main.c: 46:     _delay((unsigned long)((100)*(20000000/4000.0)));
  1198     1B54  3003               	movlw	3
  1199     1B55  1683               	bsf	3,5	;RP0=1, select bank1
  1200     1B56  1303               	bcf	3,6	;RP1=0, select bank1
  1201     1B57  00DC               	movwf	(??_main^(0+128)+2)
  1202     1B58  308A               	movlw	138
  1203     1B59  00DB               	movwf	(??_main^(0+128)+1)
  1204     1B5A  3055               	movlw	85
  1205     1B5B  00DA               	movwf	??_main^(0+128)
  1206     1B5C                     u4807:
  1207     1B5C  0BDA               	decfsz	??_main^(0+128),f
  1208     1B5D  2B5C               	goto	u4807
  1209     1B5E  0BDB               	decfsz	(??_main^(0+128)+1),f
  1210     1B5F  2B5C               	goto	u4807
  1211     1B60  0BDC               	decfsz	(??_main^(0+128)+2),f
  1212     1B61  2B5C               	goto	u4807
  1213     1B62  2B4F               	goto	l3463
  1214     1B63  120A  118A  2800   	ljmp	start
  1215     1B66                     __end_of_main:
  1216                           
  1217                           	psect	text1
  1218     1031                     __ptext1:	
  1219 ;; *************** function _Lcdinit *****************
  1220 ;; Defined at:
  1221 ;;		line 51 in file "main.c"
  1222 ;; Parameters:    Size  Location     Type
  1223 ;;		None
  1224 ;; Auto vars:     Size  Location     Type
  1225 ;;		None
  1226 ;; Return value:  Size  Location     Type
  1227 ;;                  1    wreg      void 
  1228 ;; Registers used:
  1229 ;;		wreg, status,2, status,0, pclath, cstack
  1230 ;; Tracked objects:
  1231 ;;		On entry : 0/0
  1232 ;;		On exit  : 0/0
  1233 ;;		Unchanged: 0/0
  1234 ;; Data sizes:     COMMON   BANK0   BANK1   BANK3   BANK2
  1235 ;;      Params:         0       0       0       0       0
  1236 ;;      Locals:         0       0       0       0       0
  1237 ;;      Temps:          3       0       0       0       0
  1238 ;;      Totals:         3       0       0       0       0
  1239 ;;Total ram usage:        3 bytes
  1240 ;; Hardware stack levels used: 1
  1241 ;; Hardware stack levels required when called: 1
  1242 ;; This function calls:
  1243 ;;		_LcdCommand
  1244 ;; This function is called by:
  1245 ;;		_main
  1246 ;; This function uses a non-reentrant model
  1247 ;;
  1248                           
  1249     1031                     _Lcdinit:	
  1250                           ;psect for function _Lcdinit
  1251                           
  1252     1031                     l3187:	
  1253                           ;incstack = 0
  1254                           ; Regs used in _Lcdinit: [wreg+status,2+status,0+pclath+cstack]
  1255                           
  1256                           
  1257                           ;main.c: 53: }
  1258     1031  1683               	bsf	3,5	;RP0=1, select bank1
  1259     1032  1303               	bcf	3,6	;RP1=0, select bank1
  1260     1033  0187               	clrf	7	;volatile
  1261                           
  1262                           ;main.c: 54: 
  1263     1034  0188               	clrf	8	;volatile
  1264     1035                     l3189:
  1265                           
  1266                           ;main.c: 55: 
  1267     1035  30F0               	movlw	240
  1268     1036  0086               	movwf	6	;volatile
  1269     1037                     l3191:
  1270                           
  1271                           ;main.c: 57: {
  1272     1037  307F               	movlw	127
  1273     1038  0581               	andwf	1,f	;volatile
  1274     1039                     l3193:
  1275                           
  1276                           ;main.c: 58:     value = PORTB & 0xF0;
  1277     1039  3003               	movlw	3
  1278     103A  00F6               	movwf	??_Lcdinit+2
  1279     103B  308A               	movlw	138
  1280     103C  00F5               	movwf	??_Lcdinit+1
  1281     103D  3055               	movlw	85
  1282     103E  00F4               	movwf	??_Lcdinit
  1283     103F                     u4817:
  1284     103F  0BF4               	decfsz	??_Lcdinit,f
  1285     1040  283F               	goto	u4817
  1286     1041  0BF5               	decfsz	??_Lcdinit+1,f
  1287     1042  283F               	goto	u4817
  1288     1043  0BF6               	decfsz	??_Lcdinit+2,f
  1289     1044  283F               	goto	u4817
  1290     1045  2846               	nop2
  1291     1046                     l3195:
  1292                           
  1293                           ;main.c: 61:     {
  1294     1046  3030               	movlw	48
  1295     1047  120A  158A  2000  160A  118A  	fcall	_LcdCommand
  1296     104C                     l3197:
  1297                           
  1298                           ;main.c: 62:         case 0xE0:
  1299     104C  3003               	movlw	3
  1300     104D  00F6               	movwf	??_Lcdinit+2
  1301     104E  308A               	movlw	138
  1302     104F  00F5               	movwf	??_Lcdinit+1
  1303     1050  3055               	movlw	85
  1304     1051  00F4               	movwf	??_Lcdinit
  1305     1052                     u4827:
  1306     1052  0BF4               	decfsz	??_Lcdinit,f
  1307     1053  2852               	goto	u4827
  1308     1054  0BF5               	decfsz	??_Lcdinit+1,f
  1309     1055  2852               	goto	u4827
  1310     1056  0BF6               	decfsz	??_Lcdinit+2,f
  1311     1057  2852               	goto	u4827
  1312     1058  2859               	nop2
  1313     1059                     l3199:
  1314                           
  1315                           ;main.c: 63:             LcdCommand(0x80);
  1316     1059  3030               	movlw	48
  1317     105A  120A  158A  2000  160A  118A  	fcall	_LcdCommand
  1318     105F                     l3201:
  1319                           
  1320                           ;main.c: 64:             for(int i = 0; i < 15; i++)
  1321     105F  3003               	movlw	3
  1322     1060  00F6               	movwf	??_Lcdinit+2
  1323     1061  308A               	movlw	138
  1324     1062  00F5               	movwf	??_Lcdinit+1
  1325     1063  3055               	movlw	85
  1326     1064  00F4               	movwf	??_Lcdinit
  1327     1065                     u4837:
  1328     1065  0BF4               	decfsz	??_Lcdinit,f
  1329     1066  2865               	goto	u4837
  1330     1067  0BF5               	decfsz	??_Lcdinit+1,f
  1331     1068  2865               	goto	u4837
  1332     1069  0BF6               	decfsz	??_Lcdinit+2,f
  1333     106A  2865               	goto	u4837
  1334     106B  286C               	nop2
  1335     106C                     l3203:
  1336                           
  1337                           ;main.c: 65:             {
  1338     106C  3030               	movlw	48
  1339     106D  120A  158A  2000  160A  118A  	fcall	_LcdCommand
  1340     1072                     l3205:
  1341                           
  1342                           ;main.c: 66:                 LcdData(Array[i]);
  1343     1072  3003               	movlw	3
  1344     1073  00F6               	movwf	??_Lcdinit+2
  1345     1074  308A               	movlw	138
  1346     1075  00F5               	movwf	??_Lcdinit+1
  1347     1076  3055               	movlw	85
  1348     1077  00F4               	movwf	??_Lcdinit
  1349     1078                     u4847:
  1350     1078  0BF4               	decfsz	??_Lcdinit,f
  1351     1079  2878               	goto	u4847
  1352     107A  0BF5               	decfsz	??_Lcdinit+1,f
  1353     107B  2878               	goto	u4847
  1354     107C  0BF6               	decfsz	??_Lcdinit+2,f
  1355     107D  2878               	goto	u4847
  1356     107E  287F               	nop2
  1357     107F                     l3207:
  1358                           
  1359                           ;main.c: 67:             }
  1360     107F  3038               	movlw	56
  1361     1080  120A  158A  2000  160A  118A  	fcall	_LcdCommand
  1362     1085                     l3209:
  1363                           
  1364                           ;main.c: 68:             LcdCommand(0x89);
  1365     1085  3003               	movlw	3
  1366     1086  00F6               	movwf	??_Lcdinit+2
  1367     1087  308A               	movlw	138
  1368     1088  00F5               	movwf	??_Lcdinit+1
  1369     1089  3055               	movlw	85
  1370     108A  00F4               	movwf	??_Lcdinit
  1371     108B                     u4857:
  1372     108B  0BF4               	decfsz	??_Lcdinit,f
  1373     108C  288B               	goto	u4857
  1374     108D  0BF5               	decfsz	??_Lcdinit+1,f
  1375     108E  288B               	goto	u4857
  1376     108F  0BF6               	decfsz	??_Lcdinit+2,f
  1377     1090  288B               	goto	u4857
  1378     1091  2892               	nop2
  1379     1092                     l3211:
  1380                           
  1381                           ;main.c: 69:             sprintf(buffer, "%.1f", j);
  1382     1092  300C               	movlw	12
  1383     1093  120A  158A  2000  160A  118A  	fcall	_LcdCommand
  1384     1098                     l3213:
  1385                           
  1386                           ;main.c: 70:             for(int i = 0; buffer[i] != '\0'; i++)
  1387     1098  3003               	movlw	3
  1388     1099  00F6               	movwf	??_Lcdinit+2
  1389     109A  308A               	movlw	138
  1390     109B  00F5               	movwf	??_Lcdinit+1
  1391     109C  3055               	movlw	85
  1392     109D  00F4               	movwf	??_Lcdinit
  1393     109E                     u4867:
  1394     109E  0BF4               	decfsz	??_Lcdinit,f
  1395     109F  289E               	goto	u4867
  1396     10A0  0BF5               	decfsz	??_Lcdinit+1,f
  1397     10A1  289E               	goto	u4867
  1398     10A2  0BF6               	decfsz	??_Lcdinit+2,f
  1399     10A3  289E               	goto	u4867
  1400     10A4  28A5               	nop2
  1401     10A5                     l3215:
  1402                           
  1403                           ;main.c: 71:             {
  1404     10A5  3001               	movlw	1
  1405     10A6  120A  158A  2000  160A  118A  	fcall	_LcdCommand
  1406     10AB                     l3217:
  1407                           
  1408                           ;main.c: 72:                 LcdData(buffer[i]);
  1409     10AB  3003               	movlw	3
  1410     10AC  00F6               	movwf	??_Lcdinit+2
  1411     10AD  308A               	movlw	138
  1412     10AE  00F5               	movwf	??_Lcdinit+1
  1413     10AF  3055               	movlw	85
  1414     10B0  00F4               	movwf	??_Lcdinit
  1415     10B1                     u4877:
  1416     10B1  0BF4               	decfsz	??_Lcdinit,f
  1417     10B2  28B1               	goto	u4877
  1418     10B3  0BF5               	decfsz	??_Lcdinit+1,f
  1419     10B4  28B1               	goto	u4877
  1420     10B5  0BF6               	decfsz	??_Lcdinit+2,f
  1421     10B6  28B1               	goto	u4877
  1422     10B7  28B8               	nop2
  1423     10B8                     l3219:
  1424                           
  1425                           ;main.c: 73:             }
  1426     10B8  3006               	movlw	6
  1427     10B9  120A  158A  2000  160A  118A  	fcall	_LcdCommand
  1428     10BE                     l3221:
  1429                           
  1430                           ;main.c: 74:             LcdCommand(0xC0);
  1431     10BE  3003               	movlw	3
  1432     10BF  00F6               	movwf	??_Lcdinit+2
  1433     10C0  308A               	movlw	138
  1434     10C1  00F5               	movwf	??_Lcdinit+1
  1435     10C2  3055               	movlw	85
  1436     10C3  00F4               	movwf	??_Lcdinit
  1437     10C4                     u4887:
  1438     10C4  0BF4               	decfsz	??_Lcdinit,f
  1439     10C5  28C4               	goto	u4887
  1440     10C6  0BF5               	decfsz	??_Lcdinit+1,f
  1441     10C7  28C4               	goto	u4887
  1442     10C8  0BF6               	decfsz	??_Lcdinit+2,f
  1443     10C9  28C4               	goto	u4887
  1444     10CA  28CB               	nop2
  1445     10CB                     l59:
  1446     10CB  0008               	return
  1447     10CC                     __end_of_Lcdinit:
  1448                           
  1449                           	psect	text2
  1450     0A76                     __ptext2:	
  1451 ;; *************** function _BatStatus *****************
  1452 ;; Defined at:
  1453 ;;		line 78 in file "main.c"
  1454 ;; Parameters:    Size  Location     Type
  1455 ;;		None
  1456 ;; Auto vars:     Size  Location     Type
  1457 ;;  i               2   22[BANK3 ] int 
  1458 ;;  i               2   20[BANK3 ] int 
  1459 ;;  i               2   18[BANK3 ] int 
  1460 ;;  i               2   16[BANK3 ] int 
  1461 ;;  i               2   14[BANK3 ] int 
  1462 ;;  i               2   12[BANK3 ] int 
  1463 ;;  i               2   24[BANK3 ] int 
  1464 ;;  i               2    6[BANK3 ] int 
  1465 ;;  i               2    4[BANK3 ] int 
  1466 ;;  i               2    2[BANK3 ] int 
  1467 ;;  i               2   10[BANK3 ] int 
  1468 ;;  i               2    0[BANK3 ] int 
  1469 ;;  i               2    8[BANK3 ] int 
  1470 ;; Return value:  Size  Location     Type
  1471 ;;                  1    wreg      void 
  1472 ;; Registers used:
  1473 ;;		wreg, fsr0l, fsr0h, status,2, status,0, btemp+1, pclath, cstack
  1474 ;; Tracked objects:
  1475 ;;		On entry : 0/0
  1476 ;;		On exit  : 0/0
  1477 ;;		Unchanged: 0/0
  1478 ;; Data sizes:     COMMON   BANK0   BANK1   BANK3   BANK2
  1479 ;;      Params:         0       0       0       0       0
  1480 ;;      Locals:         0       0       0      26       0
  1481 ;;      Temps:          0       0       0       0       0
  1482 ;;      Totals:         0       0       0      26       0
  1483 ;;Total ram usage:       26 bytes
  1484 ;; Hardware stack levels used: 1
  1485 ;; Hardware stack levels required when called: 8
  1486 ;; This function calls:
  1487 ;;		_LcdCommand
  1488 ;;		_LcdData
  1489 ;;		___fladd
  1490 ;;		___flge
  1491 ;;		___flsub
  1492 ;;		_sprintf
  1493 ;; This function is called by:
  1494 ;;		_main
  1495 ;; This function uses a non-reentrant model
  1496 ;;
  1497                           
  1498     0A76                     _BatStatus:	
  1499                           ;psect for function _BatStatus
  1500                           
  1501     0A76                     l3223:	
  1502                           ;incstack = 0
  1503 ;; hardware stack exceeded
  1504                           ; Regs used in _BatStatus: [wreg-fsr0h+status,2+status,0+btemp+1+pclath+cstack]
  1505                           
  1506                           
  1507                           ;main.c: 80: 
  1508     0A76  1283               	bcf	3,5	;RP0=0, select bank0
  1509     0A77  1303               	bcf	3,6	;RP1=0, select bank0
  1510     0A78  0806               	movf	6,w	;volatile
  1511     0A79  1683               	bsf	3,5	;RP0=1, select bank3
  1512     0A7A  1703               	bsf	3,6	;RP1=1, select bank3
  1513     0A7B  00EA               	movwf	_value^(0+384)
  1514     0A7C                     l3225:
  1515     0A7C  30F0               	movlw	240
  1516     0A7D  05EA               	andwf	_value^(0+384),f
  1517                           
  1518                           ;main.c: 82:             j += 0.1;
  1519     0A7E  2FF1               	goto	l3441
  1520     0A7F                     l3227:
  1521                           
  1522                           ;main.c: 85:                 j = 22.5;
  1523     0A7F  3080               	movlw	128
  1524     0A80  120A  158A  2000  120A  158A  	fcall	_LcdCommand
  1525     0A85                     l3229:
  1526                           
  1527                           ;main.c: 86:             }
  1528     0A85  1683               	bsf	3,5	;RP0=1, select bank3
  1529     0A86  1703               	bsf	3,6	;RP1=1, select bank3
  1530     0A87  01D8               	clrf	BatStatus@i^(0+384)
  1531     0A88  01D9               	clrf	(BatStatus@i+1)^(0+384)
  1532     0A89                     l3235:
  1533                           
  1534                           ;main.c: 87:             LcdCommand(0x89);;main.c: 88:             sprintf(buffer, "%.1f
      +                          ", j);
  1535     0A89  1683               	bsf	3,5	;RP0=1, select bank3
  1536     0A8A  1703               	bsf	3,6	;RP1=1, select bank3
  1537     0A8B  0858               	movf	BatStatus@i^(0+384),w
  1538     0A8C  3EBD               	addlw	(low (_Array| (0+256)))& (0+255)
  1539     0A8D  0084               	movwf	4
  1540     0A8E  1783               	bsf	3,7	;select IRP bank3
  1541     0A8F  0800               	movf	0,w
  1542     0A90  160A  158A  2318  120A  158A  	fcall	_LcdData
  1543     0A95                     l3237:
  1544                           
  1545                           ;main.c: 89:             for(int i = 0; buffer[i] != '\0'; i++)
  1546     0A95  3001               	movlw	1
  1547     0A96  1683               	bsf	3,5	;RP0=1, select bank3
  1548     0A97  1703               	bsf	3,6	;RP1=1, select bank3
  1549     0A98  07D8               	addwf	BatStatus@i^(0+384),f
  1550     0A99  1803               	skipnc
  1551     0A9A  0AD9               	incf	(BatStatus@i+1)^(0+384),f
  1552     0A9B  3000               	movlw	0
  1553     0A9C  07D9               	addwf	(BatStatus@i+1)^(0+384),f
  1554     0A9D                     l3239:
  1555     0A9D  0859               	movf	(BatStatus@i+1)^(0+384),w
  1556     0A9E  3A80               	xorlw	128
  1557     0A9F  00FF               	movwf	btemp+1
  1558     0AA0  3080               	movlw	128
  1559     0AA1  027F               	subwf	btemp+1,w
  1560     0AA2  1D03               	skipz
  1561     0AA3  2AA6               	goto	u4535
  1562     0AA4  300F               	movlw	15
  1563     0AA5  0258               	subwf	BatStatus@i^(0+384),w
  1564     0AA6                     u4535:
  1565     0AA6  1C03               	skipc
  1566     0AA7  2AA9               	goto	u4531
  1567     0AA8  2AAA               	goto	u4530
  1568     0AA9                     u4531:
  1569     0AA9  2A89               	goto	l3235
  1570     0AAA                     u4530:
  1571     0AAA                     l3241:
  1572                           
  1573                           ;main.c: 90:             {
  1574     0AAA  3089               	movlw	137
  1575     0AAB  120A  158A  2000  120A  158A  	fcall	_LcdCommand
  1576     0AB0                     l3243:
  1577                           
  1578                           ;main.c: 91:                 LcdData(buffer[i]);
  1579     0AB0  30E1               	movlw	(low (_buffer| 0))& (0+255)
  1580     0AB1  1683               	bsf	3,5	;RP0=1, select bank1
  1581     0AB2  1303               	bcf	3,6	;RP1=0, select bank1
  1582     0AB3  00D4               	movwf	sprintf@s^(0+128)
  1583     0AB4  3001               	movlw	(low ((STR_1-__stringbase)| (0+32768)))& (0+255)
  1584     0AB5  00D5               	movwf	sprintf@fmt^(0+128)
  1585     0AB6  1683               	bsf	3,5	;RP0=1, select bank3
  1586     0AB7  1703               	bsf	3,6	;RP1=1, select bank3
  1587     0AB8  084F               	movf	(_j+3)^(0+384),w
  1588     0AB9  1683               	bsf	3,5	;RP0=1, select bank1
  1589     0ABA  1303               	bcf	3,6	;RP1=0, select bank1
  1590     0ABB  00D9               	movwf	((?_sprintf+3)^(0+128)+2)
  1591     0ABC  1683               	bsf	3,5	;RP0=1, select bank3
  1592     0ABD  1703               	bsf	3,6	;RP1=1, select bank3
  1593     0ABE  084E               	movf	(_j+2)^(0+384),w
  1594     0ABF  1683               	bsf	3,5	;RP0=1, select bank1
  1595     0AC0  1303               	bcf	3,6	;RP1=0, select bank1
  1596     0AC1  00D8               	movwf	((?_sprintf+2)^(0+128)+2)
  1597     0AC2  1683               	bsf	3,5	;RP0=1, select bank3
  1598     0AC3  1703               	bsf	3,6	;RP1=1, select bank3
  1599     0AC4  084D               	movf	(_j+1)^(0+384),w
  1600     0AC5  1683               	bsf	3,5	;RP0=1, select bank1
  1601     0AC6  1303               	bcf	3,6	;RP1=0, select bank1
  1602     0AC7  00D7               	movwf	((?_sprintf+1)^(0+128)+2)
  1603     0AC8  1683               	bsf	3,5	;RP0=1, select bank3
  1604     0AC9  1703               	bsf	3,6	;RP1=1, select bank3
  1605     0ACA  084C               	movf	_j^(0+384),w
  1606     0ACB  1683               	bsf	3,5	;RP0=1, select bank1
  1607     0ACC  1303               	bcf	3,6	;RP1=0, select bank1
  1608     0ACD  00D6               	movwf	(?_sprintf^(0+128)+2)
  1609     0ACE  160A  118A  2004  120A  158A  	fcall	_sprintf
  1610     0AD3                     l3245:
  1611                           
  1612                           ;main.c: 92:             }
  1613     0AD3  1683               	bsf	3,5	;RP0=1, select bank3
  1614     0AD4  1703               	bsf	3,6	;RP1=1, select bank3
  1615     0AD5  01D0               	clrf	BatStatus@i_79^(0+384)
  1616     0AD6  01D1               	clrf	(BatStatus@i_79+1)^(0+384)
  1617     0AD7  2AE9               	goto	l3251
  1618     0AD8                     l3247:
  1619                           
  1620                           ;main.c: 93: ;main.c: 94: 
  1621     0AD8  0850               	movf	BatStatus@i_79^(0+384),w
  1622     0AD9  3EE1               	addlw	(low (_buffer| 0))& (0+255)
  1623     0ADA  0084               	movwf	4
  1624     0ADB  0800               	movf	0,w
  1625     0ADC  160A  158A  2318  120A  158A  	fcall	_LcdData
  1626     0AE1                     l3249:
  1627                           
  1628                           ;main.c: 95:             if(j >= 15.5 && j <= 17.5)
  1629     0AE1  3001               	movlw	1
  1630     0AE2  1683               	bsf	3,5	;RP0=1, select bank3
  1631     0AE3  1703               	bsf	3,6	;RP1=1, select bank3
  1632     0AE4  07D0               	addwf	BatStatus@i_79^(0+384),f
  1633     0AE5  1803               	skipnc
  1634     0AE6  0AD1               	incf	(BatStatus@i_79+1)^(0+384),f
  1635     0AE7  3000               	movlw	0
  1636     0AE8  07D1               	addwf	(BatStatus@i_79+1)^(0+384),f
  1637     0AE9                     l3251:
  1638     0AE9  0850               	movf	BatStatus@i_79^(0+384),w
  1639     0AEA  3EE1               	addlw	(low (_buffer| 0))& (0+255)
  1640     0AEB  0084               	movwf	4
  1641     0AEC  1383               	bcf	3,7	;select IRP bank1
  1642     0AED  0800               	movf	0,w
  1643     0AEE  1D03               	btfss	3,2
  1644     0AEF  2AF1               	goto	u4541
  1645     0AF0  2AF2               	goto	u4540
  1646     0AF1                     u4541:
  1647     0AF1  2AD8               	goto	l3247
  1648     0AF2                     u4540:
  1649     0AF2                     l3253:
  1650                           
  1651                           ;main.c: 96:             {
  1652     0AF2  30C0               	movlw	192
  1653     0AF3  120A  158A  2000  120A  158A  	fcall	_LcdCommand
  1654     0AF8                     l3255:
  1655                           
  1656                           ;main.c: 97:                 LcdCommand(0xC0);
  1657     0AF8  1683               	bsf	3,5	;RP0=1, select bank3
  1658     0AF9  1703               	bsf	3,6	;RP1=1, select bank3
  1659     0AFA  01DA               	clrf	BatStatus@i_80^(0+384)
  1660     0AFB  01DB               	clrf	(BatStatus@i_80+1)^(0+384)
  1661     0AFC                     l3261:
  1662                           
  1663                           ;main.c: 98:                 for(int i = 0; i < 10; i++);main.c: 99:                 {
  1664     0AFC  1683               	bsf	3,5	;RP0=1, select bank3
  1665     0AFD  1703               	bsf	3,6	;RP1=1, select bank3
  1666     0AFE  085A               	movf	BatStatus@i_80^(0+384),w
  1667     0AFF  3EAE               	addlw	(low (_BatLowArray| (0+256)))& (0+255)
  1668     0B00  0084               	movwf	4
  1669     0B01  1783               	bsf	3,7	;select IRP bank3
  1670     0B02  0800               	movf	0,w
  1671     0B03  160A  158A  2318  120A  158A  	fcall	_LcdData
  1672     0B08                     l3263:
  1673                           
  1674                           ;main.c: 100:                     LcdData(BatLowArray[i]);
  1675     0B08  3001               	movlw	1
  1676     0B09  1683               	bsf	3,5	;RP0=1, select bank3
  1677     0B0A  1703               	bsf	3,6	;RP1=1, select bank3
  1678     0B0B  07DA               	addwf	BatStatus@i_80^(0+384),f
  1679     0B0C  1803               	skipnc
  1680     0B0D  0ADB               	incf	(BatStatus@i_80+1)^(0+384),f
  1681     0B0E  3000               	movlw	0
  1682     0B0F  07DB               	addwf	(BatStatus@i_80+1)^(0+384),f
  1683     0B10                     l3265:
  1684     0B10  085B               	movf	(BatStatus@i_80+1)^(0+384),w
  1685     0B11  3A80               	xorlw	128
  1686     0B12  00FF               	movwf	btemp+1
  1687     0B13  3080               	movlw	128
  1688     0B14  027F               	subwf	btemp+1,w
  1689     0B15  1D03               	skipz
  1690     0B16  2B19               	goto	u4555
  1691     0B17  3007               	movlw	7
  1692     0B18  025A               	subwf	BatStatus@i_80^(0+384),w
  1693     0B19                     u4555:
  1694     0B19  1C03               	skipc
  1695     0B1A  2B1C               	goto	u4551
  1696     0B1B  2B1D               	goto	u4550
  1697     0B1C                     u4551:
  1698     0B1C  2AFC               	goto	l3261
  1699     0B1D                     u4550:
  1700     0B1D  2FFF               	goto	l111
  1701     0B1E                     l3267:
  1702                           
  1703                           ;main.c: 104:             {
  1704     0B1E  303D               	movlw	61
  1705     0B1F  00F3               	movwf	___fladd@b+3
  1706     0B20  30CC               	movlw	204
  1707     0B21  00F2               	movwf	___fladd@b+2
  1708     0B22  30CC               	movlw	204
  1709     0B23  00F1               	movwf	___fladd@b+1
  1710     0B24  30CD               	movlw	205
  1711     0B25  00F0               	movwf	___fladd@b
  1712     0B26  084F               	movf	(_j+3)^(0+384),w
  1713     0B27  00F7               	movwf	___fladd@a+3
  1714     0B28  084E               	movf	(_j+2)^(0+384),w
  1715     0B29  00F6               	movwf	___fladd@a+2
  1716     0B2A  084D               	movf	(_j+1)^(0+384),w
  1717     0B2B  00F5               	movwf	___fladd@a+1
  1718     0B2C  084C               	movf	_j^(0+384),w
  1719     0B2D  00F4               	movwf	___fladd@a
  1720     0B2E  120A  158A  201A  120A  158A  	fcall	___fladd
  1721     0B33  0873               	movf	?___fladd+3,w
  1722     0B34  1683               	bsf	3,5	;RP0=1, select bank3
  1723     0B35  1703               	bsf	3,6	;RP1=1, select bank3
  1724     0B36  00CF               	movwf	(_j+3)^(0+384)
  1725     0B37  0872               	movf	?___fladd+2,w
  1726     0B38  00CE               	movwf	(_j+2)^(0+384)
  1727     0B39  0871               	movf	?___fladd+1,w
  1728     0B3A  00CD               	movwf	(_j+1)^(0+384)
  1729     0B3B  0870               	movf	?___fladd,w
  1730     0B3C  00CC               	movwf	_j^(0+384)
  1731     0B3D                     l3269:
  1732                           
  1733                           ;main.c: 105:                 LcdCommand(0xC0);
  1734     0B3D  3041               	movlw	65
  1735     0B3E  1283               	bcf	3,5	;RP0=0, select bank0
  1736     0B3F  1303               	bcf	3,6	;RP1=0, select bank0
  1737     0B40  00B8               	movwf	___flge@ff1+3
  1738     0B41  30B4               	movlw	180
  1739     0B42  00B7               	movwf	___flge@ff1+2
  1740     0B43  3000               	movlw	0
  1741     0B44  00B6               	movwf	___flge@ff1+1
  1742     0B45  3000               	movlw	0
  1743     0B46  00B5               	movwf	___flge@ff1
  1744     0B47  1683               	bsf	3,5	;RP0=1, select bank3
  1745     0B48  1703               	bsf	3,6	;RP1=1, select bank3
  1746     0B49  084F               	movf	(_j+3)^(0+384),w
  1747     0B4A  1283               	bcf	3,5	;RP0=0, select bank0
  1748     0B4B  1303               	bcf	3,6	;RP1=0, select bank0
  1749     0B4C  00BC               	movwf	___flge@ff2+3
  1750     0B4D  1683               	bsf	3,5	;RP0=1, select bank3
  1751     0B4E  1703               	bsf	3,6	;RP1=1, select bank3
  1752     0B4F  084E               	movf	(_j+2)^(0+384),w
  1753     0B50  1283               	bcf	3,5	;RP0=0, select bank0
  1754     0B51  1303               	bcf	3,6	;RP1=0, select bank0
  1755     0B52  00BB               	movwf	___flge@ff2+2
  1756     0B53  1683               	bsf	3,5	;RP0=1, select bank3
  1757     0B54  1703               	bsf	3,6	;RP1=1, select bank3
  1758     0B55  084D               	movf	(_j+1)^(0+384),w
  1759     0B56  1283               	bcf	3,5	;RP0=0, select bank0
  1760     0B57  1303               	bcf	3,6	;RP1=0, select bank0
  1761     0B58  00BA               	movwf	___flge@ff2+1
  1762     0B59  1683               	bsf	3,5	;RP0=1, select bank3
  1763     0B5A  1703               	bsf	3,6	;RP1=1, select bank3
  1764     0B5B  084C               	movf	_j^(0+384),w
  1765     0B5C  1283               	bcf	3,5	;RP0=0, select bank0
  1766     0B5D  1303               	bcf	3,6	;RP1=0, select bank0
  1767     0B5E  00B9               	movwf	___flge@ff2
  1768     0B5F  120A  118A  200C  120A  158A  	fcall	___flge
  1769     0B64  1803               	btfsc	3,0
  1770     0B65  2B67               	goto	u4561
  1771     0B66  2B68               	goto	u4560
  1772     0B67                     u4561:
  1773     0B67  2B72               	goto	l3273
  1774     0B68                     u4560:
  1775     0B68                     l3271:
  1776                           
  1777                           ;main.c: 106:                 for(int i = 0; i < 10; i++);main.c: 107:                 {
  1778     0B68  3041               	movlw	65
  1779     0B69  1683               	bsf	3,5	;RP0=1, select bank3
  1780     0B6A  1703               	bsf	3,6	;RP1=1, select bank3
  1781     0B6B  00CF               	movwf	(_j+3)^(0+384)
  1782     0B6C  30B4               	movlw	180
  1783     0B6D  00CE               	movwf	(_j+2)^(0+384)
  1784     0B6E  3000               	movlw	0
  1785     0B6F  00CD               	movwf	(_j+1)^(0+384)
  1786     0B70  3000               	movlw	0
  1787     0B71  00CC               	movwf	_j^(0+384)
  1788     0B72                     l3273:
  1789                           
  1790                           ;main.c: 109:                 }
  1791     0B72  3089               	movlw	137
  1792     0B73  120A  158A  2000  120A  158A  	fcall	_LcdCommand
  1793     0B78                     l3275:
  1794                           
  1795                           ;main.c: 110:             }
  1796     0B78  30E1               	movlw	(low (_buffer| 0))& (0+255)
  1797     0B79  1683               	bsf	3,5	;RP0=1, select bank1
  1798     0B7A  1303               	bcf	3,6	;RP1=0, select bank1
  1799     0B7B  00D4               	movwf	sprintf@s^(0+128)
  1800     0B7C  3001               	movlw	(low ((STR_1-__stringbase)| (0+32768)))& (0+255)
  1801     0B7D  00D5               	movwf	sprintf@fmt^(0+128)
  1802     0B7E  1683               	bsf	3,5	;RP0=1, select bank3
  1803     0B7F  1703               	bsf	3,6	;RP1=1, select bank3
  1804     0B80  084F               	movf	(_j+3)^(0+384),w
  1805     0B81  1683               	bsf	3,5	;RP0=1, select bank1
  1806     0B82  1303               	bcf	3,6	;RP1=0, select bank1
  1807     0B83  00D9               	movwf	((?_sprintf+3)^(0+128)+2)
  1808     0B84  1683               	bsf	3,5	;RP0=1, select bank3
  1809     0B85  1703               	bsf	3,6	;RP1=1, select bank3
  1810     0B86  084E               	movf	(_j+2)^(0+384),w
  1811     0B87  1683               	bsf	3,5	;RP0=1, select bank1
  1812     0B88  1303               	bcf	3,6	;RP1=0, select bank1
  1813     0B89  00D8               	movwf	((?_sprintf+2)^(0+128)+2)
  1814     0B8A  1683               	bsf	3,5	;RP0=1, select bank3
  1815     0B8B  1703               	bsf	3,6	;RP1=1, select bank3
  1816     0B8C  084D               	movf	(_j+1)^(0+384),w
  1817     0B8D  1683               	bsf	3,5	;RP0=1, select bank1
  1818     0B8E  1303               	bcf	3,6	;RP1=0, select bank1
  1819     0B8F  00D7               	movwf	((?_sprintf+1)^(0+128)+2)
  1820     0B90  1683               	bsf	3,5	;RP0=1, select bank3
  1821     0B91  1703               	bsf	3,6	;RP1=1, select bank3
  1822     0B92  084C               	movf	_j^(0+384),w
  1823     0B93  1683               	bsf	3,5	;RP0=1, select bank1
  1824     0B94  1303               	bcf	3,6	;RP1=0, select bank1
  1825     0B95  00D6               	movwf	(?_sprintf^(0+128)+2)
  1826     0B96  160A  118A  2004  120A  158A  	fcall	_sprintf
  1827     0B9B                     l3277:
  1828                           
  1829                           ;main.c: 111:             else if(j >= 20.6 && j <= 22.5)
  1830     0B9B  1683               	bsf	3,5	;RP0=1, select bank3
  1831     0B9C  1703               	bsf	3,6	;RP1=1, select bank3
  1832     0B9D  01D2               	clrf	BatStatus@i_82^(0+384)
  1833     0B9E  01D3               	clrf	(BatStatus@i_82+1)^(0+384)
  1834     0B9F  2BB1               	goto	l3283
  1835     0BA0                     l3279:
  1836                           
  1837                           ;main.c: 112:             {;main.c: 113:                 LcdCommand(0xC0);
  1838     0BA0  0852               	movf	BatStatus@i_82^(0+384),w
  1839     0BA1  3EE1               	addlw	(low (_buffer| 0))& (0+255)
  1840     0BA2  0084               	movwf	4
  1841     0BA3  0800               	movf	0,w
  1842     0BA4  160A  158A  2318  120A  158A  	fcall	_LcdData
  1843     0BA9                     l3281:
  1844                           
  1845                           ;main.c: 114:                 for(int i = 0; i < 10; i++)
  1846     0BA9  3001               	movlw	1
  1847     0BAA  1683               	bsf	3,5	;RP0=1, select bank3
  1848     0BAB  1703               	bsf	3,6	;RP1=1, select bank3
  1849     0BAC  07D2               	addwf	BatStatus@i_82^(0+384),f
  1850     0BAD  1803               	skipnc
  1851     0BAE  0AD3               	incf	(BatStatus@i_82+1)^(0+384),f
  1852     0BAF  3000               	movlw	0
  1853     0BB0  07D3               	addwf	(BatStatus@i_82+1)^(0+384),f
  1854     0BB1                     l3283:
  1855     0BB1  0852               	movf	BatStatus@i_82^(0+384),w
  1856     0BB2  3EE1               	addlw	(low (_buffer| 0))& (0+255)
  1857     0BB3  0084               	movwf	4
  1858     0BB4  1383               	bcf	3,7	;select IRP bank1
  1859     0BB5  0800               	movf	0,w
  1860     0BB6  1D03               	btfss	3,2
  1861     0BB7  2BB9               	goto	u4571
  1862     0BB8  2BBA               	goto	u4570
  1863     0BB9                     u4571:
  1864     0BB9  2BA0               	goto	l3279
  1865     0BBA                     u4570:
  1866     0BBA                     l3285:
  1867                           
  1868                           ;main.c: 117:                 }
  1869     0BBA  084F               	movf	(_j+3)^(0+384),w
  1870     0BBB  1283               	bcf	3,5	;RP0=0, select bank0
  1871     0BBC  1303               	bcf	3,6	;RP1=0, select bank0
  1872     0BBD  00B8               	movwf	___flge@ff1+3
  1873     0BBE  1683               	bsf	3,5	;RP0=1, select bank3
  1874     0BBF  1703               	bsf	3,6	;RP1=1, select bank3
  1875     0BC0  084E               	movf	(_j+2)^(0+384),w
  1876     0BC1  1283               	bcf	3,5	;RP0=0, select bank0
  1877     0BC2  1303               	bcf	3,6	;RP1=0, select bank0
  1878     0BC3  00B7               	movwf	___flge@ff1+2
  1879     0BC4  1683               	bsf	3,5	;RP0=1, select bank3
  1880     0BC5  1703               	bsf	3,6	;RP1=1, select bank3
  1881     0BC6  084D               	movf	(_j+1)^(0+384),w
  1882     0BC7  1283               	bcf	3,5	;RP0=0, select bank0
  1883     0BC8  1303               	bcf	3,6	;RP1=0, select bank0
  1884     0BC9  00B6               	movwf	___flge@ff1+1
  1885     0BCA  1683               	bsf	3,5	;RP0=1, select bank3
  1886     0BCB  1703               	bsf	3,6	;RP1=1, select bank3
  1887     0BCC  084C               	movf	_j^(0+384),w
  1888     0BCD  1283               	bcf	3,5	;RP0=0, select bank0
  1889     0BCE  1303               	bcf	3,6	;RP1=0, select bank0
  1890     0BCF  00B5               	movwf	___flge@ff1
  1891     0BD0  3041               	movlw	65
  1892     0BD1  00BC               	movwf	___flge@ff2+3
  1893     0BD2  3078               	movlw	120
  1894     0BD3  00BB               	movwf	___flge@ff2+2
  1895     0BD4  3000               	movlw	0
  1896     0BD5  00BA               	movwf	___flge@ff2+1
  1897     0BD6  3000               	movlw	0
  1898     0BD7  00B9               	movwf	___flge@ff2
  1899     0BD8  120A  118A  200C  120A  158A  	fcall	___flge
  1900     0BDD  1C03               	btfss	3,0
  1901     0BDE  2BE0               	goto	u4581
  1902     0BDF  2BE1               	goto	u4580
  1903     0BE0                     u4581:
  1904     0BE0  2C39               	goto	l3303
  1905     0BE1                     u4580:
  1906     0BE1                     l3287:
  1907     0BE1  3041               	movlw	65
  1908     0BE2  1283               	bcf	3,5	;RP0=0, select bank0
  1909     0BE3  1303               	bcf	3,6	;RP1=0, select bank0
  1910     0BE4  00B8               	movwf	___flge@ff1+3
  1911     0BE5  308C               	movlw	140
  1912     0BE6  00B7               	movwf	___flge@ff1+2
  1913     0BE7  3000               	movlw	0
  1914     0BE8  00B6               	movwf	___flge@ff1+1
  1915     0BE9  3000               	movlw	0
  1916     0BEA  00B5               	movwf	___flge@ff1
  1917     0BEB  1683               	bsf	3,5	;RP0=1, select bank3
  1918     0BEC  1703               	bsf	3,6	;RP1=1, select bank3
  1919     0BED  084F               	movf	(_j+3)^(0+384),w
  1920     0BEE  1283               	bcf	3,5	;RP0=0, select bank0
  1921     0BEF  1303               	bcf	3,6	;RP1=0, select bank0
  1922     0BF0  00BC               	movwf	___flge@ff2+3
  1923     0BF1  1683               	bsf	3,5	;RP0=1, select bank3
  1924     0BF2  1703               	bsf	3,6	;RP1=1, select bank3
  1925     0BF3  084E               	movf	(_j+2)^(0+384),w
  1926     0BF4  1283               	bcf	3,5	;RP0=0, select bank0
  1927     0BF5  1303               	bcf	3,6	;RP1=0, select bank0
  1928     0BF6  00BB               	movwf	___flge@ff2+2
  1929     0BF7  1683               	bsf	3,5	;RP0=1, select bank3
  1930     0BF8  1703               	bsf	3,6	;RP1=1, select bank3
  1931     0BF9  084D               	movf	(_j+1)^(0+384),w
  1932     0BFA  1283               	bcf	3,5	;RP0=0, select bank0
  1933     0BFB  1303               	bcf	3,6	;RP1=0, select bank0
  1934     0BFC  00BA               	movwf	___flge@ff2+1
  1935     0BFD  1683               	bsf	3,5	;RP0=1, select bank3
  1936     0BFE  1703               	bsf	3,6	;RP1=1, select bank3
  1937     0BFF  084C               	movf	_j^(0+384),w
  1938     0C00  1283               	bcf	3,5	;RP0=0, select bank0
  1939     0C01  1303               	bcf	3,6	;RP1=0, select bank0
  1940     0C02  00B9               	movwf	___flge@ff2
  1941     0C03  120A  118A  200C  120A  158A  	fcall	___flge
  1942     0C08  1C03               	btfss	3,0
  1943     0C09  2C0B               	goto	u4591
  1944     0C0A  2C0C               	goto	u4590
  1945     0C0B                     u4591:
  1946     0C0B  2C39               	goto	l3303
  1947     0C0C                     u4590:
  1948     0C0C                     l3289:
  1949                           
  1950                           ;main.c: 118:             };main.c: 119:             break;
  1951     0C0C  30C0               	movlw	192
  1952     0C0D  120A  158A  2000  120A  158A  	fcall	_LcdCommand
  1953     0C12                     l3291:
  1954                           
  1955                           ;main.c: 120: 
  1956     0C12  1683               	bsf	3,5	;RP0=1, select bank3
  1957     0C13  1703               	bsf	3,6	;RP1=1, select bank3
  1958     0C14  01DC               	clrf	BatStatus@i_83^(0+384)
  1959     0C15  01DD               	clrf	(BatStatus@i_83+1)^(0+384)
  1960     0C16                     l3293:
  1961     0C16  085D               	movf	(BatStatus@i_83+1)^(0+384),w
  1962     0C17  3A80               	xorlw	128
  1963     0C18  00FF               	movwf	btemp+1
  1964     0C19  3080               	movlw	128
  1965     0C1A  027F               	subwf	btemp+1,w
  1966     0C1B  1D03               	skipz
  1967     0C1C  2C1F               	goto	u4605
  1968     0C1D  300A               	movlw	10
  1969     0C1E  025C               	subwf	BatStatus@i_83^(0+384),w
  1970     0C1F                     u4605:
  1971     0C1F  1C03               	skipc
  1972     0C20  2C22               	goto	u4601
  1973     0C21  2C23               	goto	u4600
  1974     0C22                     u4601:
  1975     0C22  2C24               	goto	l3297
  1976     0C23                     u4600:
  1977     0C23  2FFF               	goto	l111
  1978     0C24                     l3297:
  1979                           
  1980                           ;main.c: 121:         case 0xB0:;main.c: 122:             j -= 0.1;
  1981     0C24  1683               	bsf	3,5	;RP0=1, select bank3
  1982     0C25  1703               	bsf	3,6	;RP1=1, select bank3
  1983     0C26  085C               	movf	BatStatus@i_83^(0+384),w
  1984     0C27  3EAE               	addlw	(low (_BatLowArray| (0+256)))& (0+255)
  1985     0C28  0084               	movwf	4
  1986     0C29  1783               	bsf	3,7	;select IRP bank3
  1987     0C2A  0800               	movf	0,w
  1988     0C2B  160A  158A  2318  120A  158A  	fcall	_LcdData
  1989     0C30                     l3299:
  1990                           
  1991                           ;main.c: 123:             if(j < 15.5)
  1992     0C30  3001               	movlw	1
  1993     0C31  1683               	bsf	3,5	;RP0=1, select bank3
  1994     0C32  1703               	bsf	3,6	;RP1=1, select bank3
  1995     0C33  07DC               	addwf	BatStatus@i_83^(0+384),f
  1996     0C34  1803               	skipnc
  1997     0C35  0ADD               	incf	(BatStatus@i_83+1)^(0+384),f
  1998     0C36  3000               	movlw	0
  1999     0C37  07DD               	addwf	(BatStatus@i_83+1)^(0+384),f
  2000     0C38  2C16               	goto	l3293
  2001     0C39                     l3303:
  2002     0C39  1683               	bsf	3,5	;RP0=1, select bank3
  2003     0C3A  1703               	bsf	3,6	;RP1=1, select bank3
  2004     0C3B  084F               	movf	(_j+3)^(0+384),w
  2005     0C3C  1283               	bcf	3,5	;RP0=0, select bank0
  2006     0C3D  1303               	bcf	3,6	;RP1=0, select bank0
  2007     0C3E  00B8               	movwf	___flge@ff1+3
  2008     0C3F  1683               	bsf	3,5	;RP0=1, select bank3
  2009     0C40  1703               	bsf	3,6	;RP1=1, select bank3
  2010     0C41  084E               	movf	(_j+2)^(0+384),w
  2011     0C42  1283               	bcf	3,5	;RP0=0, select bank0
  2012     0C43  1303               	bcf	3,6	;RP1=0, select bank0
  2013     0C44  00B7               	movwf	___flge@ff1+2
  2014     0C45  1683               	bsf	3,5	;RP0=1, select bank3
  2015     0C46  1703               	bsf	3,6	;RP1=1, select bank3
  2016     0C47  084D               	movf	(_j+1)^(0+384),w
  2017     0C48  1283               	bcf	3,5	;RP0=0, select bank0
  2018     0C49  1303               	bcf	3,6	;RP1=0, select bank0
  2019     0C4A  00B6               	movwf	___flge@ff1+1
  2020     0C4B  1683               	bsf	3,5	;RP0=1, select bank3
  2021     0C4C  1703               	bsf	3,6	;RP1=1, select bank3
  2022     0C4D  084C               	movf	_j^(0+384),w
  2023     0C4E  1283               	bcf	3,5	;RP0=0, select bank0
  2024     0C4F  1303               	bcf	3,6	;RP1=0, select bank0
  2025     0C50  00B5               	movwf	___flge@ff1
  2026     0C51  3041               	movlw	65
  2027     0C52  00BC               	movwf	___flge@ff2+3
  2028     0C53  308C               	movlw	140
  2029     0C54  00BB               	movwf	___flge@ff2+2
  2030     0C55  30CC               	movlw	204
  2031     0C56  00BA               	movwf	___flge@ff2+1
  2032     0C57  30CD               	movlw	205
  2033     0C58  00B9               	movwf	___flge@ff2
  2034     0C59  120A  118A  200C  120A  158A  	fcall	___flge
  2035     0C5E  1C03               	btfss	3,0
  2036     0C5F  2C61               	goto	u4611
  2037     0C60  2C62               	goto	u4610
  2038     0C61                     u4611:
  2039     0C61  2CBA               	goto	l3321
  2040     0C62                     u4610:
  2041     0C62                     l3305:
  2042     0C62  3041               	movlw	65
  2043     0C63  1283               	bcf	3,5	;RP0=0, select bank0
  2044     0C64  1303               	bcf	3,6	;RP1=0, select bank0
  2045     0C65  00B8               	movwf	___flge@ff1+3
  2046     0C66  30A4               	movlw	164
  2047     0C67  00B7               	movwf	___flge@ff1+2
  2048     0C68  3000               	movlw	0
  2049     0C69  00B6               	movwf	___flge@ff1+1
  2050     0C6A  3000               	movlw	0
  2051     0C6B  00B5               	movwf	___flge@ff1
  2052     0C6C  1683               	bsf	3,5	;RP0=1, select bank3
  2053     0C6D  1703               	bsf	3,6	;RP1=1, select bank3
  2054     0C6E  084F               	movf	(_j+3)^(0+384),w
  2055     0C6F  1283               	bcf	3,5	;RP0=0, select bank0
  2056     0C70  1303               	bcf	3,6	;RP1=0, select bank0
  2057     0C71  00BC               	movwf	___flge@ff2+3
  2058     0C72  1683               	bsf	3,5	;RP0=1, select bank3
  2059     0C73  1703               	bsf	3,6	;RP1=1, select bank3
  2060     0C74  084E               	movf	(_j+2)^(0+384),w
  2061     0C75  1283               	bcf	3,5	;RP0=0, select bank0
  2062     0C76  1303               	bcf	3,6	;RP1=0, select bank0
  2063     0C77  00BB               	movwf	___flge@ff2+2
  2064     0C78  1683               	bsf	3,5	;RP0=1, select bank3
  2065     0C79  1703               	bsf	3,6	;RP1=1, select bank3
  2066     0C7A  084D               	movf	(_j+1)^(0+384),w
  2067     0C7B  1283               	bcf	3,5	;RP0=0, select bank0
  2068     0C7C  1303               	bcf	3,6	;RP1=0, select bank0
  2069     0C7D  00BA               	movwf	___flge@ff2+1
  2070     0C7E  1683               	bsf	3,5	;RP0=1, select bank3
  2071     0C7F  1703               	bsf	3,6	;RP1=1, select bank3
  2072     0C80  084C               	movf	_j^(0+384),w
  2073     0C81  1283               	bcf	3,5	;RP0=0, select bank0
  2074     0C82  1303               	bcf	3,6	;RP1=0, select bank0
  2075     0C83  00B9               	movwf	___flge@ff2
  2076     0C84  120A  118A  200C  120A  158A  	fcall	___flge
  2077     0C89  1C03               	btfss	3,0
  2078     0C8A  2C8C               	goto	u4621
  2079     0C8B  2C8D               	goto	u4620
  2080     0C8C                     u4621:
  2081     0C8C  2CBA               	goto	l3321
  2082     0C8D                     u4620:
  2083     0C8D                     l3307:
  2084                           
  2085                           ;main.c: 126:             };main.c: 127:             LcdCommand(0x89);
  2086     0C8D  30C0               	movlw	192
  2087     0C8E  120A  158A  2000  120A  158A  	fcall	_LcdCommand
  2088     0C93                     l3309:
  2089                           
  2090                           ;main.c: 128:             sprintf(buffer, "%.1f", j);
  2091     0C93  1683               	bsf	3,5	;RP0=1, select bank3
  2092     0C94  1703               	bsf	3,6	;RP1=1, select bank3
  2093     0C95  01DE               	clrf	BatStatus@i_84^(0+384)
  2094     0C96  01DF               	clrf	(BatStatus@i_84+1)^(0+384)
  2095     0C97                     l3311:
  2096     0C97  085F               	movf	(BatStatus@i_84+1)^(0+384),w
  2097     0C98  3A80               	xorlw	128
  2098     0C99  00FF               	movwf	btemp+1
  2099     0C9A  3080               	movlw	128
  2100     0C9B  027F               	subwf	btemp+1,w
  2101     0C9C  1D03               	skipz
  2102     0C9D  2CA0               	goto	u4635
  2103     0C9E  300A               	movlw	10
  2104     0C9F  025E               	subwf	BatStatus@i_84^(0+384),w
  2105     0CA0                     u4635:
  2106     0CA0  1C03               	skipc
  2107     0CA1  2CA3               	goto	u4631
  2108     0CA2  2CA4               	goto	u4630
  2109     0CA3                     u4631:
  2110     0CA3  2CA5               	goto	l3315
  2111     0CA4                     u4630:
  2112     0CA4  2FFF               	goto	l111
  2113     0CA5                     l3315:
  2114                           
  2115                           ;main.c: 129:             for(int i = 0; buffer[i] != '\0'; i++);main.c: 130:           
      +                            {
  2116     0CA5  1683               	bsf	3,5	;RP0=1, select bank3
  2117     0CA6  1703               	bsf	3,6	;RP1=1, select bank3
  2118     0CA7  085E               	movf	BatStatus@i_84^(0+384),w
  2119     0CA8  3E9F               	addlw	(low (_BatMediumArray| (0+256)))& (0+255)
  2120     0CA9  0084               	movwf	4
  2121     0CAA  1783               	bsf	3,7	;select IRP bank3
  2122     0CAB  0800               	movf	0,w
  2123     0CAC  160A  158A  2318  120A  158A  	fcall	_LcdData
  2124     0CB1                     l3317:
  2125                           
  2126                           ;main.c: 131:                 LcdData(buffer[i]);
  2127     0CB1  3001               	movlw	1
  2128     0CB2  1683               	bsf	3,5	;RP0=1, select bank3
  2129     0CB3  1703               	bsf	3,6	;RP1=1, select bank3
  2130     0CB4  07DE               	addwf	BatStatus@i_84^(0+384),f
  2131     0CB5  1803               	skipnc
  2132     0CB6  0ADF               	incf	(BatStatus@i_84+1)^(0+384),f
  2133     0CB7  3000               	movlw	0
  2134     0CB8  07DF               	addwf	(BatStatus@i_84+1)^(0+384),f
  2135     0CB9  2C97               	goto	l3311
  2136     0CBA                     l3321:
  2137     0CBA  1683               	bsf	3,5	;RP0=1, select bank3
  2138     0CBB  1703               	bsf	3,6	;RP1=1, select bank3
  2139     0CBC  084F               	movf	(_j+3)^(0+384),w
  2140     0CBD  1283               	bcf	3,5	;RP0=0, select bank0
  2141     0CBE  1303               	bcf	3,6	;RP1=0, select bank0
  2142     0CBF  00B8               	movwf	___flge@ff1+3
  2143     0CC0  1683               	bsf	3,5	;RP0=1, select bank3
  2144     0CC1  1703               	bsf	3,6	;RP1=1, select bank3
  2145     0CC2  084E               	movf	(_j+2)^(0+384),w
  2146     0CC3  1283               	bcf	3,5	;RP0=0, select bank0
  2147     0CC4  1303               	bcf	3,6	;RP1=0, select bank0
  2148     0CC5  00B7               	movwf	___flge@ff1+2
  2149     0CC6  1683               	bsf	3,5	;RP0=1, select bank3
  2150     0CC7  1703               	bsf	3,6	;RP1=1, select bank3
  2151     0CC8  084D               	movf	(_j+1)^(0+384),w
  2152     0CC9  1283               	bcf	3,5	;RP0=0, select bank0
  2153     0CCA  1303               	bcf	3,6	;RP1=0, select bank0
  2154     0CCB  00B6               	movwf	___flge@ff1+1
  2155     0CCC  1683               	bsf	3,5	;RP0=1, select bank3
  2156     0CCD  1703               	bsf	3,6	;RP1=1, select bank3
  2157     0CCE  084C               	movf	_j^(0+384),w
  2158     0CCF  1283               	bcf	3,5	;RP0=0, select bank0
  2159     0CD0  1303               	bcf	3,6	;RP1=0, select bank0
  2160     0CD1  00B5               	movwf	___flge@ff1
  2161     0CD2  3041               	movlw	65
  2162     0CD3  00BC               	movwf	___flge@ff2+3
  2163     0CD4  30A4               	movlw	164
  2164     0CD5  00BB               	movwf	___flge@ff2+2
  2165     0CD6  30CC               	movlw	204
  2166     0CD7  00BA               	movwf	___flge@ff2+1
  2167     0CD8  30CD               	movlw	205
  2168     0CD9  00B9               	movwf	___flge@ff2
  2169     0CDA  120A  118A  200C  120A  158A  	fcall	___flge
  2170     0CDF  1C03               	btfss	3,0
  2171     0CE0  2CE2               	goto	u4641
  2172     0CE1  2CE3               	goto	u4640
  2173     0CE2                     u4641:
  2174     0CE2  2FFF               	goto	l111
  2175     0CE3                     u4640:
  2176     0CE3                     l3323:
  2177     0CE3  3041               	movlw	65
  2178     0CE4  1283               	bcf	3,5	;RP0=0, select bank0
  2179     0CE5  1303               	bcf	3,6	;RP1=0, select bank0
  2180     0CE6  00B8               	movwf	___flge@ff1+3
  2181     0CE7  30B4               	movlw	180
  2182     0CE8  00B7               	movwf	___flge@ff1+2
  2183     0CE9  3000               	movlw	0
  2184     0CEA  00B6               	movwf	___flge@ff1+1
  2185     0CEB  3000               	movlw	0
  2186     0CEC  00B5               	movwf	___flge@ff1
  2187     0CED  1683               	bsf	3,5	;RP0=1, select bank3
  2188     0CEE  1703               	bsf	3,6	;RP1=1, select bank3
  2189     0CEF  084F               	movf	(_j+3)^(0+384),w
  2190     0CF0  1283               	bcf	3,5	;RP0=0, select bank0
  2191     0CF1  1303               	bcf	3,6	;RP1=0, select bank0
  2192     0CF2  00BC               	movwf	___flge@ff2+3
  2193     0CF3  1683               	bsf	3,5	;RP0=1, select bank3
  2194     0CF4  1703               	bsf	3,6	;RP1=1, select bank3
  2195     0CF5  084E               	movf	(_j+2)^(0+384),w
  2196     0CF6  1283               	bcf	3,5	;RP0=0, select bank0
  2197     0CF7  1303               	bcf	3,6	;RP1=0, select bank0
  2198     0CF8  00BB               	movwf	___flge@ff2+2
  2199     0CF9  1683               	bsf	3,5	;RP0=1, select bank3
  2200     0CFA  1703               	bsf	3,6	;RP1=1, select bank3
  2201     0CFB  084D               	movf	(_j+1)^(0+384),w
  2202     0CFC  1283               	bcf	3,5	;RP0=0, select bank0
  2203     0CFD  1303               	bcf	3,6	;RP1=0, select bank0
  2204     0CFE  00BA               	movwf	___flge@ff2+1
  2205     0CFF  1683               	bsf	3,5	;RP0=1, select bank3
  2206     0D00  1703               	bsf	3,6	;RP1=1, select bank3
  2207     0D01  084C               	movf	_j^(0+384),w
  2208     0D02  1283               	bcf	3,5	;RP0=0, select bank0
  2209     0D03  1303               	bcf	3,6	;RP1=0, select bank0
  2210     0D04  00B9               	movwf	___flge@ff2
  2211     0D05  120A  118A  200C  120A  158A  	fcall	___flge
  2212     0D0A  1C03               	btfss	3,0
  2213     0D0B  2D0D               	goto	u4651
  2214     0D0C  2D0E               	goto	u4650
  2215     0D0D                     u4651:
  2216     0D0D  2FFF               	goto	l111
  2217     0D0E                     u4650:
  2218     0D0E                     l3325:
  2219                           
  2220                           ;main.c: 134: ;main.c: 135:             if(j >= 15.5 && j <= 17.5)
  2221     0D0E  30C0               	movlw	192
  2222     0D0F  120A  158A  2000  120A  158A  	fcall	_LcdCommand
  2223     0D14                     l3327:
  2224                           
  2225                           ;main.c: 136:             {
  2226     0D14  1683               	bsf	3,5	;RP0=1, select bank3
  2227     0D15  1703               	bsf	3,6	;RP1=1, select bank3
  2228     0D16  01E0               	clrf	BatStatus@i_85^(0+384)
  2229     0D17  01E1               	clrf	(BatStatus@i_85+1)^(0+384)
  2230     0D18                     l3329:
  2231     0D18  0861               	movf	(BatStatus@i_85+1)^(0+384),w
  2232     0D19  3A80               	xorlw	128
  2233     0D1A  00FF               	movwf	btemp+1
  2234     0D1B  3080               	movlw	128
  2235     0D1C  027F               	subwf	btemp+1,w
  2236     0D1D  1D03               	skipz
  2237     0D1E  2D21               	goto	u4665
  2238     0D1F  300A               	movlw	10
  2239     0D20  0260               	subwf	BatStatus@i_85^(0+384),w
  2240     0D21                     u4665:
  2241     0D21  1C03               	skipc
  2242     0D22  2D24               	goto	u4661
  2243     0D23  2D25               	goto	u4660
  2244     0D24                     u4661:
  2245     0D24  2D26               	goto	l3333
  2246     0D25                     u4660:
  2247     0D25  2FFF               	goto	l111
  2248     0D26                     l3333:
  2249                           
  2250                           ;main.c: 137:                 LcdCommand(0xC0);;main.c: 138:                 for(int i =
      +                           0; i < 10; i++)
  2251     0D26  1683               	bsf	3,5	;RP0=1, select bank3
  2252     0D27  1703               	bsf	3,6	;RP1=1, select bank3
  2253     0D28  0860               	movf	BatStatus@i_85^(0+384),w
  2254     0D29  3E90               	addlw	(low (_BatHighArray| (0+256)))& (0+255)
  2255     0D2A  0084               	movwf	4
  2256     0D2B  1783               	bsf	3,7	;select IRP bank3
  2257     0D2C  0800               	movf	0,w
  2258     0D2D  160A  158A  2318  120A  158A  	fcall	_LcdData
  2259     0D32                     l3335:
  2260                           
  2261                           ;main.c: 139:                 {
  2262     0D32  3001               	movlw	1
  2263     0D33  1683               	bsf	3,5	;RP0=1, select bank3
  2264     0D34  1703               	bsf	3,6	;RP1=1, select bank3
  2265     0D35  07E0               	addwf	BatStatus@i_85^(0+384),f
  2266     0D36  1803               	skipnc
  2267     0D37  0AE1               	incf	(BatStatus@i_85+1)^(0+384),f
  2268     0D38  3000               	movlw	0
  2269     0D39  07E1               	addwf	(BatStatus@i_85+1)^(0+384),f
  2270     0D3A  2D18               	goto	l3329
  2271     0D3B                     l3339:
  2272                           
  2273                           ;main.c: 144:             {
  2274     0D3B  303D               	movlw	61
  2275     0D3C  1283               	bcf	3,5	;RP0=0, select bank0
  2276     0D3D  1303               	bcf	3,6	;RP1=0, select bank0
  2277     0D3E  00B8               	movwf	___flsub@a+3
  2278     0D3F  30CC               	movlw	204
  2279     0D40  00B7               	movwf	___flsub@a+2
  2280     0D41  30CC               	movlw	204
  2281     0D42  00B6               	movwf	___flsub@a+1
  2282     0D43  30CD               	movlw	205
  2283     0D44  00B5               	movwf	___flsub@a
  2284     0D45  1683               	bsf	3,5	;RP0=1, select bank3
  2285     0D46  1703               	bsf	3,6	;RP1=1, select bank3
  2286     0D47  084F               	movf	(_j+3)^(0+384),w
  2287     0D48  1283               	bcf	3,5	;RP0=0, select bank0
  2288     0D49  1303               	bcf	3,6	;RP1=0, select bank0
  2289     0D4A  00BC               	movwf	___flsub@b+3
  2290     0D4B  1683               	bsf	3,5	;RP0=1, select bank3
  2291     0D4C  1703               	bsf	3,6	;RP1=1, select bank3
  2292     0D4D  084E               	movf	(_j+2)^(0+384),w
  2293     0D4E  1283               	bcf	3,5	;RP0=0, select bank0
  2294     0D4F  1303               	bcf	3,6	;RP1=0, select bank0
  2295     0D50  00BB               	movwf	___flsub@b+2
  2296     0D51  1683               	bsf	3,5	;RP0=1, select bank3
  2297     0D52  1703               	bsf	3,6	;RP1=1, select bank3
  2298     0D53  084D               	movf	(_j+1)^(0+384),w
  2299     0D54  1283               	bcf	3,5	;RP0=0, select bank0
  2300     0D55  1303               	bcf	3,6	;RP1=0, select bank0
  2301     0D56  00BA               	movwf	___flsub@b+1
  2302     0D57  1683               	bsf	3,5	;RP0=1, select bank3
  2303     0D58  1703               	bsf	3,6	;RP1=1, select bank3
  2304     0D59  084C               	movf	_j^(0+384),w
  2305     0D5A  1283               	bcf	3,5	;RP0=0, select bank0
  2306     0D5B  1303               	bcf	3,6	;RP1=0, select bank0
  2307     0D5C  00B9               	movwf	___flsub@b
  2308     0D5D  160A  158A  2387  120A  158A  	fcall	___flsub
  2309     0D62  1283               	bcf	3,5	;RP0=0, select bank0
  2310     0D63  1303               	bcf	3,6	;RP1=0, select bank0
  2311     0D64  0838               	movf	?___flsub+3,w
  2312     0D65  1683               	bsf	3,5	;RP0=1, select bank3
  2313     0D66  1703               	bsf	3,6	;RP1=1, select bank3
  2314     0D67  00CF               	movwf	(_j+3)^(0+384)
  2315     0D68  1283               	bcf	3,5	;RP0=0, select bank0
  2316     0D69  1303               	bcf	3,6	;RP1=0, select bank0
  2317     0D6A  0837               	movf	?___flsub+2,w
  2318     0D6B  1683               	bsf	3,5	;RP0=1, select bank3
  2319     0D6C  1703               	bsf	3,6	;RP1=1, select bank3
  2320     0D6D  00CE               	movwf	(_j+2)^(0+384)
  2321     0D6E  1283               	bcf	3,5	;RP0=0, select bank0
  2322     0D6F  1303               	bcf	3,6	;RP1=0, select bank0
  2323     0D70  0836               	movf	?___flsub+1,w
  2324     0D71  1683               	bsf	3,5	;RP0=1, select bank3
  2325     0D72  1703               	bsf	3,6	;RP1=1, select bank3
  2326     0D73  00CD               	movwf	(_j+1)^(0+384)
  2327     0D74  1283               	bcf	3,5	;RP0=0, select bank0
  2328     0D75  1303               	bcf	3,6	;RP1=0, select bank0
  2329     0D76  0835               	movf	?___flsub,w
  2330     0D77  1683               	bsf	3,5	;RP0=1, select bank3
  2331     0D78  1703               	bsf	3,6	;RP1=1, select bank3
  2332     0D79  00CC               	movwf	_j^(0+384)
  2333     0D7A                     l3341:
  2334                           
  2335                           ;main.c: 145:                 LcdCommand(0xC0);
  2336     0D7A  084F               	movf	(_j+3)^(0+384),w
  2337     0D7B  1283               	bcf	3,5	;RP0=0, select bank0
  2338     0D7C  1303               	bcf	3,6	;RP1=0, select bank0
  2339     0D7D  00B8               	movwf	___flge@ff1+3
  2340     0D7E  1683               	bsf	3,5	;RP0=1, select bank3
  2341     0D7F  1703               	bsf	3,6	;RP1=1, select bank3
  2342     0D80  084E               	movf	(_j+2)^(0+384),w
  2343     0D81  1283               	bcf	3,5	;RP0=0, select bank0
  2344     0D82  1303               	bcf	3,6	;RP1=0, select bank0
  2345     0D83  00B7               	movwf	___flge@ff1+2
  2346     0D84  1683               	bsf	3,5	;RP0=1, select bank3
  2347     0D85  1703               	bsf	3,6	;RP1=1, select bank3
  2348     0D86  084D               	movf	(_j+1)^(0+384),w
  2349     0D87  1283               	bcf	3,5	;RP0=0, select bank0
  2350     0D88  1303               	bcf	3,6	;RP1=0, select bank0
  2351     0D89  00B6               	movwf	___flge@ff1+1
  2352     0D8A  1683               	bsf	3,5	;RP0=1, select bank3
  2353     0D8B  1703               	bsf	3,6	;RP1=1, select bank3
  2354     0D8C  084C               	movf	_j^(0+384),w
  2355     0D8D  1283               	bcf	3,5	;RP0=0, select bank0
  2356     0D8E  1303               	bcf	3,6	;RP1=0, select bank0
  2357     0D8F  00B5               	movwf	___flge@ff1
  2358     0D90  3041               	movlw	65
  2359     0D91  00BC               	movwf	___flge@ff2+3
  2360     0D92  3078               	movlw	120
  2361     0D93  00BB               	movwf	___flge@ff2+2
  2362     0D94  3000               	movlw	0
  2363     0D95  00BA               	movwf	___flge@ff2+1
  2364     0D96  3000               	movlw	0
  2365     0D97  00B9               	movwf	___flge@ff2
  2366     0D98  120A  118A  200C  120A  158A  	fcall	___flge
  2367     0D9D  1803               	btfsc	3,0
  2368     0D9E  2DA0               	goto	u4671
  2369     0D9F  2DA1               	goto	u4670
  2370     0DA0                     u4671:
  2371     0DA0  2DAB               	goto	l3345
  2372     0DA1                     u4670:
  2373     0DA1                     l3343:
  2374                           
  2375                           ;main.c: 146:                 for(int i = 0; i < 10; i++);main.c: 147:                 {
  2376     0DA1  3041               	movlw	65
  2377     0DA2  1683               	bsf	3,5	;RP0=1, select bank3
  2378     0DA3  1703               	bsf	3,6	;RP1=1, select bank3
  2379     0DA4  00CF               	movwf	(_j+3)^(0+384)
  2380     0DA5  3078               	movlw	120
  2381     0DA6  00CE               	movwf	(_j+2)^(0+384)
  2382     0DA7  3000               	movlw	0
  2383     0DA8  00CD               	movwf	(_j+1)^(0+384)
  2384     0DA9  3000               	movlw	0
  2385     0DAA  00CC               	movwf	_j^(0+384)
  2386     0DAB                     l3345:
  2387                           
  2388                           ;main.c: 149:                 }
  2389     0DAB  3089               	movlw	137
  2390     0DAC  120A  158A  2000  120A  158A  	fcall	_LcdCommand
  2391     0DB1                     l3347:
  2392                           
  2393                           ;main.c: 150:             }
  2394     0DB1  30E1               	movlw	(low (_buffer| 0))& (0+255)
  2395     0DB2  1683               	bsf	3,5	;RP0=1, select bank1
  2396     0DB3  1303               	bcf	3,6	;RP1=0, select bank1
  2397     0DB4  00D4               	movwf	sprintf@s^(0+128)
  2398     0DB5  3001               	movlw	(low ((STR_1-__stringbase)| (0+32768)))& (0+255)
  2399     0DB6  00D5               	movwf	sprintf@fmt^(0+128)
  2400     0DB7  1683               	bsf	3,5	;RP0=1, select bank3
  2401     0DB8  1703               	bsf	3,6	;RP1=1, select bank3
  2402     0DB9  084F               	movf	(_j+3)^(0+384),w
  2403     0DBA  1683               	bsf	3,5	;RP0=1, select bank1
  2404     0DBB  1303               	bcf	3,6	;RP1=0, select bank1
  2405     0DBC  00D9               	movwf	((?_sprintf+3)^(0+128)+2)
  2406     0DBD  1683               	bsf	3,5	;RP0=1, select bank3
  2407     0DBE  1703               	bsf	3,6	;RP1=1, select bank3
  2408     0DBF  084E               	movf	(_j+2)^(0+384),w
  2409     0DC0  1683               	bsf	3,5	;RP0=1, select bank1
  2410     0DC1  1303               	bcf	3,6	;RP1=0, select bank1
  2411     0DC2  00D8               	movwf	((?_sprintf+2)^(0+128)+2)
  2412     0DC3  1683               	bsf	3,5	;RP0=1, select bank3
  2413     0DC4  1703               	bsf	3,6	;RP1=1, select bank3
  2414     0DC5  084D               	movf	(_j+1)^(0+384),w
  2415     0DC6  1683               	bsf	3,5	;RP0=1, select bank1
  2416     0DC7  1303               	bcf	3,6	;RP1=0, select bank1
  2417     0DC8  00D7               	movwf	((?_sprintf+1)^(0+128)+2)
  2418     0DC9  1683               	bsf	3,5	;RP0=1, select bank3
  2419     0DCA  1703               	bsf	3,6	;RP1=1, select bank3
  2420     0DCB  084C               	movf	_j^(0+384),w
  2421     0DCC  1683               	bsf	3,5	;RP0=1, select bank1
  2422     0DCD  1303               	bcf	3,6	;RP1=0, select bank1
  2423     0DCE  00D6               	movwf	(?_sprintf^(0+128)+2)
  2424     0DCF  160A  118A  2004  120A  158A  	fcall	_sprintf
  2425     0DD4                     l3349:
  2426                           
  2427                           ;main.c: 151:             else if(j >= 20.6 && j <= 22.5)
  2428     0DD4  1683               	bsf	3,5	;RP0=1, select bank3
  2429     0DD5  1703               	bsf	3,6	;RP1=1, select bank3
  2430     0DD6  01D4               	clrf	BatStatus@i_87^(0+384)
  2431     0DD7  01D5               	clrf	(BatStatus@i_87+1)^(0+384)
  2432     0DD8  2DEA               	goto	l3355
  2433     0DD9                     l3351:
  2434                           
  2435                           ;main.c: 152:             {;main.c: 153:                 LcdCommand(0xC0);
  2436     0DD9  0854               	movf	BatStatus@i_87^(0+384),w
  2437     0DDA  3EE1               	addlw	(low (_buffer| 0))& (0+255)
  2438     0DDB  0084               	movwf	4
  2439     0DDC  0800               	movf	0,w
  2440     0DDD  160A  158A  2318  120A  158A  	fcall	_LcdData
  2441     0DE2                     l3353:
  2442                           
  2443                           ;main.c: 154:                 for(int i = 0; i < 10; i++)
  2444     0DE2  3001               	movlw	1
  2445     0DE3  1683               	bsf	3,5	;RP0=1, select bank3
  2446     0DE4  1703               	bsf	3,6	;RP1=1, select bank3
  2447     0DE5  07D4               	addwf	BatStatus@i_87^(0+384),f
  2448     0DE6  1803               	skipnc
  2449     0DE7  0AD5               	incf	(BatStatus@i_87+1)^(0+384),f
  2450     0DE8  3000               	movlw	0
  2451     0DE9  07D5               	addwf	(BatStatus@i_87+1)^(0+384),f
  2452     0DEA                     l3355:
  2453     0DEA  0854               	movf	BatStatus@i_87^(0+384),w
  2454     0DEB  3EE1               	addlw	(low (_buffer| 0))& (0+255)
  2455     0DEC  0084               	movwf	4
  2456     0DED  1383               	bcf	3,7	;select IRP bank1
  2457     0DEE  0800               	movf	0,w
  2458     0DEF  1D03               	btfss	3,2
  2459     0DF0  2DF2               	goto	u4681
  2460     0DF1  2DF3               	goto	u4680
  2461     0DF2                     u4681:
  2462     0DF2  2DD9               	goto	l3351
  2463     0DF3                     u4680:
  2464     0DF3                     l3357:
  2465                           
  2466                           ;main.c: 157:                 }
  2467     0DF3  084F               	movf	(_j+3)^(0+384),w
  2468     0DF4  1283               	bcf	3,5	;RP0=0, select bank0
  2469     0DF5  1303               	bcf	3,6	;RP1=0, select bank0
  2470     0DF6  00B8               	movwf	___flge@ff1+3
  2471     0DF7  1683               	bsf	3,5	;RP0=1, select bank3
  2472     0DF8  1703               	bsf	3,6	;RP1=1, select bank3
  2473     0DF9  084E               	movf	(_j+2)^(0+384),w
  2474     0DFA  1283               	bcf	3,5	;RP0=0, select bank0
  2475     0DFB  1303               	bcf	3,6	;RP1=0, select bank0
  2476     0DFC  00B7               	movwf	___flge@ff1+2
  2477     0DFD  1683               	bsf	3,5	;RP0=1, select bank3
  2478     0DFE  1703               	bsf	3,6	;RP1=1, select bank3
  2479     0DFF  084D               	movf	(_j+1)^(0+384),w
  2480     0E00  1283               	bcf	3,5	;RP0=0, select bank0
  2481     0E01  1303               	bcf	3,6	;RP1=0, select bank0
  2482     0E02  00B6               	movwf	___flge@ff1+1
  2483     0E03  1683               	bsf	3,5	;RP0=1, select bank3
  2484     0E04  1703               	bsf	3,6	;RP1=1, select bank3
  2485     0E05  084C               	movf	_j^(0+384),w
  2486     0E06  1283               	bcf	3,5	;RP0=0, select bank0
  2487     0E07  1303               	bcf	3,6	;RP1=0, select bank0
  2488     0E08  00B5               	movwf	___flge@ff1
  2489     0E09  3041               	movlw	65
  2490     0E0A  00BC               	movwf	___flge@ff2+3
  2491     0E0B  3078               	movlw	120
  2492     0E0C  00BB               	movwf	___flge@ff2+2
  2493     0E0D  3000               	movlw	0
  2494     0E0E  00BA               	movwf	___flge@ff2+1
  2495     0E0F  3000               	movlw	0
  2496     0E10  00B9               	movwf	___flge@ff2
  2497     0E11  120A  118A  200C  120A  158A  	fcall	___flge
  2498     0E16  1C03               	btfss	3,0
  2499     0E17  2E19               	goto	u4691
  2500     0E18  2E1A               	goto	u4690
  2501     0E19                     u4691:
  2502     0E19  2E72               	goto	l3375
  2503     0E1A                     u4690:
  2504     0E1A                     l3359:
  2505     0E1A  3041               	movlw	65
  2506     0E1B  1283               	bcf	3,5	;RP0=0, select bank0
  2507     0E1C  1303               	bcf	3,6	;RP1=0, select bank0
  2508     0E1D  00B8               	movwf	___flge@ff1+3
  2509     0E1E  308C               	movlw	140
  2510     0E1F  00B7               	movwf	___flge@ff1+2
  2511     0E20  3000               	movlw	0
  2512     0E21  00B6               	movwf	___flge@ff1+1
  2513     0E22  3000               	movlw	0
  2514     0E23  00B5               	movwf	___flge@ff1
  2515     0E24  1683               	bsf	3,5	;RP0=1, select bank3
  2516     0E25  1703               	bsf	3,6	;RP1=1, select bank3
  2517     0E26  084F               	movf	(_j+3)^(0+384),w
  2518     0E27  1283               	bcf	3,5	;RP0=0, select bank0
  2519     0E28  1303               	bcf	3,6	;RP1=0, select bank0
  2520     0E29  00BC               	movwf	___flge@ff2+3
  2521     0E2A  1683               	bsf	3,5	;RP0=1, select bank3
  2522     0E2B  1703               	bsf	3,6	;RP1=1, select bank3
  2523     0E2C  084E               	movf	(_j+2)^(0+384),w
  2524     0E2D  1283               	bcf	3,5	;RP0=0, select bank0
  2525     0E2E  1303               	bcf	3,6	;RP1=0, select bank0
  2526     0E2F  00BB               	movwf	___flge@ff2+2
  2527     0E30  1683               	bsf	3,5	;RP0=1, select bank3
  2528     0E31  1703               	bsf	3,6	;RP1=1, select bank3
  2529     0E32  084D               	movf	(_j+1)^(0+384),w
  2530     0E33  1283               	bcf	3,5	;RP0=0, select bank0
  2531     0E34  1303               	bcf	3,6	;RP1=0, select bank0
  2532     0E35  00BA               	movwf	___flge@ff2+1
  2533     0E36  1683               	bsf	3,5	;RP0=1, select bank3
  2534     0E37  1703               	bsf	3,6	;RP1=1, select bank3
  2535     0E38  084C               	movf	_j^(0+384),w
  2536     0E39  1283               	bcf	3,5	;RP0=0, select bank0
  2537     0E3A  1303               	bcf	3,6	;RP1=0, select bank0
  2538     0E3B  00B9               	movwf	___flge@ff2
  2539     0E3C  120A  118A  200C  120A  158A  	fcall	___flge
  2540     0E41  1C03               	btfss	3,0
  2541     0E42  2E44               	goto	u4701
  2542     0E43  2E45               	goto	u4700
  2543     0E44                     u4701:
  2544     0E44  2E72               	goto	l3375
  2545     0E45                     u4700:
  2546     0E45                     l3361:
  2547                           
  2548                           ;main.c: 158:             };main.c: 159:             break;
  2549     0E45  30C0               	movlw	192
  2550     0E46  120A  158A  2000  120A  158A  	fcall	_LcdCommand
  2551     0E4B                     l3363:
  2552                           
  2553                           ;main.c: 160: 
  2554     0E4B  1683               	bsf	3,5	;RP0=1, select bank3
  2555     0E4C  1703               	bsf	3,6	;RP1=1, select bank3
  2556     0E4D  01E2               	clrf	BatStatus@i_88^(0+384)
  2557     0E4E  01E3               	clrf	(BatStatus@i_88+1)^(0+384)
  2558     0E4F                     l3365:
  2559     0E4F  0863               	movf	(BatStatus@i_88+1)^(0+384),w
  2560     0E50  3A80               	xorlw	128
  2561     0E51  00FF               	movwf	btemp+1
  2562     0E52  3080               	movlw	128
  2563     0E53  027F               	subwf	btemp+1,w
  2564     0E54  1D03               	skipz
  2565     0E55  2E58               	goto	u4715
  2566     0E56  300A               	movlw	10
  2567     0E57  0262               	subwf	BatStatus@i_88^(0+384),w
  2568     0E58                     u4715:
  2569     0E58  1C03               	skipc
  2570     0E59  2E5B               	goto	u4711
  2571     0E5A  2E5C               	goto	u4710
  2572     0E5B                     u4711:
  2573     0E5B  2E5D               	goto	l3369
  2574     0E5C                     u4710:
  2575     0E5C  2FFF               	goto	l111
  2576     0E5D                     l3369:
  2577                           
  2578                           ;main.c: 161:         case 0x70:;main.c: 162:             j = 17.6;
  2579     0E5D  1683               	bsf	3,5	;RP0=1, select bank3
  2580     0E5E  1703               	bsf	3,6	;RP1=1, select bank3
  2581     0E5F  0862               	movf	BatStatus@i_88^(0+384),w
  2582     0E60  3EAE               	addlw	(low (_BatLowArray| (0+256)))& (0+255)
  2583     0E61  0084               	movwf	4
  2584     0E62  1783               	bsf	3,7	;select IRP bank3
  2585     0E63  0800               	movf	0,w
  2586     0E64  160A  158A  2318  120A  158A  	fcall	_LcdData
  2587     0E69                     l3371:
  2588                           
  2589                           ;main.c: 163:             LcdCommand(0x89);
  2590     0E69  3001               	movlw	1
  2591     0E6A  1683               	bsf	3,5	;RP0=1, select bank3
  2592     0E6B  1703               	bsf	3,6	;RP1=1, select bank3
  2593     0E6C  07E2               	addwf	BatStatus@i_88^(0+384),f
  2594     0E6D  1803               	skipnc
  2595     0E6E  0AE3               	incf	(BatStatus@i_88+1)^(0+384),f
  2596     0E6F  3000               	movlw	0
  2597     0E70  07E3               	addwf	(BatStatus@i_88+1)^(0+384),f
  2598     0E71  2E4F               	goto	l3365
  2599     0E72                     l3375:
  2600     0E72  1683               	bsf	3,5	;RP0=1, select bank3
  2601     0E73  1703               	bsf	3,6	;RP1=1, select bank3
  2602     0E74  084F               	movf	(_j+3)^(0+384),w
  2603     0E75  1283               	bcf	3,5	;RP0=0, select bank0
  2604     0E76  1303               	bcf	3,6	;RP1=0, select bank0
  2605     0E77  00B8               	movwf	___flge@ff1+3
  2606     0E78  1683               	bsf	3,5	;RP0=1, select bank3
  2607     0E79  1703               	bsf	3,6	;RP1=1, select bank3
  2608     0E7A  084E               	movf	(_j+2)^(0+384),w
  2609     0E7B  1283               	bcf	3,5	;RP0=0, select bank0
  2610     0E7C  1303               	bcf	3,6	;RP1=0, select bank0
  2611     0E7D  00B7               	movwf	___flge@ff1+2
  2612     0E7E  1683               	bsf	3,5	;RP0=1, select bank3
  2613     0E7F  1703               	bsf	3,6	;RP1=1, select bank3
  2614     0E80  084D               	movf	(_j+1)^(0+384),w
  2615     0E81  1283               	bcf	3,5	;RP0=0, select bank0
  2616     0E82  1303               	bcf	3,6	;RP1=0, select bank0
  2617     0E83  00B6               	movwf	___flge@ff1+1
  2618     0E84  1683               	bsf	3,5	;RP0=1, select bank3
  2619     0E85  1703               	bsf	3,6	;RP1=1, select bank3
  2620     0E86  084C               	movf	_j^(0+384),w
  2621     0E87  1283               	bcf	3,5	;RP0=0, select bank0
  2622     0E88  1303               	bcf	3,6	;RP1=0, select bank0
  2623     0E89  00B5               	movwf	___flge@ff1
  2624     0E8A  3041               	movlw	65
  2625     0E8B  00BC               	movwf	___flge@ff2+3
  2626     0E8C  308C               	movlw	140
  2627     0E8D  00BB               	movwf	___flge@ff2+2
  2628     0E8E  30CC               	movlw	204
  2629     0E8F  00BA               	movwf	___flge@ff2+1
  2630     0E90  30CD               	movlw	205
  2631     0E91  00B9               	movwf	___flge@ff2
  2632     0E92  120A  118A  200C  120A  158A  	fcall	___flge
  2633     0E97  1C03               	btfss	3,0
  2634     0E98  2E9A               	goto	u4721
  2635     0E99  2E9B               	goto	u4720
  2636     0E9A                     u4721:
  2637     0E9A  2EF3               	goto	l3393
  2638     0E9B                     u4720:
  2639     0E9B                     l3377:
  2640     0E9B  3041               	movlw	65
  2641     0E9C  1283               	bcf	3,5	;RP0=0, select bank0
  2642     0E9D  1303               	bcf	3,6	;RP1=0, select bank0
  2643     0E9E  00B8               	movwf	___flge@ff1+3
  2644     0E9F  30A4               	movlw	164
  2645     0EA0  00B7               	movwf	___flge@ff1+2
  2646     0EA1  3000               	movlw	0
  2647     0EA2  00B6               	movwf	___flge@ff1+1
  2648     0EA3  3000               	movlw	0
  2649     0EA4  00B5               	movwf	___flge@ff1
  2650     0EA5  1683               	bsf	3,5	;RP0=1, select bank3
  2651     0EA6  1703               	bsf	3,6	;RP1=1, select bank3
  2652     0EA7  084F               	movf	(_j+3)^(0+384),w
  2653     0EA8  1283               	bcf	3,5	;RP0=0, select bank0
  2654     0EA9  1303               	bcf	3,6	;RP1=0, select bank0
  2655     0EAA  00BC               	movwf	___flge@ff2+3
  2656     0EAB  1683               	bsf	3,5	;RP0=1, select bank3
  2657     0EAC  1703               	bsf	3,6	;RP1=1, select bank3
  2658     0EAD  084E               	movf	(_j+2)^(0+384),w
  2659     0EAE  1283               	bcf	3,5	;RP0=0, select bank0
  2660     0EAF  1303               	bcf	3,6	;RP1=0, select bank0
  2661     0EB0  00BB               	movwf	___flge@ff2+2
  2662     0EB1  1683               	bsf	3,5	;RP0=1, select bank3
  2663     0EB2  1703               	bsf	3,6	;RP1=1, select bank3
  2664     0EB3  084D               	movf	(_j+1)^(0+384),w
  2665     0EB4  1283               	bcf	3,5	;RP0=0, select bank0
  2666     0EB5  1303               	bcf	3,6	;RP1=0, select bank0
  2667     0EB6  00BA               	movwf	___flge@ff2+1
  2668     0EB7  1683               	bsf	3,5	;RP0=1, select bank3
  2669     0EB8  1703               	bsf	3,6	;RP1=1, select bank3
  2670     0EB9  084C               	movf	_j^(0+384),w
  2671     0EBA  1283               	bcf	3,5	;RP0=0, select bank0
  2672     0EBB  1303               	bcf	3,6	;RP1=0, select bank0
  2673     0EBC  00B9               	movwf	___flge@ff2
  2674     0EBD  120A  118A  200C  120A  158A  	fcall	___flge
  2675     0EC2  1C03               	btfss	3,0
  2676     0EC3  2EC5               	goto	u4731
  2677     0EC4  2EC6               	goto	u4730
  2678     0EC5                     u4731:
  2679     0EC5  2EF3               	goto	l3393
  2680     0EC6                     u4730:
  2681     0EC6                     l3379:
  2682                           
  2683                           ;main.c: 166:             {;main.c: 167:                 LcdData(buffer[i]);
  2684     0EC6  30C0               	movlw	192
  2685     0EC7  120A  158A  2000  120A  158A  	fcall	_LcdCommand
  2686     0ECC                     l3381:
  2687                           
  2688                           ;main.c: 168:             }
  2689     0ECC  1683               	bsf	3,5	;RP0=1, select bank3
  2690     0ECD  1703               	bsf	3,6	;RP1=1, select bank3
  2691     0ECE  01E4               	clrf	BatStatus@i_89^(0+384)
  2692     0ECF  01E5               	clrf	(BatStatus@i_89+1)^(0+384)
  2693     0ED0                     l3383:
  2694     0ED0  0865               	movf	(BatStatus@i_89+1)^(0+384),w
  2695     0ED1  3A80               	xorlw	128
  2696     0ED2  00FF               	movwf	btemp+1
  2697     0ED3  3080               	movlw	128
  2698     0ED4  027F               	subwf	btemp+1,w
  2699     0ED5  1D03               	skipz
  2700     0ED6  2ED9               	goto	u4745
  2701     0ED7  300A               	movlw	10
  2702     0ED8  0264               	subwf	BatStatus@i_89^(0+384),w
  2703     0ED9                     u4745:
  2704     0ED9  1C03               	skipc
  2705     0EDA  2EDC               	goto	u4741
  2706     0EDB  2EDD               	goto	u4740
  2707     0EDC                     u4741:
  2708     0EDC  2EDE               	goto	l3387
  2709     0EDD                     u4740:
  2710     0EDD  2FFF               	goto	l111
  2711     0EDE                     l3387:
  2712                           
  2713                           ;main.c: 169:             LcdCommand(0xC0);;main.c: 170:             for(int i = 0; i < 
      +                          10; i++)
  2714     0EDE  1683               	bsf	3,5	;RP0=1, select bank3
  2715     0EDF  1703               	bsf	3,6	;RP1=1, select bank3
  2716     0EE0  0864               	movf	BatStatus@i_89^(0+384),w
  2717     0EE1  3E9F               	addlw	(low (_BatMediumArray| (0+256)))& (0+255)
  2718     0EE2  0084               	movwf	4
  2719     0EE3  1783               	bsf	3,7	;select IRP bank3
  2720     0EE4  0800               	movf	0,w
  2721     0EE5  160A  158A  2318  120A  158A  	fcall	_LcdData
  2722     0EEA                     l3389:
  2723                           
  2724                           ;main.c: 171:             {
  2725     0EEA  3001               	movlw	1
  2726     0EEB  1683               	bsf	3,5	;RP0=1, select bank3
  2727     0EEC  1703               	bsf	3,6	;RP1=1, select bank3
  2728     0EED  07E4               	addwf	BatStatus@i_89^(0+384),f
  2729     0EEE  1803               	skipnc
  2730     0EEF  0AE5               	incf	(BatStatus@i_89+1)^(0+384),f
  2731     0EF0  3000               	movlw	0
  2732     0EF1  07E5               	addwf	(BatStatus@i_89+1)^(0+384),f
  2733     0EF2  2ED0               	goto	l3383
  2734     0EF3                     l3393:
  2735     0EF3  1683               	bsf	3,5	;RP0=1, select bank3
  2736     0EF4  1703               	bsf	3,6	;RP1=1, select bank3
  2737     0EF5  084F               	movf	(_j+3)^(0+384),w
  2738     0EF6  1283               	bcf	3,5	;RP0=0, select bank0
  2739     0EF7  1303               	bcf	3,6	;RP1=0, select bank0
  2740     0EF8  00B8               	movwf	___flge@ff1+3
  2741     0EF9  1683               	bsf	3,5	;RP0=1, select bank3
  2742     0EFA  1703               	bsf	3,6	;RP1=1, select bank3
  2743     0EFB  084E               	movf	(_j+2)^(0+384),w
  2744     0EFC  1283               	bcf	3,5	;RP0=0, select bank0
  2745     0EFD  1303               	bcf	3,6	;RP1=0, select bank0
  2746     0EFE  00B7               	movwf	___flge@ff1+2
  2747     0EFF  1683               	bsf	3,5	;RP0=1, select bank3
  2748     0F00  1703               	bsf	3,6	;RP1=1, select bank3
  2749     0F01  084D               	movf	(_j+1)^(0+384),w
  2750     0F02  1283               	bcf	3,5	;RP0=0, select bank0
  2751     0F03  1303               	bcf	3,6	;RP1=0, select bank0
  2752     0F04  00B6               	movwf	___flge@ff1+1
  2753     0F05  1683               	bsf	3,5	;RP0=1, select bank3
  2754     0F06  1703               	bsf	3,6	;RP1=1, select bank3
  2755     0F07  084C               	movf	_j^(0+384),w
  2756     0F08  1283               	bcf	3,5	;RP0=0, select bank0
  2757     0F09  1303               	bcf	3,6	;RP1=0, select bank0
  2758     0F0A  00B5               	movwf	___flge@ff1
  2759     0F0B  3041               	movlw	65
  2760     0F0C  00BC               	movwf	___flge@ff2+3
  2761     0F0D  30A4               	movlw	164
  2762     0F0E  00BB               	movwf	___flge@ff2+2
  2763     0F0F  30CC               	movlw	204
  2764     0F10  00BA               	movwf	___flge@ff2+1
  2765     0F11  30CD               	movlw	205
  2766     0F12  00B9               	movwf	___flge@ff2
  2767     0F13  120A  118A  200C  120A  158A  	fcall	___flge
  2768     0F18  1C03               	btfss	3,0
  2769     0F19  2F1B               	goto	u4751
  2770     0F1A  2F1C               	goto	u4750
  2771     0F1B                     u4751:
  2772     0F1B  2FFF               	goto	l111
  2773     0F1C                     u4750:
  2774     0F1C                     l3395:
  2775     0F1C  3041               	movlw	65
  2776     0F1D  1283               	bcf	3,5	;RP0=0, select bank0
  2777     0F1E  1303               	bcf	3,6	;RP1=0, select bank0
  2778     0F1F  00B8               	movwf	___flge@ff1+3
  2779     0F20  30B4               	movlw	180
  2780     0F21  00B7               	movwf	___flge@ff1+2
  2781     0F22  3000               	movlw	0
  2782     0F23  00B6               	movwf	___flge@ff1+1
  2783     0F24  3000               	movlw	0
  2784     0F25  00B5               	movwf	___flge@ff1
  2785     0F26  1683               	bsf	3,5	;RP0=1, select bank3
  2786     0F27  1703               	bsf	3,6	;RP1=1, select bank3
  2787     0F28  084F               	movf	(_j+3)^(0+384),w
  2788     0F29  1283               	bcf	3,5	;RP0=0, select bank0
  2789     0F2A  1303               	bcf	3,6	;RP1=0, select bank0
  2790     0F2B  00BC               	movwf	___flge@ff2+3
  2791     0F2C  1683               	bsf	3,5	;RP0=1, select bank3
  2792     0F2D  1703               	bsf	3,6	;RP1=1, select bank3
  2793     0F2E  084E               	movf	(_j+2)^(0+384),w
  2794     0F2F  1283               	bcf	3,5	;RP0=0, select bank0
  2795     0F30  1303               	bcf	3,6	;RP1=0, select bank0
  2796     0F31  00BB               	movwf	___flge@ff2+2
  2797     0F32  1683               	bsf	3,5	;RP0=1, select bank3
  2798     0F33  1703               	bsf	3,6	;RP1=1, select bank3
  2799     0F34  084D               	movf	(_j+1)^(0+384),w
  2800     0F35  1283               	bcf	3,5	;RP0=0, select bank0
  2801     0F36  1303               	bcf	3,6	;RP1=0, select bank0
  2802     0F37  00BA               	movwf	___flge@ff2+1
  2803     0F38  1683               	bsf	3,5	;RP0=1, select bank3
  2804     0F39  1703               	bsf	3,6	;RP1=1, select bank3
  2805     0F3A  084C               	movf	_j^(0+384),w
  2806     0F3B  1283               	bcf	3,5	;RP0=0, select bank0
  2807     0F3C  1303               	bcf	3,6	;RP1=0, select bank0
  2808     0F3D  00B9               	movwf	___flge@ff2
  2809     0F3E  120A  118A  200C  120A  158A  	fcall	___flge
  2810     0F43  1C03               	btfss	3,0
  2811     0F44  2F46               	goto	u4761
  2812     0F45  2F47               	goto	u4760
  2813     0F46                     u4761:
  2814     0F46  2FFF               	goto	l111
  2815     0F47                     u4760:
  2816     0F47                     l3397:
  2817                           
  2818                           ;main.c: 174:             break;;main.c: 175: 
  2819     0F47  30C0               	movlw	192
  2820     0F48  120A  158A  2000  120A  158A  	fcall	_LcdCommand
  2821     0F4D                     l3399:
  2822                           
  2823                           ;main.c: 176:         default:
  2824     0F4D  1683               	bsf	3,5	;RP0=1, select bank3
  2825     0F4E  1703               	bsf	3,6	;RP1=1, select bank3
  2826     0F4F  01E6               	clrf	BatStatus@i_90^(0+384)
  2827     0F50  01E7               	clrf	(BatStatus@i_90+1)^(0+384)
  2828     0F51                     l3401:
  2829     0F51  0867               	movf	(BatStatus@i_90+1)^(0+384),w
  2830     0F52  3A80               	xorlw	128
  2831     0F53  00FF               	movwf	btemp+1
  2832     0F54  3080               	movlw	128
  2833     0F55  027F               	subwf	btemp+1,w
  2834     0F56  1D03               	skipz
  2835     0F57  2F5A               	goto	u4775
  2836     0F58  300A               	movlw	10
  2837     0F59  0266               	subwf	BatStatus@i_90^(0+384),w
  2838     0F5A                     u4775:
  2839     0F5A  1C03               	skipc
  2840     0F5B  2F5D               	goto	u4771
  2841     0F5C  2F5E               	goto	u4770
  2842     0F5D                     u4771:
  2843     0F5D  2F5F               	goto	l3405
  2844     0F5E                     u4770:
  2845     0F5E  2FFF               	goto	l111
  2846     0F5F                     l3405:
  2847                           
  2848                           ;main.c: 177: ;main.c: 178:             break;
  2849     0F5F  1683               	bsf	3,5	;RP0=1, select bank3
  2850     0F60  1703               	bsf	3,6	;RP1=1, select bank3
  2851     0F61  0866               	movf	BatStatus@i_90^(0+384),w
  2852     0F62  3E90               	addlw	(low (_BatHighArray| (0+256)))& (0+255)
  2853     0F63  0084               	movwf	4
  2854     0F64  1783               	bsf	3,7	;select IRP bank3
  2855     0F65  0800               	movf	0,w
  2856     0F66  160A  158A  2318  120A  158A  	fcall	_LcdData
  2857     0F6B                     l3407:
  2858                           
  2859                           ;main.c: 179:     }
  2860     0F6B  3001               	movlw	1
  2861     0F6C  1683               	bsf	3,5	;RP0=1, select bank3
  2862     0F6D  1703               	bsf	3,6	;RP1=1, select bank3
  2863     0F6E  07E6               	addwf	BatStatus@i_90^(0+384),f
  2864     0F6F  1803               	skipnc
  2865     0F70  0AE7               	incf	(BatStatus@i_90+1)^(0+384),f
  2866     0F71  3000               	movlw	0
  2867     0F72  07E7               	addwf	(BatStatus@i_90+1)^(0+384),f
  2868     0F73  2F51               	goto	l3401
  2869     0F74                     l3411:
  2870                           
  2871                           ;main.c: 184: {
  2872     0F74  3041               	movlw	65
  2873     0F75  00CF               	movwf	(_j+3)^(0+384)
  2874     0F76  308C               	movlw	140
  2875     0F77  00CE               	movwf	(_j+2)^(0+384)
  2876     0F78  30CC               	movlw	204
  2877     0F79  00CD               	movwf	(_j+1)^(0+384)
  2878     0F7A  30CD               	movlw	205
  2879     0F7B  00CC               	movwf	_j^(0+384)
  2880     0F7C                     l3413:
  2881                           
  2882                           ;main.c: 185:     uint8_t d1, d2, d3, d4;
  2883     0F7C  3089               	movlw	137
  2884     0F7D  120A  158A  2000  120A  158A  	fcall	_LcdCommand
  2885     0F82                     l3415:
  2886                           
  2887                           ;main.c: 186:     d4 = (uint8_t)(i / 1000);
  2888     0F82  30E1               	movlw	(low (_buffer| 0))& (0+255)
  2889     0F83  1683               	bsf	3,5	;RP0=1, select bank1
  2890     0F84  1303               	bcf	3,6	;RP1=0, select bank1
  2891     0F85  00D4               	movwf	sprintf@s^(0+128)
  2892     0F86  3001               	movlw	(low ((STR_1-__stringbase)| (0+32768)))& (0+255)
  2893     0F87  00D5               	movwf	sprintf@fmt^(0+128)
  2894     0F88  1683               	bsf	3,5	;RP0=1, select bank3
  2895     0F89  1703               	bsf	3,6	;RP1=1, select bank3
  2896     0F8A  084F               	movf	(_j+3)^(0+384),w
  2897     0F8B  1683               	bsf	3,5	;RP0=1, select bank1
  2898     0F8C  1303               	bcf	3,6	;RP1=0, select bank1
  2899     0F8D  00D9               	movwf	((?_sprintf+3)^(0+128)+2)
  2900     0F8E  1683               	bsf	3,5	;RP0=1, select bank3
  2901     0F8F  1703               	bsf	3,6	;RP1=1, select bank3
  2902     0F90  084E               	movf	(_j+2)^(0+384),w
  2903     0F91  1683               	bsf	3,5	;RP0=1, select bank1
  2904     0F92  1303               	bcf	3,6	;RP1=0, select bank1
  2905     0F93  00D8               	movwf	((?_sprintf+2)^(0+128)+2)
  2906     0F94  1683               	bsf	3,5	;RP0=1, select bank3
  2907     0F95  1703               	bsf	3,6	;RP1=1, select bank3
  2908     0F96  084D               	movf	(_j+1)^(0+384),w
  2909     0F97  1683               	bsf	3,5	;RP0=1, select bank1
  2910     0F98  1303               	bcf	3,6	;RP1=0, select bank1
  2911     0F99  00D7               	movwf	((?_sprintf+1)^(0+128)+2)
  2912     0F9A  1683               	bsf	3,5	;RP0=1, select bank3
  2913     0F9B  1703               	bsf	3,6	;RP1=1, select bank3
  2914     0F9C  084C               	movf	_j^(0+384),w
  2915     0F9D  1683               	bsf	3,5	;RP0=1, select bank1
  2916     0F9E  1303               	bcf	3,6	;RP1=0, select bank1
  2917     0F9F  00D6               	movwf	(?_sprintf^(0+128)+2)
  2918     0FA0  160A  118A  2004  120A  158A  	fcall	_sprintf
  2919     0FA5                     l3417:
  2920                           
  2921                           ;main.c: 187:     d3 = (uint8_t)((i % 1000) / 100);
  2922     0FA5  1683               	bsf	3,5	;RP0=1, select bank3
  2923     0FA6  1703               	bsf	3,6	;RP1=1, select bank3
  2924     0FA7  01D6               	clrf	BatStatus@i_92^(0+384)
  2925     0FA8  01D7               	clrf	(BatStatus@i_92+1)^(0+384)
  2926     0FA9  2FBB               	goto	l3423
  2927     0FAA                     l3419:
  2928                           
  2929                           ;main.c: 188:     d2 = (uint8_t)((i % 100) / 10);;main.c: 189:     d1 = (uint8_t)(i % 10
      +                          );
  2930     0FAA  0856               	movf	BatStatus@i_92^(0+384),w
  2931     0FAB  3EE1               	addlw	(low (_buffer| 0))& (0+255)
  2932     0FAC  0084               	movwf	4
  2933     0FAD  0800               	movf	0,w
  2934     0FAE  160A  158A  2318  120A  158A  	fcall	_LcdData
  2935     0FB3                     l3421:
  2936                           
  2937                           ;main.c: 190: 
  2938     0FB3  3001               	movlw	1
  2939     0FB4  1683               	bsf	3,5	;RP0=1, select bank3
  2940     0FB5  1703               	bsf	3,6	;RP1=1, select bank3
  2941     0FB6  07D6               	addwf	BatStatus@i_92^(0+384),f
  2942     0FB7  1803               	skipnc
  2943     0FB8  0AD7               	incf	(BatStatus@i_92+1)^(0+384),f
  2944     0FB9  3000               	movlw	0
  2945     0FBA  07D7               	addwf	(BatStatus@i_92+1)^(0+384),f
  2946     0FBB                     l3423:
  2947     0FBB  0856               	movf	BatStatus@i_92^(0+384),w
  2948     0FBC  3EE1               	addlw	(low (_buffer| 0))& (0+255)
  2949     0FBD  0084               	movwf	4
  2950     0FBE  1383               	bcf	3,7	;select IRP bank1
  2951     0FBF  0800               	movf	0,w
  2952     0FC0  1D03               	btfss	3,2
  2953     0FC1  2FC3               	goto	u4781
  2954     0FC2  2FC4               	goto	u4780
  2955     0FC3                     u4781:
  2956     0FC3  2FAA               	goto	l3419
  2957     0FC4                     u4780:
  2958     0FC4                     l3425:
  2959                           
  2960                           ;main.c: 191:     LcdCommand(0x88);
  2961     0FC4  30C0               	movlw	192
  2962     0FC5  120A  158A  2000  120A  158A  	fcall	_LcdCommand
  2963     0FCA                     l3427:
  2964                           
  2965                           ;main.c: 192:     LcdData(0x30 + d4);
  2966     0FCA  1683               	bsf	3,5	;RP0=1, select bank3
  2967     0FCB  1703               	bsf	3,6	;RP1=1, select bank3
  2968     0FCC  01E8               	clrf	BatStatus@i_93^(0+384)
  2969     0FCD  01E9               	clrf	(BatStatus@i_93+1)^(0+384)
  2970     0FCE                     l3429:
  2971     0FCE  0869               	movf	(BatStatus@i_93+1)^(0+384),w
  2972     0FCF  3A80               	xorlw	128
  2973     0FD0  00FF               	movwf	btemp+1
  2974     0FD1  3080               	movlw	128
  2975     0FD2  027F               	subwf	btemp+1,w
  2976     0FD3  1D03               	skipz
  2977     0FD4  2FD7               	goto	u4795
  2978     0FD5  300A               	movlw	10
  2979     0FD6  0268               	subwf	BatStatus@i_93^(0+384),w
  2980     0FD7                     u4795:
  2981     0FD7  1C03               	skipc
  2982     0FD8  2FDA               	goto	u4791
  2983     0FD9  2FDB               	goto	u4790
  2984     0FDA                     u4791:
  2985     0FDA  2FDC               	goto	l3433
  2986     0FDB                     u4790:
  2987     0FDB  2FFF               	goto	l111
  2988     0FDC                     l3433:
  2989                           
  2990                           ;main.c: 193: ;main.c: 194:     LcdData(0x30 + d3);
  2991     0FDC  1683               	bsf	3,5	;RP0=1, select bank3
  2992     0FDD  1703               	bsf	3,6	;RP1=1, select bank3
  2993     0FDE  0868               	movf	BatStatus@i_93^(0+384),w
  2994     0FDF  3E9F               	addlw	(low (_BatMediumArray| (0+256)))& (0+255)
  2995     0FE0  0084               	movwf	4
  2996     0FE1  1783               	bsf	3,7	;select IRP bank3
  2997     0FE2  0800               	movf	0,w
  2998     0FE3  160A  158A  2318  120A  158A  	fcall	_LcdData
  2999     0FE8                     l3435:
  3000                           
  3001                           ;main.c: 195: 
  3002     0FE8  3001               	movlw	1
  3003     0FE9  1683               	bsf	3,5	;RP0=1, select bank3
  3004     0FEA  1703               	bsf	3,6	;RP1=1, select bank3
  3005     0FEB  07E8               	addwf	BatStatus@i_93^(0+384),f
  3006     0FEC  1803               	skipnc
  3007     0FED  0AE9               	incf	(BatStatus@i_93+1)^(0+384),f
  3008     0FEE  3000               	movlw	0
  3009     0FEF  07E9               	addwf	(BatStatus@i_93+1)^(0+384),f
  3010     0FF0  2FCE               	goto	l3429
  3011     0FF1                     l3441:
  3012     0FF1  086A               	movf	_value^(0+384),w
  3013                           
  3014                           ; Switch size 1, requested type "simple"
  3015                           ; Number of cases is 4, Range of values is 112 to 224
  3016                           ; switch strategies available:
  3017                           ; Name         Instructions Cycles
  3018                           ; simple_byte           13     7 (average)
  3019                           ; jumptable            263     9 (fixed)
  3020                           ;	Chosen strategy is simple_byte
  3021     0FF2  3A70               	xorlw	112	; case 112
  3022     0FF3  1903               	skipnz
  3023     0FF4  2F74               	goto	l3411
  3024     0FF5  3AC0               	xorlw	192	; case 176
  3025     0FF6  1903               	skipnz
  3026     0FF7  2D3B               	goto	l3339
  3027     0FF8  3A60               	xorlw	96	; case 208
  3028     0FF9  1903               	skipnz
  3029     0FFA  2B1E               	goto	l3267
  3030     0FFB  3A30               	xorlw	48	; case 224
  3031     0FFC  1903               	skipnz
  3032     0FFD  2A7F               	goto	l3227
  3033     0FFE  2FFF               	goto	l111
  3034     0FFF                     l111:
  3035     0FFF  0008               	return
  3036     1000                     __end_of_BatStatus:
  3037                           
  3038                           	psect	text3
  3039     1004                     __ptext3:	
  3040 ;; *************** function _sprintf *****************
  3041 ;; Defined at:
  3042 ;;		line 9 in file "D:\Program Files\Microchip\xc8\v3.00\pic\sources\c99\common\nf_sprintf.c"
  3043 ;; Parameters:    Size  Location     Type
  3044 ;;  s               1   52[BANK1 ] PTR unsigned char 
  3045 ;;		 -> buffer(10), 
  3046 ;;  fmt             1   53[BANK1 ] PTR const unsigned char 
  3047 ;;		 -> STR_4(5), STR_3(5), STR_2(5), STR_1(5), 
  3048 ;; Auto vars:     Size  Location     Type
  3049 ;;  f              11   55[BANK0 ] struct _IO_FILE
  3050 ;;  ret             2    0        int 
  3051 ;;  ap              1   54[BANK0 ] PTR void [1]
  3052 ;;		 -> ?_sprintf(2), 
  3053 ;; Return value:  Size  Location     Type
  3054 ;;                  2   52[BANK1 ] int 
  3055 ;; Registers used:
  3056 ;;		wreg, fsr0l, fsr0h, status,2, status,0, btemp+1, pclath, cstack
  3057 ;; Tracked objects:
  3058 ;;		On entry : 0/0
  3059 ;;		On exit  : 0/0
  3060 ;;		Unchanged: 0/0
  3061 ;; Data sizes:     COMMON   BANK0   BANK1   BANK3   BANK2
  3062 ;;      Params:         0       0       6       0       0
  3063 ;;      Locals:         0      12       0       0       0
  3064 ;;      Temps:          0       1       0       0       0
  3065 ;;      Totals:         0      13       6       0       0
  3066 ;;Total ram usage:       19 bytes
  3067 ;; Hardware stack levels used: 1
  3068 ;; Hardware stack levels required when called: 7
  3069 ;; This function calls:
  3070 ;;		_vfprintf
  3071 ;; This function is called by:
  3072 ;;		_BatStatus
  3073 ;; This function uses a non-reentrant model
  3074 ;;
  3075                           
  3076     1004                     _sprintf:	
  3077                           ;psect for function _sprintf
  3078                           
  3079     1004                     l3173:	
  3080                           ;incstack = 0
  3081 ;; hardware stack exceeded
  3082                           ; Regs used in _sprintf: [wreg-fsr0h+status,2+status,0+btemp+1+pclath+cstack]
  3083                           
  3084     1004  30D6               	movlw	(low ((?_sprintf| 0+2)))& (0+255)
  3085     1005  1283               	bcf	3,5	;RP0=0, select bank0
  3086     1006  1303               	bcf	3,6	;RP1=0, select bank0
  3087     1007  00D6               	movwf	sprintf@ap
  3088     1008                     l3175:
  3089     1008  1683               	bsf	3,5	;RP0=1, select bank1
  3090     1009  1303               	bcf	3,6	;RP1=0, select bank1
  3091     100A  0854               	movf	sprintf@s^(0+128),w
  3092     100B  1283               	bcf	3,5	;RP0=0, select bank0
  3093     100C  1303               	bcf	3,6	;RP1=0, select bank0
  3094     100D  00D7               	movwf	sprintf@f
  3095     100E  3000               	movlw	0
  3096     100F  00D8               	movwf	sprintf@f+1
  3097     1010                     l3177:
  3098     1010  01D9               	clrf	sprintf@f+2
  3099     1011  01DA               	clrf	sprintf@f+3
  3100     1012                     l3179:
  3101     1012  01E0               	clrf	sprintf@f+9
  3102     1013  01E1               	clrf	sprintf@f+10
  3103     1014                     l3181:
  3104     1014  3057               	movlw	low sprintf@f
  3105     1015  1683               	bsf	3,5	;RP0=1, select bank1
  3106     1016  1303               	bcf	3,6	;RP1=0, select bank1
  3107     1017  00D0               	movwf	vfprintf@fp^(0+128)
  3108     1018  3000               	movlw	high sprintf@f
  3109     1019  00D1               	movwf	(vfprintf@fp^(0+128)+1)
  3110     101A  0855               	movf	sprintf@fmt^(0+128),w
  3111     101B  00D2               	movwf	vfprintf@fmt^(0+128)
  3112     101C  3056               	movlw	(low (sprintf@ap| 0))& (0+255)
  3113     101D  00D3               	movwf	vfprintf@ap^(0+128)
  3114     101E  160A  158A  23F7  160A  118A  	fcall	_vfprintf
  3115     1023                     l3183:
  3116     1023  1283               	bcf	3,5	;RP0=0, select bank0
  3117     1024  1303               	bcf	3,6	;RP1=0, select bank0
  3118     1025  0859               	movf	sprintf@f+2,w
  3119     1026  1683               	bsf	3,5	;RP0=1, select bank1
  3120     1027  1303               	bcf	3,6	;RP1=0, select bank1
  3121     1028  0754               	addwf	sprintf@s^(0+128),w
  3122     1029  1283               	bcf	3,5	;RP0=0, select bank0
  3123     102A  1303               	bcf	3,6	;RP1=0, select bank0
  3124     102B  00D5               	movwf	??_sprintf
  3125     102C  0855               	movf	??_sprintf,w
  3126     102D  0084               	movwf	4
  3127     102E  1383               	bcf	3,7	;select IRP bank0
  3128     102F  0180               	clrf	0
  3129     1030                     l669:
  3130     1030  0008               	return
  3131     1031                     __end_of_sprintf:
  3132                           
  3133                           	psect	text4
  3134     1BF7                     __ptext4:	
  3135 ;; *************** function _vfprintf *****************
  3136 ;; Defined at:
  3137 ;;		line 1817 in file "D:\Program Files\Microchip\xc8\v3.00\pic\sources\c99\common\doprnt.c"
  3138 ;; Parameters:    Size  Location     Type
  3139 ;;  fp              2   48[BANK1 ] PTR struct _IO_FILE
  3140 ;;		 -> sprintf@f(11), 
  3141 ;;  fmt             1   50[BANK1 ] PTR const unsigned char 
  3142 ;;		 -> STR_4(5), STR_3(5), STR_2(5), STR_1(5), 
  3143 ;;  ap              1   51[BANK1 ] PTR PTR void 
  3144 ;;		 -> sprintf@ap(1), 
  3145 ;; Auto vars:     Size  Location     Type
  3146 ;;  cfmt            1   52[BANK0 ] PTR unsigned char 
  3147 ;;		 -> STR_4(5), STR_3(5), STR_2(5), STR_1(5), 
  3148 ;; Return value:  Size  Location     Type
  3149 ;;                  2   48[BANK1 ] int 
  3150 ;; Registers used:
  3151 ;;		wreg, fsr0l, fsr0h, status,2, status,0, btemp+1, pclath, cstack
  3152 ;; Tracked objects:
  3153 ;;		On entry : 0/0
  3154 ;;		On exit  : 0/0
  3155 ;;		Unchanged: 0/0
  3156 ;; Data sizes:     COMMON   BANK0   BANK1   BANK3   BANK2
  3157 ;;      Params:         0       0       4       0       0
  3158 ;;      Locals:         0       1       0       0       0
  3159 ;;      Temps:          0       0       0       0       0
  3160 ;;      Totals:         0       1       4       0       0
  3161 ;;Total ram usage:        5 bytes
  3162 ;; Hardware stack levels used: 1
  3163 ;; Hardware stack levels required when called: 6
  3164 ;; This function calls:
  3165 ;;		_vfpfcnvrt
  3166 ;; This function is called by:
  3167 ;;		_sprintf
  3168 ;; This function uses a non-reentrant model
  3169 ;;
  3170                           
  3171     1BF7                     _vfprintf:	
  3172                           ;psect for function _vfprintf
  3173                           
  3174     1BF7                     l3147:	
  3175                           ;incstack = 0
  3176 ;; hardware stack exceeded
  3177                           ; Regs used in _vfprintf: [wreg-fsr0h+status,2+status,0+btemp+1+pclath+cstack]
  3178                           
  3179                           
  3180                           ;D:\Program Files\Microchip\xc8\v3.00\pic\sources\c99\common\doprnt.c: 1817: int vfprint
      +                          f(FILE *fp, const char *fmt, va_list ap);D:\Program Files\Microchip\xc8\v3.00\pic\source
      +                          s\c99\common\doprnt.c: 1818: {;D:\Program Files\Microchip\xc8\v3.00\pic\sources\c99\comm
      +                          on\doprnt.c: 1820:     char *cfmt;;D:\Program Files\Microchip\xc8\v3.00\pic\sources\c99\
      +                          common\doprnt.c: 1822:     cfmt = (char *)fmt;
  3181     1BF7  1683               	bsf	3,5	;RP0=1, select bank1
  3182     1BF8  1303               	bcf	3,6	;RP1=0, select bank1
  3183     1BF9  0852               	movf	vfprintf@fmt^(0+128),w
  3184     1BFA  1283               	bcf	3,5	;RP0=0, select bank0
  3185     1BFB  1303               	bcf	3,6	;RP1=0, select bank0
  3186     1BFC  00D4               	movwf	vfprintf@cfmt
  3187                           
  3188                           ;D:\Program Files\Microchip\xc8\v3.00\pic\sources\c99\common\doprnt.c: 1826:     while (
      +                          *cfmt) {
  3189     1BFD  2C0D               	goto	l3151
  3190     1BFE                     l3149:
  3191                           
  3192                           ;D:\Program Files\Microchip\xc8\v3.00\pic\sources\c99\common\doprnt.c: 1830:    vfpfcnvr
      +                          t(fp, &cfmt, ap);
  3193     1BFE  1683               	bsf	3,5	;RP0=1, select bank1
  3194     1BFF  1303               	bcf	3,6	;RP1=0, select bank1
  3195     1C00  0850               	movf	vfprintf@fp^(0+128),w
  3196     1C01  00CC               	movwf	vfpfcnvrt@fp^(0+128)
  3197     1C02  0851               	movf	(vfprintf@fp+1)^(0+128),w
  3198     1C03  00CD               	movwf	(vfpfcnvrt@fp+1)^(0+128)
  3199     1C04  3054               	movlw	(low (vfprintf@cfmt| 0))& (0+255)
  3200     1C05  00CE               	movwf	vfpfcnvrt@fmt^(0+128)
  3201     1C06  0853               	movf	vfprintf@ap^(0+128),w
  3202     1C07  00CF               	movwf	vfpfcnvrt@ap^(0+128)
  3203     1C08  160A  158A  26F7  160A  158A  	fcall	_vfpfcnvrt
  3204     1C0D                     l3151:
  3205                           
  3206                           ;D:\Program Files\Microchip\xc8\v3.00\pic\sources\c99\common\doprnt.c: 1826:     while (
      +                          *cfmt) {
  3207     1C0D  1283               	bcf	3,5	;RP0=0, select bank0
  3208     1C0E  1303               	bcf	3,6	;RP1=0, select bank0
  3209     1C0F  0854               	movf	vfprintf@cfmt,w
  3210     1C10  0084               	movwf	4
  3211     1C11  160A  158A  2000  160A  158A  	fcall	stringdir
  3212     1C16  3A00               	xorlw	0
  3213     1C17  1D03               	skipz
  3214     1C18  2C1A               	goto	u4521
  3215     1C19  2C1B               	goto	u4520
  3216     1C1A                     u4521:
  3217     1C1A  2BFE               	goto	l3149
  3218     1C1B                     u4520:
  3219     1C1B                     l3153:
  3220                           
  3221                           ;D:\Program Files\Microchip\xc8\v3.00\pic\sources\c99\common\doprnt.c: 1835:  return 0;
  3222     1C1B  1683               	bsf	3,5	;RP0=1, select bank1
  3223     1C1C  1303               	bcf	3,6	;RP1=0, select bank1
  3224     1C1D  01D0               	clrf	?_vfprintf^(0+128)
  3225     1C1E  01D1               	clrf	(?_vfprintf+1)^(0+128)
  3226     1C1F                     l787:
  3227     1C1F  0008               	return
  3228     1C20                     __end_of_vfprintf:
  3229                           
  3230                           	psect	text5
  3231     1EF7                     __ptext5:	
  3232 ;; *************** function _vfpfcnvrt *****************
  3233 ;; Defined at:
  3234 ;;		line 1177 in file "D:\Program Files\Microchip\xc8\v3.00\pic\sources\c99\common\doprnt.c"
  3235 ;; Parameters:    Size  Location     Type
  3236 ;;  fp              2   44[BANK1 ] PTR struct _IO_FILE
  3237 ;;		 -> sprintf@f(11), 
  3238 ;;  fmt             1   46[BANK1 ] PTR PTR unsigned char 
  3239 ;;		 -> vfprintf@cfmt(1), 
  3240 ;;  ap              1   47[BANK1 ] PTR PTR void 
  3241 ;;		 -> sprintf@ap(1), 
  3242 ;; Auto vars:     Size  Location     Type
  3243 ;;  convarg         4   46[BANK0 ] struct .
  3244 ;;  cp              1   51[BANK0 ] PTR unsigned char 
  3245 ;;		 -> STR_4(5), STR_3(5), STR_2(5), STR_1(5), 
  3246 ;;  c               1   50[BANK0 ] unsigned char 
  3247 ;;  done            1    0        _Bool 
  3248 ;; Return value:  Size  Location     Type
  3249 ;;                  1    wreg      void 
  3250 ;; Registers used:
  3251 ;;		wreg, fsr0l, fsr0h, status,2, status,0, btemp+1, pclath, cstack
  3252 ;; Tracked objects:
  3253 ;;		On entry : 0/0
  3254 ;;		On exit  : 0/0
  3255 ;;		Unchanged: 0/0
  3256 ;; Data sizes:     COMMON   BANK0   BANK1   BANK3   BANK2
  3257 ;;      Params:         0       0       4       0       0
  3258 ;;      Locals:         0       6       0       0       0
  3259 ;;      Temps:          0       2       0       0       0
  3260 ;;      Totals:         0       8       4       0       0
  3261 ;;Total ram usage:       12 bytes
  3262 ;; Hardware stack levels used: 1
  3263 ;; Hardware stack levels required when called: 5
  3264 ;; This function calls:
  3265 ;;		_efgtoa
  3266 ;;		_fputc
  3267 ;;		_read_prec_or_width
  3268 ;; This function is called by:
  3269 ;;		_vfprintf
  3270 ;; This function uses a non-reentrant model
  3271 ;;
  3272                           
  3273     1EF7                     _vfpfcnvrt:	
  3274                           ;psect for function _vfpfcnvrt
  3275                           
  3276     1EF7                     l3091:	
  3277                           ;incstack = 0
  3278 ;; hardware stack exceeded
  3279                           ; Regs used in _vfpfcnvrt: [wreg-fsr0h+status,2+status,0+btemp+1+pclath+cstack]
  3280                           
  3281                           
  3282                           ;D:\Program Files\Microchip\xc8\v3.00\pic\sources\c99\common\doprnt.c: 1177: vfpfcnvrt(F
      +                          ILE *fp, char *fmt[], va_list ap);D:\Program Files\Microchip\xc8\v3.00\pic\sources\c99\c
      +                          ommon\doprnt.c: 1178: {;D:\Program Files\Microchip\xc8\v3.00\pic\sources\c99\common\dopr
      +                          nt.c: 1179:     char c, *cp;;D:\Program Files\Microchip\xc8\v3.00\pic\sources\c99\common
      +                          \doprnt.c: 1180:     _Bool done;;D:\Program Files\Microchip\xc8\v3.00\pic\sources\c99\co
      +                          mmon\doprnt.c: 1188:  } convarg;;D:\Program Files\Microchip\xc8\v3.00\pic\sources\c99\co
      +                          mmon\doprnt.c: 1201:     if ((*fmt)[0] == '%') {
  3283     1EF7  1683               	bsf	3,5	;RP0=1, select bank1
  3284     1EF8  1303               	bcf	3,6	;RP1=0, select bank1
  3285     1EF9  084E               	movf	vfpfcnvrt@fmt^(0+128),w
  3286     1EFA  0084               	movwf	4
  3287     1EFB  1383               	bcf	3,7	;select IRP bank0
  3288     1EFC  0800               	movf	0,w
  3289     1EFD  0084               	movwf	4
  3290     1EFE  160A  158A  2000  160A  158A  	fcall	stringdir
  3291     1F03  3A25               	xorlw	37
  3292     1F04  1D03               	skipz
  3293     1F05  2F07               	goto	u4491
  3294     1F06  2F08               	goto	u4490
  3295     1F07                     u4491:
  3296     1F07  2FE2               	goto	l3141
  3297     1F08                     u4490:
  3298     1F08                     l3093:
  3299                           
  3300                           ;D:\Program Files\Microchip\xc8\v3.00\pic\sources\c99\common\doprnt.c: 1202:         ++*
      +                          fmt;
  3301     1F08  084E               	movf	vfpfcnvrt@fmt^(0+128),w
  3302     1F09  0084               	movwf	4
  3303     1F0A  3001               	movlw	1
  3304     1F0B  0780               	addwf	0,f
  3305     1F0C                     l3095:
  3306                           
  3307                           ;D:\Program Files\Microchip\xc8\v3.00\pic\sources\c99\common\doprnt.c: 1204:         fla
      +                          gs = width = 0;
  3308     1F0C  1283               	bcf	3,5	;RP0=0, select bank0
  3309     1F0D  1303               	bcf	3,6	;RP1=0, select bank0
  3310     1F0E  01E6               	clrf	_width
  3311     1F0F  01E7               	clrf	_width+1
  3312     1F10  3000               	movlw	0
  3313     1F11  00EA               	movwf	_flags
  3314     1F12                     l3097:
  3315                           
  3316                           ;D:\Program Files\Microchip\xc8\v3.00\pic\sources\c99\common\doprnt.c: 1205:         pre
      +                          c = -1;
  3317     1F12  30FF               	movlw	255
  3318     1F13  00E8               	movwf	_prec
  3319     1F14  30FF               	movlw	255
  3320     1F15  00E9               	movwf	_prec+1
  3321     1F16                     l3099:
  3322                           
  3323                           ;D:\Program Files\Microchip\xc8\v3.00\pic\sources\c99\common\doprnt.c: 1265:         if 
      +                          ((*fmt)[0] == '.') {
  3324     1F16  1683               	bsf	3,5	;RP0=1, select bank1
  3325     1F17  1303               	bcf	3,6	;RP1=0, select bank1
  3326     1F18  084E               	movf	vfpfcnvrt@fmt^(0+128),w
  3327     1F19  0084               	movwf	4
  3328     1F1A  0800               	movf	0,w
  3329     1F1B  0084               	movwf	4
  3330     1F1C  160A  158A  2000  160A  158A  	fcall	stringdir
  3331     1F21  3A2E               	xorlw	46
  3332     1F22  1D03               	skipz
  3333     1F23  2F25               	goto	u4501
  3334     1F24  2F26               	goto	u4500
  3335     1F25                     u4501:
  3336     1F25  2F39               	goto	l3105
  3337     1F26                     u4500:
  3338     1F26                     l3101:
  3339                           
  3340                           ;D:\Program Files\Microchip\xc8\v3.00\pic\sources\c99\common\doprnt.c: 1266:            
      +                           ++*fmt;
  3341     1F26  084E               	movf	vfpfcnvrt@fmt^(0+128),w
  3342     1F27  0084               	movwf	4
  3343     1F28  3001               	movlw	1
  3344     1F29  0780               	addwf	0,f
  3345     1F2A                     l3103:
  3346                           
  3347                           ;D:\Program Files\Microchip\xc8\v3.00\pic\sources\c99\common\doprnt.c: 1267:    prec = r
      +                          ead_prec_or_width(fmt, ap);
  3348     1F2A  084E               	movf	vfpfcnvrt@fmt^(0+128),w
  3349     1F2B  00F6               	movwf	read_prec_or_width@fmt
  3350     1F2C  084F               	movf	vfpfcnvrt@ap^(0+128),w
  3351     1F2D  00F7               	movwf	read_prec_or_width@ap
  3352     1F2E  160A  158A  2517  160A  158A  	fcall	_read_prec_or_width
  3353     1F33  0877               	movf	?_read_prec_or_width+1,w
  3354     1F34  1283               	bcf	3,5	;RP0=0, select bank0
  3355     1F35  1303               	bcf	3,6	;RP1=0, select bank0
  3356     1F36  00E9               	movwf	_prec+1
  3357     1F37  0876               	movf	?_read_prec_or_width,w
  3358     1F38  00E8               	movwf	_prec
  3359     1F39                     l3105:
  3360                           
  3361                           ;D:\Program Files\Microchip\xc8\v3.00\pic\sources\c99\common\doprnt.c: 1689:   cp = *fmt
      +                          ;
  3362     1F39  1683               	bsf	3,5	;RP0=1, select bank1
  3363     1F3A  1303               	bcf	3,6	;RP1=0, select bank1
  3364     1F3B  084E               	movf	vfpfcnvrt@fmt^(0+128),w
  3365     1F3C  0084               	movwf	4
  3366     1F3D  1383               	bcf	3,7	;select IRP bank0
  3367     1F3E  0800               	movf	0,w
  3368     1F3F  1283               	bcf	3,5	;RP0=0, select bank0
  3369     1F40  1303               	bcf	3,6	;RP1=0, select bank0
  3370     1F41  00D3               	movwf	vfpfcnvrt@cp
  3371     1F42                     l3107:
  3372                           
  3373                           ;D:\Program Files\Microchip\xc8\v3.00\pic\sources\c99\common\doprnt.c: 1690:   c = *cp;
  3374     1F42  0853               	movf	vfpfcnvrt@cp,w
  3375     1F43  0084               	movwf	4
  3376     1F44  160A  158A  2000  160A  158A  	fcall	stringdir
  3377     1F49  00D2               	movwf	vfpfcnvrt@c
  3378                           
  3379                           ;D:\Program Files\Microchip\xc8\v3.00\pic\sources\c99\common\doprnt.c: 1691:   switch(c)
      +                           {
  3380     1F4A  2F53               	goto	l3115
  3381     1F4B                     l3109:
  3382                           
  3383                           ;D:\Program Files\Microchip\xc8\v3.00\pic\sources\c99\common\doprnt.c: 1695:     cp++;
  3384     1F4B  3001               	movlw	1
  3385     1F4C  07D3               	addwf	vfpfcnvrt@cp,f
  3386                           
  3387                           ;D:\Program Files\Microchip\xc8\v3.00\pic\sources\c99\common\doprnt.c: 1696:     break;
  3388     1F4D  2F5E               	goto	l3117
  3389     1F4E                     l769:	
  3390                           ;D:\Program Files\Microchip\xc8\v3.00\pic\sources\c99\common\doprnt.c: 1710:    case 'f'
      +                          :
  3391                           
  3392                           
  3393                           ;D:\Program Files\Microchip\xc8\v3.00\pic\sources\c99\common\doprnt.c: 1721:     c = 'l'
      +                          ;
  3394     1F4E  306C               	movlw	108
  3395     1F4F  00D2               	movwf	vfpfcnvrt@c
  3396                           
  3397                           ;D:\Program Files\Microchip\xc8\v3.00\pic\sources\c99\common\doprnt.c: 1722:     break;
  3398     1F50  2F5E               	goto	l3117
  3399     1F51                     l3111:
  3400                           
  3401                           ;D:\Program Files\Microchip\xc8\v3.00\pic\sources\c99\common\doprnt.c: 1724:     c = 0;
  3402     1F51  01D2               	clrf	vfpfcnvrt@c
  3403                           
  3404                           ;D:\Program Files\Microchip\xc8\v3.00\pic\sources\c99\common\doprnt.c: 1725:     break;
  3405     1F52  2F5E               	goto	l3117
  3406     1F53                     l3115:
  3407     1F53  0852               	movf	vfpfcnvrt@c,w
  3408                           
  3409                           ; Switch size 1, requested type "simple"
  3410                           ; Number of cases is 3, Range of values is 76 to 108
  3411                           ; switch strategies available:
  3412                           ; Name         Instructions Cycles
  3413                           ; simple_byte           10     6 (average)
  3414                           ; direct_byte          110    11 (fixed)
  3415                           ; jumptable            263     9 (fixed)
  3416                           ;	Chosen strategy is simple_byte
  3417     1F54  3A4C               	xorlw	76	; case 76
  3418     1F55  1903               	skipnz
  3419     1F56  2F4B               	goto	l3109
  3420     1F57  3A2A               	xorlw	42	; case 102
  3421     1F58  1903               	skipnz
  3422     1F59  2F4E               	goto	l769
  3423     1F5A  3A0A               	xorlw	10	; case 108
  3424     1F5B  1903               	skipnz
  3425     1F5C  2F4B               	goto	l3109
  3426     1F5D  2F51               	goto	l3111
  3427     1F5E                     l3117:
  3428     1F5E  0853               	movf	vfpfcnvrt@cp,w
  3429     1F5F  0084               	movwf	4
  3430     1F60  160A  158A  2000  160A  158A  	fcall	stringdir
  3431     1F65  3A66               	xorlw	102
  3432     1F66  1D03               	skipz
  3433     1F67  2F69               	goto	u4511
  3434     1F68  2F6A               	goto	u4510
  3435     1F69                     u4511:
  3436     1F69  2FDA               	goto	l3137
  3437     1F6A                     u4510:
  3438     1F6A  2F9B               	goto	l3125
  3439     1F6B                     l3119:
  3440                           
  3441                           ;D:\Program Files\Microchip\xc8\v3.00\pic\sources\c99\common\doprnt.c: 1756:      convar
      +                          g.f = (long double)(*(double *)__va_arg(*(double **)ap, (double)0));
  3442     1F6B  1683               	bsf	3,5	;RP0=1, select bank1
  3443     1F6C  1303               	bcf	3,6	;RP1=0, select bank1
  3444     1F6D  084F               	movf	vfpfcnvrt@ap^(0+128),w
  3445     1F6E  0084               	movwf	4
  3446     1F6F  0800               	movf	0,w
  3447     1F70  00FF               	movwf	btemp+1
  3448     1F71  3004               	movlw	4
  3449     1F72  0780               	addwf	0,f
  3450     1F73  087F               	movf	btemp+1,w
  3451     1F74  0084               	movwf	4
  3452     1F75  0800               	movf	0,w
  3453     1F76  1283               	bcf	3,5	;RP0=0, select bank0
  3454     1F77  1303               	bcf	3,6	;RP1=0, select bank0
  3455     1F78  00CE               	movwf	vfpfcnvrt@convarg
  3456     1F79  0A84               	incf	4,f
  3457     1F7A  0800               	movf	0,w
  3458     1F7B  00CF               	movwf	vfpfcnvrt@convarg+1
  3459     1F7C  0A84               	incf	4,f
  3460     1F7D  0800               	movf	0,w
  3461     1F7E  00D0               	movwf	vfpfcnvrt@convarg+2
  3462     1F7F  0A84               	incf	4,f
  3463     1F80  0800               	movf	0,w
  3464     1F81  00D1               	movwf	vfpfcnvrt@convarg+3
  3465                           
  3466                           ;D:\Program Files\Microchip\xc8\v3.00\pic\sources\c99\common\doprnt.c: 1757:      break;
  3467     1F82  2FA3               	goto	l3127
  3468     1F83                     l3121:
  3469                           
  3470                           ;D:\Program Files\Microchip\xc8\v3.00\pic\sources\c99\common\doprnt.c: 1759:      convar
      +                          g.f = (long double)(*(long double *)__va_arg(*(long double **)ap, (long double)0));
  3471     1F83  1683               	bsf	3,5	;RP0=1, select bank1
  3472     1F84  1303               	bcf	3,6	;RP1=0, select bank1
  3473     1F85  084F               	movf	vfpfcnvrt@ap^(0+128),w
  3474     1F86  0084               	movwf	4
  3475     1F87  0800               	movf	0,w
  3476     1F88  00FF               	movwf	btemp+1
  3477     1F89  3004               	movlw	4
  3478     1F8A  0780               	addwf	0,f
  3479     1F8B  087F               	movf	btemp+1,w
  3480     1F8C  0084               	movwf	4
  3481     1F8D  0800               	movf	0,w
  3482     1F8E  1283               	bcf	3,5	;RP0=0, select bank0
  3483     1F8F  1303               	bcf	3,6	;RP1=0, select bank0
  3484     1F90  00CE               	movwf	vfpfcnvrt@convarg
  3485     1F91  0A84               	incf	4,f
  3486     1F92  0800               	movf	0,w
  3487     1F93  00CF               	movwf	vfpfcnvrt@convarg+1
  3488     1F94  0A84               	incf	4,f
  3489     1F95  0800               	movf	0,w
  3490     1F96  00D0               	movwf	vfpfcnvrt@convarg+2
  3491     1F97  0A84               	incf	4,f
  3492     1F98  0800               	movf	0,w
  3493     1F99  00D1               	movwf	vfpfcnvrt@convarg+3
  3494                           
  3495                           ;D:\Program Files\Microchip\xc8\v3.00\pic\sources\c99\common\doprnt.c: 1760:      break;
  3496     1F9A  2FA3               	goto	l3127
  3497     1F9B                     l3125:
  3498     1F9B  0852               	movf	vfpfcnvrt@c,w
  3499                           
  3500                           ; Switch size 1, requested type "simple"
  3501                           ; Number of cases is 2, Range of values is 76 to 108
  3502                           ; switch strategies available:
  3503                           ; Name         Instructions Cycles
  3504                           ; simple_byte            7     4 (average)
  3505                           ; direct_byte          110    11 (fixed)
  3506                           ; jumptable            263     9 (fixed)
  3507                           ;	Chosen strategy is simple_byte
  3508     1F9C  3A4C               	xorlw	76	; case 76
  3509     1F9D  1903               	skipnz
  3510     1F9E  2F83               	goto	l3121
  3511     1F9F  3A20               	xorlw	32	; case 108
  3512     1FA0  1903               	skipnz
  3513     1FA1  2F6B               	goto	l3119
  3514     1FA2  2FA3               	goto	l3127
  3515     1FA3                     l3127:
  3516                           
  3517                           ;D:\Program Files\Microchip\xc8\v3.00\pic\sources\c99\common\doprnt.c: 1762:    *fmt = c
      +                          p+1;
  3518     1FA3  1683               	bsf	3,5	;RP0=1, select bank1
  3519     1FA4  1303               	bcf	3,6	;RP1=0, select bank1
  3520     1FA5  084E               	movf	vfpfcnvrt@fmt^(0+128),w
  3521     1FA6  0084               	movwf	4
  3522     1FA7  1283               	bcf	3,5	;RP0=0, select bank0
  3523     1FA8  1303               	bcf	3,6	;RP1=0, select bank0
  3524     1FA9  0853               	movf	vfpfcnvrt@cp,w
  3525     1FAA  3E01               	addlw	1
  3526     1FAB  0080               	movwf	0
  3527                           
  3528                           ;D:\Program Files\Microchip\xc8\v3.00\pic\sources\c99\common\doprnt.c: 1763:    switch (
      +                          *cp) {
  3529     1FAC  2FCF               	goto	l3135
  3530     1FAD                     l3129:
  3531                           
  3532                           ;D:\Program Files\Microchip\xc8\v3.00\pic\sources\c99\common\doprnt.c: 1790:      return
      +                           (void) efgtoa(fp, convarg.f, *cp);;	Return value of _vfpfcnvrt is never used
  3533     1FAD  1683               	bsf	3,5	;RP0=1, select bank1
  3534     1FAE  1303               	bcf	3,6	;RP1=0, select bank1
  3535     1FAF  084C               	movf	vfpfcnvrt@fp^(0+128),w
  3536     1FB0  1283               	bcf	3,5	;RP0=0, select bank0
  3537     1FB1  1303               	bcf	3,6	;RP1=0, select bank0
  3538     1FB2  00C1               	movwf	efgtoa@fp
  3539     1FB3  1683               	bsf	3,5	;RP0=1, select bank1
  3540     1FB4  1303               	bcf	3,6	;RP1=0, select bank1
  3541     1FB5  084D               	movf	(vfpfcnvrt@fp+1)^(0+128),w
  3542     1FB6  1283               	bcf	3,5	;RP0=0, select bank0
  3543     1FB7  1303               	bcf	3,6	;RP1=0, select bank0
  3544     1FB8  00C2               	movwf	efgtoa@fp+1
  3545     1FB9  0851               	movf	vfpfcnvrt@convarg+3,w
  3546     1FBA  00C6               	movwf	efgtoa@f+3
  3547     1FBB  0850               	movf	vfpfcnvrt@convarg+2,w
  3548     1FBC  00C5               	movwf	efgtoa@f+2
  3549     1FBD  084F               	movf	vfpfcnvrt@convarg+1,w
  3550     1FBE  00C4               	movwf	efgtoa@f+1
  3551     1FBF  084E               	movf	vfpfcnvrt@convarg,w
  3552     1FC0  00C3               	movwf	efgtoa@f
  3553     1FC1  0853               	movf	vfpfcnvrt@cp,w
  3554     1FC2  0084               	movwf	4
  3555     1FC3  160A  158A  2000  160A  158A  	fcall	stringdir
  3556     1FC8  00C7               	movwf	efgtoa@c
  3557     1FC9  160A  118A  21DB  160A  158A  	fcall	_efgtoa
  3558     1FCE  2FFF               	goto	l780
  3559     1FCF                     l3135:
  3560     1FCF  0853               	movf	vfpfcnvrt@cp,w
  3561     1FD0  0084               	movwf	4
  3562     1FD1  160A  158A  2000  160A  158A  	fcall	stringdir
  3563                           
  3564                           ; Switch size 1, requested type "simple"
  3565                           ; Number of cases is 1, Range of values is 102 to 102
  3566                           ; switch strategies available:
  3567                           ; Name         Instructions Cycles
  3568                           ; simple_byte            4     3 (average)
  3569                           ; direct_byte           14    11 (fixed)
  3570                           ; jumptable            263     9 (fixed)
  3571                           ;	Chosen strategy is simple_byte
  3572     1FD6  3A66               	xorlw	102	; case 102
  3573     1FD7  1903               	skipnz
  3574     1FD8  2FAD               	goto	l3129
  3575     1FD9  2FDA               	goto	l3137
  3576     1FDA                     l3137:
  3577                           
  3578                           ;D:\Program Files\Microchip\xc8\v3.00\pic\sources\c99\common\doprnt.c: 1806:         ++*
      +                          fmt;
  3579     1FDA  1683               	bsf	3,5	;RP0=1, select bank1
  3580     1FDB  1303               	bcf	3,6	;RP1=0, select bank1
  3581     1FDC  084E               	movf	vfpfcnvrt@fmt^(0+128),w
  3582     1FDD  0084               	movwf	4
  3583     1FDE  3001               	movlw	1
  3584     1FDF  1383               	bcf	3,7	;select IRP bank0
  3585     1FE0  0780               	addwf	0,f
  3586     1FE1  2FFF               	goto	l780
  3587     1FE2                     l3141:
  3588                           
  3589                           ;D:\Program Files\Microchip\xc8\v3.00\pic\sources\c99\common\doprnt.c: 1811:     fputc((
      +                          int)(*fmt)[0], fp);
  3590     1FE2  084E               	movf	vfpfcnvrt@fmt^(0+128),w
  3591     1FE3  0084               	movwf	4
  3592     1FE4  0800               	movf	0,w
  3593     1FE5  0084               	movwf	4
  3594     1FE6  160A  158A  2000  160A  158A  	fcall	stringdir
  3595     1FEB  1283               	bcf	3,5	;RP0=0, select bank0
  3596     1FEC  1303               	bcf	3,6	;RP1=0, select bank0
  3597     1FED  00CC               	movwf	??_vfpfcnvrt
  3598     1FEE  01CD               	clrf	??_vfpfcnvrt+1
  3599     1FEF  084C               	movf	??_vfpfcnvrt,w
  3600     1FF0  00F0               	movwf	fputc@c
  3601     1FF1  084D               	movf	??_vfpfcnvrt+1,w
  3602     1FF2  00F1               	movwf	fputc@c+1
  3603     1FF3  1683               	bsf	3,5	;RP0=1, select bank1
  3604     1FF4  1303               	bcf	3,6	;RP1=0, select bank1
  3605     1FF5  084C               	movf	vfpfcnvrt@fp^(0+128),w
  3606     1FF6  00F2               	movwf	fputc@fp
  3607     1FF7  084D               	movf	(vfpfcnvrt@fp+1)^(0+128),w
  3608     1FF8  00F3               	movwf	fputc@fp+1
  3609     1FF9  160A  158A  265D  160A  158A  	fcall	_fputc
  3610     1FFE  2FDA               	goto	l3137
  3611     1FFF                     l780:
  3612     1FFF  0008               	return
  3613     2000                     __end_of_vfpfcnvrt:
  3614                           
  3615                           	psect	text6
  3616     1D17                     __ptext6:	
  3617 ;; *************** function _read_prec_or_width *****************
  3618 ;; Defined at:
  3619 ;;		line 1158 in file "D:\Program Files\Microchip\xc8\v3.00\pic\sources\c99\common\doprnt.c"
  3620 ;; Parameters:    Size  Location     Type
  3621 ;;  fmt             1    6[COMMON] PTR PTR const unsigned c
  3622 ;;		 -> vfprintf@cfmt(1), 
  3623 ;;  ap              1    7[COMMON] PTR PTR void [1]
  3624 ;;		 -> sprintf@ap(1), 
  3625 ;; Auto vars:     Size  Location     Type
  3626 ;;  c               1    8[COMMON] unsigned char 
  3627 ;;  n               2    9[COMMON] int 
  3628 ;; Return value:  Size  Location     Type
  3629 ;;                  2    6[COMMON] int 
  3630 ;; Registers used:
  3631 ;;		wreg, fsr0l, fsr0h, status,2, status,0, btemp+1, pclath, cstack
  3632 ;; Tracked objects:
  3633 ;;		On entry : 0/0
  3634 ;;		On exit  : 0/0
  3635 ;;		Unchanged: 0/0
  3636 ;; Data sizes:     COMMON   BANK0   BANK1   BANK3   BANK2
  3637 ;;      Params:         2       0       0       0       0
  3638 ;;      Locals:         3       0       0       0       0
  3639 ;;      Temps:          0       0       0       0       0
  3640 ;;      Totals:         5       0       0       0       0
  3641 ;;Total ram usage:        5 bytes
  3642 ;; Hardware stack levels used: 1
  3643 ;; Hardware stack levels required when called: 1
  3644 ;; This function calls:
  3645 ;;		___wmul
  3646 ;; This function is called by:
  3647 ;;		_vfpfcnvrt
  3648 ;; This function uses a non-reentrant model
  3649 ;;
  3650                           
  3651     1D17                     _read_prec_or_width:	
  3652                           ;psect for function _read_prec_or_width
  3653                           
  3654     1D17                     l3073:	
  3655                           ;incstack = 0
  3656                           ; Regs used in _read_prec_or_width: [wreg-fsr0h+status,2+status,0+btemp+1+pclath+cstack]
  3657                           
  3658                           
  3659                           ;D:\Program Files\Microchip\xc8\v3.00\pic\sources\c99\common\doprnt.c: 1159:     int n =
      +                           0;
  3660     1D17  01F9               	clrf	read_prec_or_width@n
  3661     1D18  01FA               	clrf	read_prec_or_width@n+1
  3662     1D19                     l3075:
  3663                           
  3664                           ;D:\Program Files\Microchip\xc8\v3.00\pic\sources\c99\common\doprnt.c: 1160:     if ((*f
      +                          mt)[0] == '*') {
  3665     1D19  0876               	movf	read_prec_or_width@fmt,w
  3666     1D1A  0084               	movwf	4
  3667     1D1B  1383               	bcf	3,7	;select IRP bank0
  3668     1D1C  0800               	movf	0,w
  3669     1D1D  0084               	movwf	4
  3670     1D1E  160A  158A  2000  160A  158A  	fcall	stringdir
  3671     1D23  3A2A               	xorlw	42
  3672     1D24  1D03               	skipz
  3673     1D25  2D27               	goto	u4471
  3674     1D26  2D28               	goto	u4470
  3675     1D27                     u4471:
  3676     1D27  2D54               	goto	l3085
  3677     1D28                     u4470:
  3678     1D28                     l3077:
  3679                           
  3680                           ;D:\Program Files\Microchip\xc8\v3.00\pic\sources\c99\common\doprnt.c: 1161:         ++*
      +                          fmt;
  3681     1D28  0876               	movf	read_prec_or_width@fmt,w
  3682     1D29  0084               	movwf	4
  3683     1D2A  3001               	movlw	1
  3684     1D2B  0780               	addwf	0,f
  3685     1D2C                     l3079:
  3686                           
  3687                           ;D:\Program Files\Microchip\xc8\v3.00\pic\sources\c99\common\doprnt.c: 1162:         n =
      +                           (*(int *)__va_arg(*(int **)*ap, (int)0));
  3688     1D2C  0877               	movf	read_prec_or_width@ap,w
  3689     1D2D  0084               	movwf	4
  3690     1D2E  0800               	movf	0,w
  3691     1D2F  00FF               	movwf	btemp+1
  3692     1D30  3002               	movlw	2
  3693     1D31  0780               	addwf	0,f
  3694     1D32  087F               	movf	btemp+1,w
  3695     1D33  0084               	movwf	4
  3696     1D34  0800               	movf	0,w
  3697     1D35  00F9               	movwf	read_prec_or_width@n
  3698     1D36  0A84               	incf	4,f
  3699     1D37  0800               	movf	0,w
  3700     1D38  00FA               	movwf	read_prec_or_width@n+1
  3701                           
  3702                           ;D:\Program Files\Microchip\xc8\v3.00\pic\sources\c99\common\doprnt.c: 1163:     } else 
      +                          {
  3703     1D39  2D65               	goto	l3087
  3704     1D3A                     l3081:
  3705                           
  3706                           ;D:\Program Files\Microchip\xc8\v3.00\pic\sources\c99\common\doprnt.c: 1166:            
      +                           n = n * 10 + c;
  3707     1D3A  087A               	movf	read_prec_or_width@n+1,w
  3708     1D3B  00F1               	movwf	___wmul@multiplier+1
  3709     1D3C  0879               	movf	read_prec_or_width@n,w
  3710     1D3D  00F0               	movwf	___wmul@multiplier
  3711     1D3E  300A               	movlw	10
  3712     1D3F  00F2               	movwf	___wmul@multiplicand
  3713     1D40  3000               	movlw	0
  3714     1D41  00F3               	movwf	___wmul@multiplicand+1
  3715     1D42  160A  158A  23AB  160A  158A  	fcall	___wmul
  3716     1D47  0878               	movf	read_prec_or_width@c,w
  3717     1D48  0770               	addwf	?___wmul,w
  3718     1D49  00F9               	movwf	read_prec_or_width@n
  3719     1D4A  3000               	movlw	0
  3720     1D4B  1803               	skipnc
  3721     1D4C  3001               	movlw	1
  3722     1D4D  0771               	addwf	?___wmul+1,w
  3723     1D4E  00FA               	movwf	read_prec_or_width@n+1
  3724     1D4F                     l3083:
  3725                           
  3726                           ;D:\Program Files\Microchip\xc8\v3.00\pic\sources\c99\common\doprnt.c: 1167:            
      +                           ++*fmt;
  3727     1D4F  0876               	movf	read_prec_or_width@fmt,w
  3728     1D50  0084               	movwf	4
  3729     1D51  3001               	movlw	1
  3730     1D52  1383               	bcf	3,7	;select IRP bank0
  3731     1D53  0780               	addwf	0,f
  3732     1D54                     l3085:
  3733                           
  3734                           ;D:\Program Files\Microchip\xc8\v3.00\pic\sources\c99\common\doprnt.c: 1165:         whi
      +                          le ((c = ((unsigned)(*fmt)[0]) - '0') < 10) {
  3735     1D54  0876               	movf	read_prec_or_width@fmt,w
  3736     1D55  0084               	movwf	4
  3737     1D56  0800               	movf	0,w
  3738     1D57  0084               	movwf	4
  3739     1D58  160A  158A  2000  160A  158A  	fcall	stringdir
  3740     1D5D  3ED0               	addlw	208
  3741     1D5E  00F8               	movwf	read_prec_or_width@c
  3742     1D5F  300A               	movlw	10
  3743     1D60  0278               	subwf	read_prec_or_width@c,w
  3744     1D61  1C03               	skipc
  3745     1D62  2D64               	goto	u4481
  3746     1D63  2D65               	goto	u4480
  3747     1D64                     u4481:
  3748     1D64  2D3A               	goto	l3081
  3749     1D65                     u4480:
  3750     1D65                     l3087:
  3751                           
  3752                           ;D:\Program Files\Microchip\xc8\v3.00\pic\sources\c99\common\doprnt.c: 1170:     return 
      +                          n;
  3753     1D65  087A               	movf	read_prec_or_width@n+1,w
  3754     1D66  00F7               	movwf	?_read_prec_or_width+1
  3755     1D67  0879               	movf	read_prec_or_width@n,w
  3756     1D68  00F6               	movwf	?_read_prec_or_width
  3757     1D69                     l760:
  3758     1D69  0008               	return
  3759     1D6A                     __end_of_read_prec_or_width:
  3760                           
  3761                           	psect	text7
  3762     1BAB                     __ptext7:	
  3763 ;; *************** function ___wmul *****************
  3764 ;; Defined at:
  3765 ;;		line 15 in file "D:\Program Files\Microchip\xc8\v3.00\pic\sources\c99\common\Umul16.c"
  3766 ;; Parameters:    Size  Location     Type
  3767 ;;  multiplier      2    0[COMMON] unsigned int 
  3768 ;;  multiplicand    2    2[COMMON] unsigned int 
  3769 ;; Auto vars:     Size  Location     Type
  3770 ;;  product         2    4[COMMON] unsigned int 
  3771 ;; Return value:  Size  Location     Type
  3772 ;;                  2    0[COMMON] unsigned int 
  3773 ;; Registers used:
  3774 ;;		wreg, status,2, status,0
  3775 ;; Tracked objects:
  3776 ;;		On entry : 0/0
  3777 ;;		On exit  : 0/0
  3778 ;;		Unchanged: 0/0
  3779 ;; Data sizes:     COMMON   BANK0   BANK1   BANK3   BANK2
  3780 ;;      Params:         4       0       0       0       0
  3781 ;;      Locals:         2       0       0       0       0
  3782 ;;      Temps:          0       0       0       0       0
  3783 ;;      Totals:         6       0       0       0       0
  3784 ;;Total ram usage:        6 bytes
  3785 ;; Hardware stack levels used: 1
  3786 ;; This function calls:
  3787 ;;		Nothing
  3788 ;; This function is called by:
  3789 ;;		_read_prec_or_width
  3790 ;; This function uses a non-reentrant model
  3791 ;;
  3792                           
  3793     1BAB                     ___wmul:	
  3794                           ;psect for function ___wmul
  3795                           
  3796     1BAB                     l2391:	
  3797                           ;incstack = 0
  3798                           ; Regs used in ___wmul: [wreg+status,2+status,0]
  3799                           
  3800     1BAB  01F4               	clrf	___wmul@product
  3801     1BAC  01F5               	clrf	___wmul@product+1
  3802     1BAD                     l2393:
  3803     1BAD  1C70               	btfss	___wmul@multiplier,0
  3804     1BAE  2BB0               	goto	u2951
  3805     1BAF  2BB1               	goto	u2950
  3806     1BB0                     u2951:
  3807     1BB0  2BB7               	goto	l206
  3808     1BB1                     u2950:
  3809     1BB1                     l2395:
  3810     1BB1  0872               	movf	___wmul@multiplicand,w
  3811     1BB2  07F4               	addwf	___wmul@product,f
  3812     1BB3  1803               	skipnc
  3813     1BB4  0AF5               	incf	___wmul@product+1,f
  3814     1BB5  0873               	movf	___wmul@multiplicand+1,w
  3815     1BB6  07F5               	addwf	___wmul@product+1,f
  3816     1BB7                     l206:
  3817     1BB7  3001               	movlw	1
  3818     1BB8                     u2965:
  3819     1BB8  1003               	clrc
  3820     1BB9  0DF2               	rlf	___wmul@multiplicand,f
  3821     1BBA  0DF3               	rlf	___wmul@multiplicand+1,f
  3822     1BBB  3EFF               	addlw	-1
  3823     1BBC  1D03               	skipz
  3824     1BBD  2BB8               	goto	u2965
  3825     1BBE                     l2397:
  3826     1BBE  3001               	movlw	1
  3827     1BBF                     u2975:
  3828     1BBF  1003               	clrc
  3829     1BC0  0CF1               	rrf	___wmul@multiplier+1,f
  3830     1BC1  0CF0               	rrf	___wmul@multiplier,f
  3831     1BC2  3EFF               	addlw	-1
  3832     1BC3  1D03               	skipz
  3833     1BC4  2BBF               	goto	u2975
  3834     1BC5                     l2399:
  3835     1BC5  0870               	movf	___wmul@multiplier,w
  3836     1BC6  0471               	iorwf	___wmul@multiplier+1,w
  3837     1BC7  1D03               	btfss	3,2
  3838     1BC8  2BCA               	goto	u2981
  3839     1BC9  2BCB               	goto	u2980
  3840     1BCA                     u2981:
  3841     1BCA  2BAD               	goto	l2393
  3842     1BCB                     u2980:
  3843     1BCB                     l2401:
  3844     1BCB  0875               	movf	___wmul@product+1,w
  3845     1BCC  00F1               	movwf	?___wmul+1
  3846     1BCD  0874               	movf	___wmul@product,w
  3847     1BCE  00F0               	movwf	?___wmul
  3848     1BCF                     l208:
  3849     1BCF  0008               	return
  3850     1BD0                     __end_of___wmul:
  3851                           
  3852                           	psect	text8
  3853     11DB                     __ptext8:	
  3854 ;; *************** function _efgtoa *****************
  3855 ;; Defined at:
  3856 ;;		line 587 in file "D:\Program Files\Microchip\xc8\v3.00\pic\sources\c99\common\doprnt.c"
  3857 ;; Parameters:    Size  Location     Type
  3858 ;;  fp              2   33[BANK0 ] PTR struct _IO_FILE
  3859 ;;		 -> sprintf@f(11), 
  3860 ;;  f               4   35[BANK0 ] PTR struct _IO_FILE
  3861 ;;  c               1   39[BANK0 ] unsigned char 
  3862 ;; Auto vars:     Size  Location     Type
  3863 ;;  u               4   40[BANK1 ] struct flui
  3864 ;;  g               4   36[BANK1 ] struct flui
  3865 ;;  l               4   29[BANK1 ] struct flui
  3866 ;;  h               4   25[BANK1 ] struct flui
  3867 ;;  ou              4   19[BANK1 ] struct flui
  3868 ;;  n               2   34[BANK1 ] int 
  3869 ;;  i               2   23[BANK1 ] int 
  3870 ;;  w               2   17[BANK1 ] int 
  3871 ;;  e               2   15[BANK1 ] int 
  3872 ;;  m               2   13[BANK1 ] int 
  3873 ;;  d               2   11[BANK1 ] int 
  3874 ;;  t               2    4[BANK1 ] int 
  3875 ;;  p               2    2[BANK1 ] int 
  3876 ;;  ne              2    0[BANK1 ] int 
  3877 ;;  sign            1   33[BANK1 ] unsigned char 
  3878 ;;  nmode           1   10[BANK1 ] unsigned char 
  3879 ;;  mode            1    9[BANK1 ] unsigned char 
  3880 ;;  pp              1    8[BANK1 ] unsigned char 
  3881 ;;  esign           1    0        unsigned char 
  3882 ;; Return value:  Size  Location     Type
  3883 ;;                  1    wreg      void 
  3884 ;; Registers used:
  3885 ;;		wreg, fsr0l, fsr0h, status,2, status,0, btemp+1, pclath, cstack
  3886 ;; Tracked objects:
  3887 ;;		On entry : 0/0
  3888 ;;		On exit  : 0/0
  3889 ;;		Unchanged: 0/0
  3890 ;; Data sizes:     COMMON   BANK0   BANK1   BANK3   BANK2
  3891 ;;      Params:         0       7       0       0       0
  3892 ;;      Locals:         0       0      44       0       0
  3893 ;;      Temps:          0       4       0       0       0
  3894 ;;      Totals:         0      11      44       0       0
  3895 ;;Total ram usage:       55 bytes
  3896 ;; Hardware stack levels used: 1
  3897 ;; Hardware stack levels required when called: 4
  3898 ;; This function calls:
  3899 ;;		___fladd
  3900 ;;		___fldiv
  3901 ;;		___fleq
  3902 ;;		___flge
  3903 ;;		___flmul
  3904 ;;		___flneg
  3905 ;;		___flsub
  3906 ;;		___fltol
  3907 ;;		___fpclassifyf
  3908 ;;		_floorf
  3909 ;;		_labs
  3910 ;;		_memcpy
  3911 ;;		_pad
  3912 ;;		_strcpy
  3913 ;; This function is called by:
  3914 ;;		_vfpfcnvrt
  3915 ;; This function uses a non-reentrant model
  3916 ;;
  3917                           
  3918     11DB                     _efgtoa:	
  3919                           ;psect for function _efgtoa
  3920                           
  3921     11DB                     l2859:	
  3922                           ;incstack = 0
  3923 ;; hardware stack exceeded
  3924                           ; Regs used in _efgtoa: [wreg-fsr0h+status,2+status,0+btemp+1+pclath+cstack]
  3925                           
  3926                           
  3927                           ;D:\Program Files\Microchip\xc8\v3.00\pic\sources\c99\common\doprnt.c: 587: static void 
      +                          efgtoa(FILE *fp, long double f, char c);D:\Program Files\Microchip\xc8\v3.00\pic\sources
      +                          \c99\common\doprnt.c: 588: {;D:\Program Files\Microchip\xc8\v3.00\pic\sources\c99\common
      +                          \doprnt.c: 589:     char mode, nmode, pp, sign, esign;;D:\Program Files\Microchip\xc8\v3
      +                          .00\pic\sources\c99\common\doprnt.c: 590:     int d, e, i, m, n, ne, p, t, w;;D:\Program
      +                           Files\Microchip\xc8\v3.00\pic\sources\c99\common\doprnt.c: 591:     long double h, l;
  3928     11DB  1683               	bsf	3,5	;RP0=1, select bank1
  3929     11DC  1303               	bcf	3,6	;RP1=0, select bank1
  3930     11DD  01C1               	clrf	efgtoa@sign^(0+128)
  3931     11DE                     l2861:
  3932                           
  3933                           ;D:\Program Files\Microchip\xc8\v3.00\pic\sources\c99\common\doprnt.c: 596:     g.f = f;
  3934     11DE  1283               	bcf	3,5	;RP0=0, select bank0
  3935     11DF  1303               	bcf	3,6	;RP1=0, select bank0
  3936     11E0  0846               	movf	efgtoa@f+3,w
  3937     11E1  1683               	bsf	3,5	;RP0=1, select bank1
  3938     11E2  1303               	bcf	3,6	;RP1=0, select bank1
  3939     11E3  00C7               	movwf	(efgtoa@g+3)^(0+128)
  3940     11E4  1283               	bcf	3,5	;RP0=0, select bank0
  3941     11E5  1303               	bcf	3,6	;RP1=0, select bank0
  3942     11E6  0845               	movf	efgtoa@f+2,w
  3943     11E7  1683               	bsf	3,5	;RP0=1, select bank1
  3944     11E8  1303               	bcf	3,6	;RP1=0, select bank1
  3945     11E9  00C6               	movwf	(efgtoa@g+2)^(0+128)
  3946     11EA  1283               	bcf	3,5	;RP0=0, select bank0
  3947     11EB  1303               	bcf	3,6	;RP1=0, select bank0
  3948     11EC  0844               	movf	efgtoa@f+1,w
  3949     11ED  1683               	bsf	3,5	;RP0=1, select bank1
  3950     11EE  1303               	bcf	3,6	;RP1=0, select bank1
  3951     11EF  00C5               	movwf	(efgtoa@g+1)^(0+128)
  3952     11F0  1283               	bcf	3,5	;RP0=0, select bank0
  3953     11F1  1303               	bcf	3,6	;RP1=0, select bank0
  3954     11F2  0843               	movf	efgtoa@f,w
  3955     11F3  1683               	bsf	3,5	;RP0=1, select bank1
  3956     11F4  1303               	bcf	3,6	;RP1=0, select bank1
  3957     11F5  00C4               	movwf	efgtoa@g^(0+128)
  3958     11F6                     l2863:
  3959                           
  3960                           ;D:\Program Files\Microchip\xc8\v3.00\pic\sources\c99\common\doprnt.c: 597:     if (g.f 
      +                          < 0.0) {
  3961     11F6  0847               	movf	(efgtoa@g+3)^(0+128),w
  3962     11F7  1283               	bcf	3,5	;RP0=0, select bank0
  3963     11F8  1303               	bcf	3,6	;RP1=0, select bank0
  3964     11F9  00B8               	movwf	___flge@ff1+3
  3965     11FA  1683               	bsf	3,5	;RP0=1, select bank1
  3966     11FB  1303               	bcf	3,6	;RP1=0, select bank1
  3967     11FC  0846               	movf	(efgtoa@g+2)^(0+128),w
  3968     11FD  1283               	bcf	3,5	;RP0=0, select bank0
  3969     11FE  1303               	bcf	3,6	;RP1=0, select bank0
  3970     11FF  00B7               	movwf	___flge@ff1+2
  3971     1200  1683               	bsf	3,5	;RP0=1, select bank1
  3972     1201  1303               	bcf	3,6	;RP1=0, select bank1
  3973     1202  0845               	movf	(efgtoa@g+1)^(0+128),w
  3974     1203  1283               	bcf	3,5	;RP0=0, select bank0
  3975     1204  1303               	bcf	3,6	;RP1=0, select bank0
  3976     1205  00B6               	movwf	___flge@ff1+1
  3977     1206  1683               	bsf	3,5	;RP0=1, select bank1
  3978     1207  1303               	bcf	3,6	;RP1=0, select bank1
  3979     1208  0844               	movf	efgtoa@g^(0+128),w
  3980     1209  1283               	bcf	3,5	;RP0=0, select bank0
  3981     120A  1303               	bcf	3,6	;RP1=0, select bank0
  3982     120B  00B5               	movwf	___flge@ff1
  3983     120C  3000               	movlw	0
  3984     120D  00BC               	movwf	___flge@ff2+3
  3985     120E  3000               	movlw	0
  3986     120F  00BB               	movwf	___flge@ff2+2
  3987     1210  3000               	movlw	0
  3988     1211  00BA               	movwf	___flge@ff2+1
  3989     1212  3000               	movlw	0
  3990     1213  00B9               	movwf	___flge@ff2
  3991     1214  120A  118A  200C  160A  118A  	fcall	___flge
  3992     1219  1803               	btfsc	3,0
  3993     121A  2A1C               	goto	u4121
  3994     121B  2A1D               	goto	u4120
  3995     121C                     u4121:
  3996     121C  2A38               	goto	l2869
  3997     121D                     u4120:
  3998     121D                     l2865:
  3999                           
  4000                           ;D:\Program Files\Microchip\xc8\v3.00\pic\sources\c99\common\doprnt.c: 598:         sign
      +                           = 1;
  4001     121D  3001               	movlw	1
  4002     121E  1683               	bsf	3,5	;RP0=1, select bank1
  4003     121F  1303               	bcf	3,6	;RP1=0, select bank1
  4004     1220  00C1               	movwf	efgtoa@sign^(0+128)
  4005     1221                     l2867:
  4006                           
  4007                           ;D:\Program Files\Microchip\xc8\v3.00\pic\sources\c99\common\doprnt.c: 599:         g.f 
      +                          = -g.f;
  4008     1221  0847               	movf	(efgtoa@g+3)^(0+128),w
  4009     1222  00F3               	movwf	___flneg@f1+3
  4010     1223  0846               	movf	(efgtoa@g+2)^(0+128),w
  4011     1224  00F2               	movwf	___flneg@f1+2
  4012     1225  0845               	movf	(efgtoa@g+1)^(0+128),w
  4013     1226  00F1               	movwf	___flneg@f1+1
  4014     1227  0844               	movf	efgtoa@g^(0+128),w
  4015     1228  00F0               	movwf	___flneg@f1
  4016     1229  160A  158A  22E5  160A  118A  	fcall	___flneg
  4017     122E  0873               	movf	?___flneg+3,w
  4018     122F  1683               	bsf	3,5	;RP0=1, select bank1
  4019     1230  1303               	bcf	3,6	;RP1=0, select bank1
  4020     1231  00C7               	movwf	(efgtoa@g+3)^(0+128)
  4021     1232  0872               	movf	?___flneg+2,w
  4022     1233  00C6               	movwf	(efgtoa@g+2)^(0+128)
  4023     1234  0871               	movf	?___flneg+1,w
  4024     1235  00C5               	movwf	(efgtoa@g+1)^(0+128)
  4025     1236  0870               	movf	?___flneg,w
  4026     1237  00C4               	movwf	efgtoa@g^(0+128)
  4027     1238                     l2869:
  4028                           
  4029                           ;D:\Program Files\Microchip\xc8\v3.00\pic\sources\c99\common\doprnt.c: 603:     n = 0;
  4030     1238  1683               	bsf	3,5	;RP0=1, select bank1
  4031     1239  1303               	bcf	3,6	;RP1=0, select bank1
  4032     123A  01C2               	clrf	efgtoa@n^(0+128)
  4033     123B  01C3               	clrf	(efgtoa@n+1)^(0+128)
  4034     123C                     l2871:
  4035                           
  4036                           ;D:\Program Files\Microchip\xc8\v3.00\pic\sources\c99\common\doprnt.c: 604:     w = widt
      +                          h;
  4037     123C  1283               	bcf	3,5	;RP0=0, select bank0
  4038     123D  1303               	bcf	3,6	;RP1=0, select bank0
  4039     123E  0867               	movf	_width+1,w
  4040     123F  1683               	bsf	3,5	;RP0=1, select bank1
  4041     1240  1303               	bcf	3,6	;RP1=0, select bank1
  4042     1241  00B2               	movwf	(efgtoa@w+1)^(0+128)
  4043     1242  1283               	bcf	3,5	;RP0=0, select bank0
  4044     1243  1303               	bcf	3,6	;RP1=0, select bank0
  4045     1244  0866               	movf	_width,w
  4046     1245  1683               	bsf	3,5	;RP0=1, select bank1
  4047     1246  1303               	bcf	3,6	;RP1=0, select bank1
  4048     1247  00B1               	movwf	efgtoa@w^(0+128)
  4049     1248                     l2873:
  4050                           
  4051                           ;D:\Program Files\Microchip\xc8\v3.00\pic\sources\c99\common\doprnt.c: 605:     if (sign
  4052     1248  0841               	movf	efgtoa@sign^(0+128),w
  4053     1249  1903               	btfsc	3,2
  4054     124A  2A4C               	goto	u4131
  4055     124B  2A4D               	goto	u4130
  4056     124C                     u4131:
  4057     124C  2A5D               	goto	l2881
  4058     124D                     u4130:
  4059     124D                     l2875:
  4060                           
  4061                           ;D:\Program Files\Microchip\xc8\v3.00\pic\sources\c99\common\doprnt.c: 609:    ) {;D:\Pr
      +                          ogram Files\Microchip\xc8\v3.00\pic\sources\c99\common\doprnt.c: 610:   sign = sign ? '-
      +                          ' : '+';
  4062     124D  0841               	movf	efgtoa@sign^(0+128),w
  4063     124E  1D03               	btfss	3,2
  4064     124F  2A51               	goto	u4141
  4065     1250  2A52               	goto	u4140
  4066     1251                     u4141:
  4067     1251  2A57               	goto	l2879
  4068     1252                     u4140:
  4069     1252                     l2877:
  4070     1252  302B               	movlw	43
  4071     1253  00A6               	movwf	_efgtoa$670^(0+128)
  4072     1254  3000               	movlw	0
  4073     1255  00A7               	movwf	(_efgtoa$670^(0+128)+1)
  4074     1256  2A5B               	goto	l708
  4075     1257                     l2879:
  4076     1257  302D               	movlw	45
  4077     1258  00A6               	movwf	_efgtoa$670^(0+128)
  4078     1259  3000               	movlw	0
  4079     125A  00A7               	movwf	(_efgtoa$670^(0+128)+1)
  4080     125B                     l708:
  4081     125B  0826               	movf	_efgtoa$670^(0+128),w
  4082     125C  00C1               	movwf	efgtoa@sign^(0+128)
  4083     125D                     l2881:
  4084                           
  4085                           ;D:\Program Files\Microchip\xc8\v3.00\pic\sources\c99\common\doprnt.c: 619:     if (( __
      +                          fpclassifyf(g.f) == 1 )) {
  4086     125D  0847               	movf	(efgtoa@g+3)^(0+128),w
  4087     125E  00F3               	movwf	___fpclassifyf@x+3
  4088     125F  0846               	movf	(efgtoa@g+2)^(0+128),w
  4089     1260  00F2               	movwf	___fpclassifyf@x+2
  4090     1261  0845               	movf	(efgtoa@g+1)^(0+128),w
  4091     1262  00F1               	movwf	___fpclassifyf@x+1
  4092     1263  0844               	movf	efgtoa@g^(0+128),w
  4093     1264  00F0               	movwf	___fpclassifyf@x
  4094     1265  160A  158A  25DE  160A  118A  	fcall	___fpclassifyf
  4095     126A  0370               	decf	?___fpclassifyf,w
  4096     126B  0471               	iorwf	?___fpclassifyf+1,w
  4097     126C  1D03               	btfss	3,2
  4098     126D  2A6F               	goto	u4151
  4099     126E  2A70               	goto	u4150
  4100     126F                     u4151:
  4101     126F  2AB5               	goto	l2895
  4102     1270                     u4150:
  4103     1270                     l2883:
  4104                           
  4105                           ;D:\Program Files\Microchip\xc8\v3.00\pic\sources\c99\common\doprnt.c: 620:   if (sign) 
      +                          {
  4106     1270  1683               	bsf	3,5	;RP0=1, select bank1
  4107     1271  1303               	bcf	3,6	;RP1=0, select bank1
  4108     1272  0841               	movf	efgtoa@sign^(0+128),w
  4109     1273  1903               	btfsc	3,2
  4110     1274  2A76               	goto	u4161
  4111     1275  2A77               	goto	u4160
  4112     1276                     u4161:
  4113     1276  2A87               	goto	l2887
  4114     1277                     u4160:
  4115     1277                     l2885:
  4116                           
  4117                           ;D:\Program Files\Microchip\xc8\v3.00\pic\sources\c99\common\doprnt.c: 621:    dbuf[0] =
      +                           sign;
  4118     1277  0841               	movf	efgtoa@sign^(0+128),w
  4119     1278  1283               	bcf	3,5	;RP0=0, select bank2
  4120     1279  1703               	bsf	3,6	;RP1=1, select bank2
  4121     127A  0090               	movwf	_dbuf^(0+256)
  4122                           
  4123                           ;D:\Program Files\Microchip\xc8\v3.00\pic\sources\c99\common\doprnt.c: 622:    w--;
  4124     127B  30FF               	movlw	255
  4125     127C  1683               	bsf	3,5	;RP0=1, select bank1
  4126     127D  1303               	bcf	3,6	;RP1=0, select bank1
  4127     127E  07B1               	addwf	efgtoa@w^(0+128),f
  4128     127F  1803               	skipnc
  4129     1280  0AB2               	incf	(efgtoa@w+1)^(0+128),f
  4130     1281  30FF               	movlw	255
  4131     1282  07B2               	addwf	(efgtoa@w+1)^(0+128),f
  4132                           
  4133                           ;D:\Program Files\Microchip\xc8\v3.00\pic\sources\c99\common\doprnt.c: 623:    n = 1;
  4134     1283  3001               	movlw	1
  4135     1284  00C2               	movwf	efgtoa@n^(0+128)
  4136     1285  3000               	movlw	0
  4137     1286  00C3               	movwf	(efgtoa@n^(0+128)+1)
  4138     1287                     l2887:
  4139                           
  4140                           ;D:\Program Files\Microchip\xc8\v3.00\pic\sources\c99\common\doprnt.c: 631:   {;D:\Progr
      +                          am Files\Microchip\xc8\v3.00\pic\sources\c99\common\doprnt.c: 632:             strcpy(&d
      +                          buf[n], "inf");
  4141     1287  0842               	movf	efgtoa@n^(0+128),w
  4142     1288  3E10               	addlw	(low (_dbuf| (0+256)))& (0+255)
  4143     1289  00F0               	movwf	strcpy@dest
  4144     128A  3006               	movlw	(low ((STR_5-__stringbase)| (0+32768)))& (0+255)
  4145     128B  00F1               	movwf	strcpy@src
  4146     128C  160A  158A  2331  160A  118A  	fcall	_strcpy
  4147     1291                     l2889:
  4148                           
  4149                           ;D:\Program Files\Microchip\xc8\v3.00\pic\sources\c99\common\doprnt.c: 633:         };D:
      +                          \Program Files\Microchip\xc8\v3.00\pic\sources\c99\common\doprnt.c: 634:         w -= ((
      +                          sizeof("inf")/sizeof("inf"[0]))-1);
  4150     1291  30FD               	movlw	253
  4151     1292  1683               	bsf	3,5	;RP0=1, select bank1
  4152     1293  1303               	bcf	3,6	;RP1=0, select bank1
  4153     1294  07B1               	addwf	efgtoa@w^(0+128),f
  4154     1295  1803               	skipnc
  4155     1296  0AB2               	incf	(efgtoa@w+1)^(0+128),f
  4156     1297  30FF               	movlw	255
  4157     1298  07B2               	addwf	(efgtoa@w+1)^(0+128),f
  4158     1299                     l2891:
  4159                           
  4160                           ;D:\Program Files\Microchip\xc8\v3.00\pic\sources\c99\common\doprnt.c: 635:         retu
      +                          rn (void) pad(fp, &dbuf[0], w);
  4161     1299  1283               	bcf	3,5	;RP0=0, select bank0
  4162     129A  1303               	bcf	3,6	;RP1=0, select bank0
  4163     129B  0841               	movf	efgtoa@fp,w
  4164     129C  00A8               	movwf	pad@fp
  4165     129D  0842               	movf	efgtoa@fp+1,w
  4166     129E  00A9               	movwf	pad@fp+1
  4167     129F  3010               	movlw	(low (_dbuf| (0+256)))& (0+255)
  4168     12A0  00AA               	movwf	pad@buf
  4169     12A1  1683               	bsf	3,5	;RP0=1, select bank1
  4170     12A2  1303               	bcf	3,6	;RP1=0, select bank1
  4171     12A3  0832               	movf	(efgtoa@w+1)^(0+128),w
  4172     12A4  1283               	bcf	3,5	;RP0=0, select bank0
  4173     12A5  1303               	bcf	3,6	;RP1=0, select bank0
  4174     12A6  00AC               	movwf	pad@p+1
  4175     12A7  1683               	bsf	3,5	;RP0=1, select bank1
  4176     12A8  1303               	bcf	3,6	;RP1=0, select bank1
  4177     12A9  0831               	movf	efgtoa@w^(0+128),w
  4178     12AA  1283               	bcf	3,5	;RP0=0, select bank0
  4179     12AB  1303               	bcf	3,6	;RP1=0, select bank0
  4180     12AC  00AB               	movwf	pad@p
  4181     12AD  160A  158A  244B  160A  118A  	fcall	_pad
  4182     12B2  120A  118A  2FC2   	goto	l711
  4183     12B5                     l2895:
  4184                           
  4185                           ;D:\Program Files\Microchip\xc8\v3.00\pic\sources\c99\common\doprnt.c: 637:     if (( __
      +                          fpclassifyf(g.f) == 0 )) {
  4186     12B5  1683               	bsf	3,5	;RP0=1, select bank1
  4187     12B6  1303               	bcf	3,6	;RP1=0, select bank1
  4188     12B7  0847               	movf	(efgtoa@g+3)^(0+128),w
  4189     12B8  00F3               	movwf	___fpclassifyf@x+3
  4190     12B9  0846               	movf	(efgtoa@g+2)^(0+128),w
  4191     12BA  00F2               	movwf	___fpclassifyf@x+2
  4192     12BB  0845               	movf	(efgtoa@g+1)^(0+128),w
  4193     12BC  00F1               	movwf	___fpclassifyf@x+1
  4194     12BD  0844               	movf	efgtoa@g^(0+128),w
  4195     12BE  00F0               	movwf	___fpclassifyf@x
  4196     12BF  160A  158A  25DE  160A  118A  	fcall	___fpclassifyf
  4197     12C4  0870               	movf	?___fpclassifyf,w
  4198     12C5  0471               	iorwf	?___fpclassifyf+1,w
  4199     12C6  1D03               	btfss	3,2
  4200     12C7  2AC9               	goto	u4171
  4201     12C8  2ACC               	goto	u4170
  4202     12C9                     u4171:
  4203     12C9  120A  118A  28B0   	goto	l2909
  4204     12CC                     u4170:
  4205     12CC                     l2897:
  4206                           
  4207                           ;D:\Program Files\Microchip\xc8\v3.00\pic\sources\c99\common\doprnt.c: 638:   if (sign) 
      +                          {
  4208     12CC  1683               	bsf	3,5	;RP0=1, select bank1
  4209     12CD  1303               	bcf	3,6	;RP1=0, select bank1
  4210     12CE  0841               	movf	efgtoa@sign^(0+128),w
  4211     12CF  1903               	btfsc	3,2
  4212     12D0  2AD2               	goto	u4181
  4213     12D1  2AD3               	goto	u4180
  4214     12D2                     u4181:
  4215     12D2  2AE3               	goto	l2901
  4216     12D3                     u4180:
  4217     12D3                     l2899:
  4218                           
  4219                           ;D:\Program Files\Microchip\xc8\v3.00\pic\sources\c99\common\doprnt.c: 639:    dbuf[0] =
      +                           sign;
  4220     12D3  0841               	movf	efgtoa@sign^(0+128),w
  4221     12D4  1283               	bcf	3,5	;RP0=0, select bank2
  4222     12D5  1703               	bsf	3,6	;RP1=1, select bank2
  4223     12D6  0090               	movwf	_dbuf^(0+256)
  4224                           
  4225                           ;D:\Program Files\Microchip\xc8\v3.00\pic\sources\c99\common\doprnt.c: 640:    w--;
  4226     12D7  30FF               	movlw	255
  4227     12D8  1683               	bsf	3,5	;RP0=1, select bank1
  4228     12D9  1303               	bcf	3,6	;RP1=0, select bank1
  4229     12DA  07B1               	addwf	efgtoa@w^(0+128),f
  4230     12DB  1803               	skipnc
  4231     12DC  0AB2               	incf	(efgtoa@w+1)^(0+128),f
  4232     12DD  30FF               	movlw	255
  4233     12DE  07B2               	addwf	(efgtoa@w+1)^(0+128),f
  4234                           
  4235                           ;D:\Program Files\Microchip\xc8\v3.00\pic\sources\c99\common\doprnt.c: 641:    n = 1;
  4236     12DF  3001               	movlw	1
  4237     12E0  00C2               	movwf	efgtoa@n^(0+128)
  4238     12E1  3000               	movlw	0
  4239     12E2  00C3               	movwf	(efgtoa@n^(0+128)+1)
  4240     12E3                     l2901:
  4241                           
  4242                           ;D:\Program Files\Microchip\xc8\v3.00\pic\sources\c99\common\doprnt.c: 649:   {;D:\Progr
      +                          am Files\Microchip\xc8\v3.00\pic\sources\c99\common\doprnt.c: 650:             strcpy(&d
      +                          buf[n], "nan");
  4243     12E3  0842               	movf	efgtoa@n^(0+128),w
  4244     12E4  3E10               	addlw	(low (_dbuf| (0+256)))& (0+255)
  4245     12E5  00F0               	movwf	strcpy@dest
  4246     12E6  300A               	movlw	(low ((STR_8-__stringbase)| (0+32768)))& (0+255)
  4247     12E7  00F1               	movwf	strcpy@src
  4248     12E8  160A  158A  2331  160A  118A  	fcall	_strcpy
  4249     12ED  2A91               	goto	l2889
  4250                           
  4251                           	psect	text9
  4252     1B31                     __ptext9:	
  4253 ;; *************** function _strcpy *****************
  4254 ;; Defined at:
  4255 ;;		line 3 in file "D:\Program Files\Microchip\xc8\v3.00\pic\sources\c99\common\strcpy.c"
  4256 ;; Parameters:    Size  Location     Type
  4257 ;;  dest            1    0[COMMON] PTR unsigned char 
  4258 ;;		 -> dbuf(80), 
  4259 ;;  src             1    1[COMMON] PTR const unsigned char 
  4260 ;;		 -> STR_8(4), STR_5(4), 
  4261 ;; Auto vars:     Size  Location     Type
  4262 ;;  d               1    2[COMMON] PTR unsigned char 
  4263 ;;		 -> dbuf(80), 
  4264 ;; Return value:  Size  Location     Type
  4265 ;;                  1    0[COMMON] PTR unsigned char 
  4266 ;; Registers used:
  4267 ;;		wreg, fsr0l, fsr0h, status,2, status,0, btemp+1, pclath
  4268 ;; Tracked objects:
  4269 ;;		On entry : 0/0
  4270 ;;		On exit  : 0/0
  4271 ;;		Unchanged: 0/0
  4272 ;; Data sizes:     COMMON   BANK0   BANK1   BANK3   BANK2
  4273 ;;      Params:         2       0       0       0       0
  4274 ;;      Locals:         1       0       0       0       0
  4275 ;;      Temps:          0       0       0       0       0
  4276 ;;      Totals:         3       0       0       0       0
  4277 ;;Total ram usage:        3 bytes
  4278 ;; Hardware stack levels used: 2
  4279 ;; This function calls:
  4280 ;;		Nothing
  4281 ;; This function is called by:
  4282 ;;		_efgtoa
  4283 ;; This function uses a non-reentrant model
  4284 ;;
  4285                           
  4286     1B31                     _strcpy:	
  4287                           ;psect for function _strcpy
  4288                           
  4289     1B31                     l2809:	
  4290                           ;incstack = 0
  4291                           ; Regs used in _strcpy: [wreg-fsr0h+status,2+status,0+btemp+1+pclath]
  4292                           
  4293     1B31  0870               	movf	strcpy@dest,w
  4294     1B32  00F2               	movwf	strcpy@d
  4295     1B33                     l2811:
  4296     1B33  3001               	movlw	1
  4297     1B34  07F1               	addwf	strcpy@src,f
  4298     1B35  30FF               	movlw	-1
  4299     1B36  0771               	addwf	strcpy@src,w
  4300     1B37  0084               	movwf	4
  4301     1B38  160A  158A  2000  160A  158A  	fcall	stringdir
  4302     1B3D  00FF               	movwf	btemp+1
  4303     1B3E  0872               	movf	strcpy@d,w
  4304     1B3F  0AF2               	incf	strcpy@d,f
  4305     1B40  0084               	movwf	4
  4306     1B41  087F               	movf	btemp+1,w
  4307     1B42  1783               	bsf	3,7	;select IRP bank2
  4308     1B43  0080               	movwf	0
  4309     1B44  0800               	movf	0,w
  4310     1B45  1D03               	btfss	3,2
  4311     1B46  2B48               	goto	u3971
  4312     1B47  2B49               	goto	u3970
  4313     1B48                     u3971:
  4314     1B48  2B33               	goto	l2811
  4315     1B49                     u3970:
  4316     1B49                     l853:
  4317     1B49  0008               	return
  4318     1B4A                     __end_of_strcpy:
  4319                           
  4320                           	psect	text10
  4321     1C4B                     __ptext10:	
  4322 ;; *************** function _pad *****************
  4323 ;; Defined at:
  4324 ;;		line 193 in file "D:\Program Files\Microchip\xc8\v3.00\pic\sources\c99\common\doprnt.c"
  4325 ;; Parameters:    Size  Location     Type
  4326 ;;  fp              2    8[BANK0 ] PTR struct _IO_FILE
  4327 ;;		 -> sprintf@f(11), 
  4328 ;;  buf             1   10[BANK0 ] PTR unsigned char 
  4329 ;;		 -> dbuf(80), 
  4330 ;;  p               2   11[BANK0 ] int 
  4331 ;; Auto vars:     Size  Location     Type
  4332 ;;  i               2   13[BANK0 ] int 
  4333 ;; Return value:  Size  Location     Type
  4334 ;;                  1    wreg      void 
  4335 ;; Registers used:
  4336 ;;		wreg, fsr0l, fsr0h, status,2, status,0, pclath, cstack
  4337 ;; Tracked objects:
  4338 ;;		On entry : 0/0
  4339 ;;		On exit  : 0/0
  4340 ;;		Unchanged: 0/0
  4341 ;; Data sizes:     COMMON   BANK0   BANK1   BANK3   BANK2
  4342 ;;      Params:         0       5       0       0       0
  4343 ;;      Locals:         0       2       0       0       0
  4344 ;;      Temps:          1       0       0       0       0
  4345 ;;      Totals:         1       7       0       0       0
  4346 ;;Total ram usage:        8 bytes
  4347 ;; Hardware stack levels used: 1
  4348 ;; Hardware stack levels required when called: 3
  4349 ;; This function calls:
  4350 ;;		_fputc
  4351 ;;		_fputs
  4352 ;; This function is called by:
  4353 ;;		_efgtoa
  4354 ;; This function uses a non-reentrant model
  4355 ;;
  4356                           
  4357     1C4B                     _pad:	
  4358                           ;psect for function _pad
  4359                           
  4360     1C4B                     l2773:	
  4361                           ;incstack = 0
  4362 ;; hardware stack exceeded
  4363                           ; Regs used in _pad: [wreg-fsr0h+status,2+status,0+pclath+cstack]
  4364                           
  4365                           
  4366                           ;D:\Program Files\Microchip\xc8\v3.00\pic\sources\c99\common\doprnt.c: 193: static void 
      +                          pad(FILE *fp, char *buf, int p);D:\Program Files\Microchip\xc8\v3.00\pic\sources\c99\com
      +                          mon\doprnt.c: 194: {;D:\Program Files\Microchip\xc8\v3.00\pic\sources\c99\common\doprnt.
      +                          c: 195:     int i;;D:\Program Files\Microchip\xc8\v3.00\pic\sources\c99\common\doprnt.c:
      +                           205:  if (p < 0) {
  4367     1C4B  1283               	bcf	3,5	;RP0=0, select bank0
  4368     1C4C  1303               	bcf	3,6	;RP1=0, select bank0
  4369     1C4D  1FAC               	btfss	pad@p+1,7
  4370     1C4E  2C50               	goto	u3871
  4371     1C4F  2C51               	goto	u3870
  4372     1C50                     u3871:
  4373     1C50  2C53               	goto	l696
  4374     1C51                     u3870:
  4375     1C51                     l2775:
  4376                           
  4377                           ;D:\Program Files\Microchip\xc8\v3.00\pic\sources\c99\common\doprnt.c: 206:   p = 0;
  4378     1C51  01AB               	clrf	pad@p
  4379     1C52  01AC               	clrf	pad@p+1
  4380     1C53                     l696:	
  4381                           ;D:\Program Files\Microchip\xc8\v3.00\pic\sources\c99\common\doprnt.c: 207:  }
  4382                           
  4383                           
  4384                           ;D:\Program Files\Microchip\xc8\v3.00\pic\sources\c99\common\doprnt.c: 208:     i = 0;
  4385     1C53  01AD               	clrf	pad@i
  4386     1C54  01AE               	clrf	pad@i+1
  4387                           
  4388                           ;D:\Program Files\Microchip\xc8\v3.00\pic\sources\c99\common\doprnt.c: 209:     while (i
      +                           < p) {
  4389     1C55  2C6D               	goto	l2781
  4390     1C56                     l2777:
  4391                           
  4392                           ;D:\Program Files\Microchip\xc8\v3.00\pic\sources\c99\common\doprnt.c: 210:         fput
      +                          c(' ', fp);
  4393     1C56  3020               	movlw	32
  4394     1C57  00F0               	movwf	fputc@c
  4395     1C58  3000               	movlw	0
  4396     1C59  00F1               	movwf	fputc@c+1
  4397     1C5A  1283               	bcf	3,5	;RP0=0, select bank0
  4398     1C5B  1303               	bcf	3,6	;RP1=0, select bank0
  4399     1C5C  0828               	movf	pad@fp,w
  4400     1C5D  00F2               	movwf	fputc@fp
  4401     1C5E  0829               	movf	pad@fp+1,w
  4402     1C5F  00F3               	movwf	fputc@fp+1
  4403     1C60  160A  158A  265D  160A  158A  	fcall	_fputc
  4404     1C65                     l2779:
  4405                           
  4406                           ;D:\Program Files\Microchip\xc8\v3.00\pic\sources\c99\common\doprnt.c: 211:         ++i;
  4407     1C65  3001               	movlw	1
  4408     1C66  1283               	bcf	3,5	;RP0=0, select bank0
  4409     1C67  1303               	bcf	3,6	;RP1=0, select bank0
  4410     1C68  07AD               	addwf	pad@i,f
  4411     1C69  1803               	skipnc
  4412     1C6A  0AAE               	incf	pad@i+1,f
  4413     1C6B  3000               	movlw	0
  4414     1C6C  07AE               	addwf	pad@i+1,f
  4415     1C6D                     l2781:
  4416                           
  4417                           ;D:\Program Files\Microchip\xc8\v3.00\pic\sources\c99\common\doprnt.c: 209:     while (i
      +                           < p) {
  4418     1C6D  082E               	movf	pad@i+1,w
  4419     1C6E  3A80               	xorlw	128
  4420     1C6F  00FD               	movwf	??_pad
  4421     1C70  082C               	movf	pad@p+1,w
  4422     1C71  3A80               	xorlw	128
  4423     1C72  027D               	subwf	??_pad,w
  4424     1C73  1D03               	skipz
  4425     1C74  2C77               	goto	u3885
  4426     1C75  082B               	movf	pad@p,w
  4427     1C76  022D               	subwf	pad@i,w
  4428     1C77                     u3885:
  4429     1C77  1C03               	skipc
  4430     1C78  2C7A               	goto	u3881
  4431     1C79  2C7B               	goto	u3880
  4432     1C7A                     u3881:
  4433     1C7A  2C56               	goto	l2777
  4434     1C7B                     u3880:
  4435     1C7B                     l2783:
  4436                           
  4437                           ;D:\Program Files\Microchip\xc8\v3.00\pic\sources\c99\common\doprnt.c: 218:         fput
      +                          s((const char *)buf, fp);
  4438     1C7B  1283               	bcf	3,5	;RP0=0, select bank0
  4439     1C7C  1303               	bcf	3,6	;RP1=0, select bank0
  4440     1C7D  082A               	movf	pad@buf,w
  4441     1C7E  00A0               	movwf	fputs@s
  4442     1C7F  0828               	movf	pad@fp,w
  4443     1C80  00A1               	movwf	fputs@fp
  4444     1C81  0829               	movf	pad@fp+1,w
  4445     1C82  00A2               	movwf	fputs@fp+1
  4446     1C83  160A  158A  2420  160A  158A  	fcall	_fputs
  4447     1C88                     l700:
  4448     1C88  0008               	return
  4449     1C89                     __end_of_pad:
  4450                           
  4451                           	psect	text11
  4452     1C20                     __ptext11:	
  4453 ;; *************** function _fputs *****************
  4454 ;; Defined at:
  4455 ;;		line 8 in file "D:\Program Files\Microchip\xc8\v3.00\pic\sources\c99\common\nf_fputs.c"
  4456 ;; Parameters:    Size  Location     Type
  4457 ;;  s               1    0[BANK0 ] PTR const unsigned char 
  4458 ;;		 -> dbuf(80), 
  4459 ;;  fp              2    1[BANK0 ] PTR struct _IO_FILE
  4460 ;;		 -> sprintf@f(11), 
  4461 ;; Auto vars:     Size  Location     Type
  4462 ;;  i               2    6[BANK0 ] int 
  4463 ;;  c               1    5[BANK0 ] unsigned char 
  4464 ;; Return value:  Size  Location     Type
  4465 ;;                  2    0[BANK0 ] int 
  4466 ;; Registers used:
  4467 ;;		wreg, fsr0l, fsr0h, status,2, status,0, pclath, cstack
  4468 ;; Tracked objects:
  4469 ;;		On entry : 0/0
  4470 ;;		On exit  : 0/0
  4471 ;;		Unchanged: 0/0
  4472 ;; Data sizes:     COMMON   BANK0   BANK1   BANK3   BANK2
  4473 ;;      Params:         0       3       0       0       0
  4474 ;;      Locals:         0       3       0       0       0
  4475 ;;      Temps:          0       2       0       0       0
  4476 ;;      Totals:         0       8       0       0       0
  4477 ;;Total ram usage:        8 bytes
  4478 ;; Hardware stack levels used: 1
  4479 ;; Hardware stack levels required when called: 2
  4480 ;; This function calls:
  4481 ;;		_fputc
  4482 ;; This function is called by:
  4483 ;;		_pad
  4484 ;; This function uses a non-reentrant model
  4485 ;;
  4486                           
  4487     1C20                     _fputs:	
  4488                           ;psect for function _fputs
  4489                           
  4490     1C20                     l2383:	
  4491                           ;incstack = 0
  4492 ;; hardware stack exceeded
  4493                           ; Regs used in _fputs: [wreg-fsr0h+status,2+status,0+pclath+cstack]
  4494                           
  4495     1C20  1283               	bcf	3,5	;RP0=0, select bank0
  4496     1C21  1303               	bcf	3,6	;RP1=0, select bank0
  4497     1C22  01A6               	clrf	fputs@i
  4498     1C23  01A7               	clrf	fputs@i+1
  4499     1C24  2C3D               	goto	l2389
  4500     1C25                     l2385:
  4501     1C25  0825               	movf	fputs@c,w
  4502     1C26  00A3               	movwf	??_fputs
  4503     1C27  01A4               	clrf	??_fputs+1
  4504     1C28  0823               	movf	??_fputs,w
  4505     1C29  00F0               	movwf	fputc@c
  4506     1C2A  0824               	movf	??_fputs+1,w
  4507     1C2B  00F1               	movwf	fputc@c+1
  4508     1C2C  0821               	movf	fputs@fp,w
  4509     1C2D  00F2               	movwf	fputc@fp
  4510     1C2E  0822               	movf	fputs@fp+1,w
  4511     1C2F  00F3               	movwf	fputc@fp+1
  4512     1C30  160A  158A  265D  160A  158A  	fcall	_fputc
  4513     1C35                     l2387:
  4514     1C35  3001               	movlw	1
  4515     1C36  1283               	bcf	3,5	;RP0=0, select bank0
  4516     1C37  1303               	bcf	3,6	;RP1=0, select bank0
  4517     1C38  07A6               	addwf	fputs@i,f
  4518     1C39  1803               	skipnc
  4519     1C3A  0AA7               	incf	fputs@i+1,f
  4520     1C3B  3000               	movlw	0
  4521     1C3C  07A7               	addwf	fputs@i+1,f
  4522     1C3D                     l2389:
  4523     1C3D  0826               	movf	fputs@i,w
  4524     1C3E  0720               	addwf	fputs@s,w
  4525     1C3F  00A3               	movwf	??_fputs
  4526     1C40  0823               	movf	??_fputs,w
  4527     1C41  0084               	movwf	4
  4528     1C42  1783               	bsf	3,7	;select IRP bank2
  4529     1C43  0800               	movf	0,w
  4530     1C44  00A5               	movwf	fputs@c
  4531     1C45  0825               	movf	fputs@c,w
  4532     1C46  1D03               	btfss	3,2
  4533     1C47  2C49               	goto	u2941
  4534     1C48  2C4A               	goto	u2940
  4535     1C49                     u2941:
  4536     1C49  2C25               	goto	l2385
  4537     1C4A                     u2940:
  4538     1C4A                     l844:
  4539     1C4A  0008               	return
  4540     1C4B                     __end_of_fputs:
  4541                           
  4542                           	psect	text12
  4543     1E5D                     __ptext12:	
  4544 ;; *************** function _fputc *****************
  4545 ;; Defined at:
  4546 ;;		line 8 in file "D:\Program Files\Microchip\xc8\v3.00\pic\sources\c99\common\nf_fputc.c"
  4547 ;; Parameters:    Size  Location     Type
  4548 ;;  c               2    0[COMMON] int 
  4549 ;;  fp              2    2[COMMON] PTR struct _IO_FILE
  4550 ;;		 -> sprintf@f(11), 
  4551 ;; Auto vars:     Size  Location     Type
  4552 ;;		None
  4553 ;; Return value:  Size  Location     Type
  4554 ;;                  2    0[COMMON] int 
  4555 ;; Registers used:
  4556 ;;		wreg, fsr0l, fsr0h, status,2, status,0, pclath, cstack
  4557 ;; Tracked objects:
  4558 ;;		On entry : 0/0
  4559 ;;		On exit  : 0/0
  4560 ;;		Unchanged: 0/0
  4561 ;; Data sizes:     COMMON   BANK0   BANK1   BANK3   BANK2
  4562 ;;      Params:         4       0       0       0       0
  4563 ;;      Locals:         0       0       0       0       0
  4564 ;;      Temps:          9       0       0       0       0
  4565 ;;      Totals:        13       0       0       0       0
  4566 ;;Total ram usage:       13 bytes
  4567 ;; Hardware stack levels used: 1
  4568 ;; Hardware stack levels required when called: 1
  4569 ;; This function calls:
  4570 ;;		_putch
  4571 ;; This function is called by:
  4572 ;;		_pad
  4573 ;;		_vfpfcnvrt
  4574 ;;		_fputs
  4575 ;; This function uses a non-reentrant model
  4576 ;;
  4577                           
  4578     1E5D                     _fputc:	
  4579                           ;psect for function _fputc
  4580                           
  4581     1E5D                     l2157:	
  4582                           ;incstack = 0
  4583                           ; Regs used in _fputc: [wreg-fsr0h+status,2+status,0+pclath+cstack]
  4584                           
  4585     1E5D  0872               	movf	fputc@fp,w
  4586     1E5E  0473               	iorwf	fputc@fp+1,w
  4587     1E5F  1903               	btfsc	3,2
  4588     1E60  2E62               	goto	u2401
  4589     1E61  2E63               	goto	u2400
  4590     1E62                     u2401:
  4591     1E62  2E69               	goto	l2161
  4592     1E63                     u2400:
  4593     1E63                     l2159:
  4594     1E63  0872               	movf	fputc@fp,w
  4595     1E64  0473               	iorwf	fputc@fp+1,w
  4596     1E65  1D03               	btfss	3,2
  4597     1E66  2E68               	goto	u2411
  4598     1E67  2E69               	goto	u2410
  4599     1E68                     u2411:
  4600     1E68  2E70               	goto	l2163
  4601     1E69                     u2410:
  4602     1E69                     l2161:
  4603     1E69  0870               	movf	fputc@c,w
  4604     1E6A  120A  118A  2003  160A  158A  	fcall	_putch
  4605     1E6F  2EF6               	goto	l836
  4606     1E70                     l2163:
  4607     1E70  0872               	movf	fputc@fp,w
  4608     1E71  3E09               	addlw	9
  4609     1E72  00F4               	movwf	??_fputc
  4610     1E73  0873               	movf	fputc@fp+1,w
  4611     1E74  1803               	skipnc
  4612     1E75  3E01               	addlw	1
  4613     1E76  3E00               	addlw	0
  4614     1E77  00F5               	movwf	??_fputc+1
  4615     1E78  0874               	movf	??_fputc,w
  4616     1E79  0084               	movwf	4
  4617     1E7A  1783               	bsf	3,7
  4618     1E7B  1C75               	btfss	??_fputc+1,0
  4619     1E7C  1383               	bcf	3,7
  4620     1E7D  0800               	movf	0,w
  4621     1E7E  00F6               	movwf	??_fputc+2
  4622     1E7F  0A84               	incf	4,f
  4623     1E80  0800               	movf	0,w
  4624     1E81  00F7               	movwf	??_fputc+3
  4625     1E82  0876               	movf	??_fputc+2,w
  4626     1E83  0477               	iorwf	??_fputc+3,w
  4627     1E84  1903               	btfsc	3,2
  4628     1E85  2E87               	goto	u2421
  4629     1E86  2E88               	goto	u2420
  4630     1E87                     u2421:
  4631     1E87  2EBA               	goto	l2167
  4632     1E88                     u2420:
  4633     1E88                     l2165:
  4634     1E88  0872               	movf	fputc@fp,w
  4635     1E89  3E09               	addlw	9
  4636     1E8A  00F4               	movwf	??_fputc
  4637     1E8B  0873               	movf	fputc@fp+1,w
  4638     1E8C  1803               	skipnc
  4639     1E8D  3E01               	addlw	1
  4640     1E8E  3E00               	addlw	0
  4641     1E8F  00F5               	movwf	??_fputc+1
  4642     1E90  0874               	movf	??_fputc,w
  4643     1E91  0084               	movwf	4
  4644     1E92  1783               	bsf	3,7
  4645     1E93  1C75               	btfss	??_fputc+1,0
  4646     1E94  1383               	bcf	3,7
  4647     1E95  0800               	movf	0,w
  4648     1E96  00F6               	movwf	??_fputc+2
  4649     1E97  0A84               	incf	4,f
  4650     1E98  0800               	movf	0,w
  4651     1E99  00F7               	movwf	??_fputc+3
  4652     1E9A  0872               	movf	fputc@fp,w
  4653     1E9B  3E02               	addlw	2
  4654     1E9C  00F8               	movwf	??_fputc+4
  4655     1E9D  0873               	movf	fputc@fp+1,w
  4656     1E9E  1803               	skipnc
  4657     1E9F  3E01               	addlw	1
  4658     1EA0  3E00               	addlw	0
  4659     1EA1  00F9               	movwf	??_fputc+5
  4660     1EA2  0878               	movf	??_fputc+4,w
  4661     1EA3  0084               	movwf	4
  4662     1EA4  1783               	bsf	3,7
  4663     1EA5  1C79               	btfss	??_fputc+5,0
  4664     1EA6  1383               	bcf	3,7
  4665     1EA7  0800               	movf	0,w
  4666     1EA8  00FA               	movwf	??_fputc+6
  4667     1EA9  0A84               	incf	4,f
  4668     1EAA  0800               	movf	0,w
  4669     1EAB  00FB               	movwf	??_fputc+7
  4670     1EAC  087B               	movf	??_fputc+7,w
  4671     1EAD  3A80               	xorlw	128
  4672     1EAE  00FC               	movwf	??_fputc+8
  4673     1EAF  0877               	movf	??_fputc+3,w
  4674     1EB0  3A80               	xorlw	128
  4675     1EB1  027C               	subwf	??_fputc+8,w
  4676     1EB2  1D03               	skipz
  4677     1EB3  2EB6               	goto	u2435
  4678     1EB4  0876               	movf	??_fputc+2,w
  4679     1EB5  027A               	subwf	??_fputc+6,w
  4680     1EB6                     u2435:
  4681     1EB6  1803               	skipnc
  4682     1EB7  2EB9               	goto	u2431
  4683     1EB8  2EBA               	goto	u2430
  4684     1EB9                     u2431:
  4685     1EB9  2EF6               	goto	l836
  4686     1EBA                     u2430:
  4687     1EBA                     l2167:
  4688     1EBA  0872               	movf	fputc@fp,w
  4689     1EBB  0084               	movwf	4
  4690     1EBC  1783               	bsf	3,7
  4691     1EBD  1C73               	btfss	fputc@fp+1,0
  4692     1EBE  1383               	bcf	3,7
  4693     1EBF  0800               	movf	0,w
  4694     1EC0  00F4               	movwf	??_fputc
  4695     1EC1  0A84               	incf	4,f
  4696     1EC2  0800               	movf	0,w
  4697     1EC3  00F5               	movwf	??_fputc+1
  4698     1EC4  0872               	movf	fputc@fp,w
  4699     1EC5  3E02               	addlw	2
  4700     1EC6  00F6               	movwf	??_fputc+2
  4701     1EC7  0873               	movf	fputc@fp+1,w
  4702     1EC8  1803               	skipnc
  4703     1EC9  3E01               	addlw	1
  4704     1ECA  3E00               	addlw	0
  4705     1ECB  00F7               	movwf	??_fputc+3
  4706     1ECC  0876               	movf	??_fputc+2,w
  4707     1ECD  0084               	movwf	4
  4708     1ECE  1783               	bsf	3,7
  4709     1ECF  1C77               	btfss	??_fputc+3,0
  4710     1ED0  1383               	bcf	3,7
  4711     1ED1  0800               	movf	0,w
  4712     1ED2  0774               	addwf	??_fputc,w
  4713     1ED3  00F9               	movwf	??_fputc+5
  4714     1ED4  0875               	movf	??_fputc+1,w
  4715     1ED5  00F8               	movwf	??_fputc+4
  4716     1ED6  1803               	skipnc
  4717     1ED7  0AF8               	incf	??_fputc+4,f
  4718     1ED8  1F80               	btfss	0,7
  4719     1ED9  2EDB               	goto	u2440
  4720     1EDA  03F8               	decf	??_fputc+4,f
  4721     1EDB                     u2440:
  4722     1EDB  0878               	movf	??_fputc+4,w
  4723     1EDC  00FA               	movwf	??_fputc+6
  4724     1EDD  0879               	movf	??_fputc+5,w
  4725     1EDE  0084               	movwf	4
  4726     1EDF  1783               	bsf	3,7
  4727     1EE0  1C7A               	btfss	??_fputc+6,0
  4728     1EE1  1383               	bcf	3,7
  4729     1EE2  0870               	movf	fputc@c,w
  4730     1EE3  0080               	movwf	0
  4731     1EE4  0872               	movf	fputc@fp,w
  4732     1EE5  3E02               	addlw	2
  4733     1EE6  00F4               	movwf	??_fputc
  4734     1EE7  0873               	movf	fputc@fp+1,w
  4735     1EE8  1803               	skipnc
  4736     1EE9  3E01               	addlw	1
  4737     1EEA  3E00               	addlw	0
  4738     1EEB  00F5               	movwf	??_fputc+1
  4739     1EEC  0874               	movf	??_fputc,w
  4740     1EED  0084               	movwf	4
  4741     1EEE  1783               	bsf	3,7
  4742     1EEF  1C75               	btfss	??_fputc+1,0
  4743     1EF0  1383               	bcf	3,7
  4744     1EF1  3001               	movlw	1
  4745     1EF2  0780               	addwf	0,f
  4746     1EF3  0A84               	incf	4,f
  4747     1EF4  1803               	skipnc
  4748     1EF5  0A80               	incf	0,f
  4749     1EF6                     l836:
  4750     1EF6  0008               	return
  4751     1EF7                     __end_of_fputc:
  4752                           
  4753                           	psect	text13
  4754     0003                     __ptext13:	
  4755 ;; *************** function _putch *****************
  4756 ;; Defined at:
  4757 ;;		line 7 in file "D:\Program Files\Microchip\xc8\v3.00\pic\sources\c99\common\putch.c"
  4758 ;; Parameters:    Size  Location     Type
  4759 ;;  c               1    wreg     unsigned char 
  4760 ;; Auto vars:     Size  Location     Type
  4761 ;;  c               1    0[COMMON] unsigned char 
  4762 ;; Return value:  Size  Location     Type
  4763 ;;                  1    wreg      void 
  4764 ;; Registers used:
  4765 ;;		wreg
  4766 ;; Tracked objects:
  4767 ;;		On entry : 0/0
  4768 ;;		On exit  : 0/0
  4769 ;;		Unchanged: 0/0
  4770 ;; Data sizes:     COMMON   BANK0   BANK1   BANK3   BANK2
  4771 ;;      Params:         0       0       0       0       0
  4772 ;;      Locals:         0       0       0       0       0
  4773 ;;      Temps:          0       0       0       0       0
  4774 ;;      Totals:         0       0       0       0       0
  4775 ;;Total ram usage:        0 bytes
  4776 ;; Hardware stack levels used: 1
  4777 ;; This function calls:
  4778 ;;		Nothing
  4779 ;; This function is called by:
  4780 ;;		_fputc
  4781 ;; This function uses a non-reentrant model
  4782 ;;
  4783                           
  4784     0003                     _putch:	
  4785                           ;psect for function _putch
  4786                           
  4787     0003                     l847:	
  4788                           ;incstack = 0
  4789                           ; Regs used in _putch: [wreg]
  4790                           
  4791     0003  0008               	return
  4792     0004                     __end_of_putch:
  4793                           
  4794                           	psect	text14
  4795     1B66                     __ptext14:	
  4796 ;; *************** function _memcpy *****************
  4797 ;; Defined at:
  4798 ;;		line 4 in file "D:\Program Files\Microchip\xc8\v3.00\pic\sources\c99\common\memcpy.c"
  4799 ;; Parameters:    Size  Location     Type
  4800 ;;  d1              1    0[COMMON] PTR void 
  4801 ;;		 -> dbuf(80), 
  4802 ;;  s1              1    1[COMMON] PTR const void 
  4803 ;;		 -> dbuf(80), 
  4804 ;;  n               2    2[COMMON] unsigned int 
  4805 ;; Auto vars:     Size  Location     Type
  4806 ;;  s               1    6[COMMON] PTR const unsigned char 
  4807 ;;		 -> dbuf(80), 
  4808 ;;  d               1    5[COMMON] PTR unsigned char 
  4809 ;;		 -> dbuf(80), 
  4810 ;;  tmp             1    4[COMMON] unsigned char 
  4811 ;; Return value:  Size  Location     Type
  4812 ;;                  1    0[COMMON] PTR void 
  4813 ;; Registers used:
  4814 ;;		wreg, fsr0l, fsr0h, status,2, status,0
  4815 ;; Tracked objects:
  4816 ;;		On entry : 0/0
  4817 ;;		On exit  : 0/0
  4818 ;;		Unchanged: 0/0
  4819 ;; Data sizes:     COMMON   BANK0   BANK1   BANK3   BANK2
  4820 ;;      Params:         4       0       0       0       0
  4821 ;;      Locals:         3       0       0       0       0
  4822 ;;      Temps:          0       0       0       0       0
  4823 ;;      Totals:         7       0       0       0       0
  4824 ;;Total ram usage:        7 bytes
  4825 ;; Hardware stack levels used: 1
  4826 ;; This function calls:
  4827 ;;		Nothing
  4828 ;; This function is called by:
  4829 ;;		_efgtoa
  4830 ;; This function uses a non-reentrant model
  4831 ;;
  4832                           
  4833     1B66                     _memcpy:	
  4834                           ;psect for function _memcpy
  4835                           
  4836     1B66                     l2851:	
  4837                           ;incstack = 0
  4838                           ; Regs used in _memcpy: [wreg-fsr0h+status,2+status,0]
  4839                           
  4840     1B66  0871               	movf	memcpy@s1,w
  4841     1B67  00F6               	movwf	memcpy@s
  4842     1B68  0870               	movf	memcpy@d1,w
  4843     1B69  00F5               	movwf	memcpy@d
  4844     1B6A  2B78               	goto	l821
  4845     1B6B                     l2853:
  4846     1B6B  0876               	movf	memcpy@s,w
  4847     1B6C  0084               	movwf	4
  4848     1B6D  1783               	bsf	3,7	;select IRP bank2
  4849     1B6E  0800               	movf	0,w
  4850     1B6F  00F4               	movwf	memcpy@tmp
  4851     1B70                     l2855:
  4852     1B70  3001               	movlw	1
  4853     1B71  07F6               	addwf	memcpy@s,f
  4854     1B72                     l2857:
  4855     1B72  0875               	movf	memcpy@d,w
  4856     1B73  0084               	movwf	4
  4857     1B74  0874               	movf	memcpy@tmp,w
  4858     1B75  0080               	movwf	0
  4859     1B76  3001               	movlw	1
  4860     1B77  07F5               	addwf	memcpy@d,f
  4861     1B78                     l821:
  4862     1B78  3001               	movlw	1
  4863     1B79  02F2               	subwf	memcpy@n,f
  4864     1B7A  3000               	movlw	0
  4865     1B7B  1C03               	skipc
  4866     1B7C  03F3               	decf	memcpy@n+1,f
  4867     1B7D  02F3               	subwf	memcpy@n+1,f
  4868     1B7E  0A72               	incf	memcpy@n,w
  4869     1B7F  1D03               	skipz
  4870     1B80  2B85               	goto	u4111
  4871     1B81  0A73               	incf	memcpy@n+1,w
  4872     1B82  1D03               	btfss	3,2
  4873     1B83  2B85               	goto	u4111
  4874     1B84  2B86               	goto	u4110
  4875     1B85                     u4111:
  4876     1B85  2B6B               	goto	l2853
  4877     1B86                     u4110:
  4878     1B86                     l824:
  4879     1B86  0008               	return
  4880     1B87                     __end_of_memcpy:
  4881                           
  4882                           	psect	text15
  4883     1B03                     __ptext15:	
  4884 ;; *************** function _labs *****************
  4885 ;; Defined at:
  4886 ;;		line 1 in file "D:\Program Files\Microchip\xc8\v3.00\pic\sources\c99\common\labs.c"
  4887 ;; Parameters:    Size  Location     Type
  4888 ;;  a               4    0[COMMON] long 
  4889 ;; Auto vars:     Size  Location     Type
  4890 ;;		None
  4891 ;; Return value:  Size  Location     Type
  4892 ;;                  4    0[COMMON] long 
  4893 ;; Registers used:
  4894 ;;		wreg, status,2, status,0
  4895 ;; Tracked objects:
  4896 ;;		On entry : 0/0
  4897 ;;		On exit  : 0/0
  4898 ;;		Unchanged: 0/0
  4899 ;; Data sizes:     COMMON   BANK0   BANK1   BANK3   BANK2
  4900 ;;      Params:         4       0       0       0       0
  4901 ;;      Locals:         0       0       0       0       0
  4902 ;;      Temps:          0       0       0       0       0
  4903 ;;      Totals:         4       0       0       0       0
  4904 ;;Total ram usage:        4 bytes
  4905 ;; Hardware stack levels used: 1
  4906 ;; This function calls:
  4907 ;;		Nothing
  4908 ;; This function is called by:
  4909 ;;		_efgtoa
  4910 ;; This function uses a non-reentrant model
  4911 ;;
  4912                           
  4913     1B03                     _labs:	
  4914                           ;psect for function _labs
  4915                           
  4916     1B03                     l2813:	
  4917                           ;incstack = 0
  4918                           ; Regs used in _labs: [wreg+status,2+status,0]
  4919                           
  4920     1B03  1BF3               	btfsc	labs@a+3,7
  4921     1B04  2B06               	goto	u3981
  4922     1B05  2B07               	goto	u3980
  4923     1B06                     u3981:
  4924     1B06  2B08               	goto	l2817
  4925     1B07                     u3980:
  4926     1B07                     l2815:
  4927     1B07  2B17               	goto	l818
  4928     1B08                     l2817:
  4929     1B08  0970               	comf	labs@a,w
  4930     1B09  00F0               	movwf	?_labs
  4931     1B0A  0971               	comf	labs@a+1,w
  4932     1B0B  00F1               	movwf	?_labs+1
  4933     1B0C  0972               	comf	labs@a+2,w
  4934     1B0D  00F2               	movwf	?_labs+2
  4935     1B0E  0973               	comf	labs@a+3,w
  4936     1B0F  00F3               	movwf	?_labs+3
  4937     1B10  0AF0               	incf	?_labs,f
  4938     1B11  1903               	skipnz
  4939     1B12  0AF1               	incf	?_labs+1,f
  4940     1B13  1903               	skipnz
  4941     1B14  0AF2               	incf	?_labs+2,f
  4942     1B15  1903               	skipnz
  4943     1B16  0AF3               	incf	?_labs+3,f
  4944     1B17                     l818:
  4945     1B17  0008               	return
  4946     1B18                     __end_of_labs:
  4947                           
  4948                           	psect	text16
  4949     10CC                     __ptext16:	
  4950 ;; *************** function _floorf *****************
  4951 ;; Defined at:
  4952 ;;		line 3 in file "D:\Program Files\Microchip\xc8\v3.00\pic\sources\c99\common\floorf.c"
  4953 ;; Parameters:    Size  Location     Type
  4954 ;;  x               4   13[BANK0 ] float 
  4955 ;; Auto vars:     Size  Location     Type
  4956 ;;  u               4   29[BANK0 ] struct .
  4957 ;;  m               4   23[BANK0 ] unsigned long 
  4958 ;;  e               2   27[BANK0 ] int 
  4959 ;; Return value:  Size  Location     Type
  4960 ;;                  4   13[BANK0 ] float 
  4961 ;; Registers used:
  4962 ;;		wreg, status,2, status,0, btemp+1
  4963 ;; Tracked objects:
  4964 ;;		On entry : 0/0
  4965 ;;		On exit  : 0/0
  4966 ;;		Unchanged: 0/0
  4967 ;; Data sizes:     COMMON   BANK0   BANK1   BANK3   BANK2
  4968 ;;      Params:         0       4       0       0       0
  4969 ;;      Locals:         0      10       0       0       0
  4970 ;;      Temps:          0       6       0       0       0
  4971 ;;      Totals:         0      20       0       0       0
  4972 ;;Total ram usage:       20 bytes
  4973 ;; Hardware stack levels used: 1
  4974 ;; This function calls:
  4975 ;;		Nothing
  4976 ;; This function is called by:
  4977 ;;		_efgtoa
  4978 ;; This function uses a non-reentrant model
  4979 ;;
  4980                           
  4981     10CC                     _floorf:	
  4982                           ;psect for function _floorf
  4983                           
  4984     10CC                     l2821:	
  4985                           ;incstack = 0
  4986                           ; Regs used in _floorf: [wreg+status,2+status,0+btemp+1]
  4987                           
  4988     10CC  1683               	bsf	3,5	;RP0=1, select bank1
  4989     10CD  1303               	bcf	3,6	;RP1=0, select bank1
  4990     10CE  0860               	movf	(floorf@F521+3)^(0+128),w
  4991     10CF  1283               	bcf	3,5	;RP0=0, select bank0
  4992     10D0  1303               	bcf	3,6	;RP1=0, select bank0
  4993     10D1  00C0               	movwf	floorf@u+3
  4994     10D2  1683               	bsf	3,5	;RP0=1, select bank1
  4995     10D3  1303               	bcf	3,6	;RP1=0, select bank1
  4996     10D4  085F               	movf	(floorf@F521+2)^(0+128),w
  4997     10D5  1283               	bcf	3,5	;RP0=0, select bank0
  4998     10D6  1303               	bcf	3,6	;RP1=0, select bank0
  4999     10D7  00BF               	movwf	floorf@u+2
  5000     10D8  1683               	bsf	3,5	;RP0=1, select bank1
  5001     10D9  1303               	bcf	3,6	;RP1=0, select bank1
  5002     10DA  085E               	movf	(floorf@F521+1)^(0+128),w
  5003     10DB  1283               	bcf	3,5	;RP0=0, select bank0
  5004     10DC  1303               	bcf	3,6	;RP1=0, select bank0
  5005     10DD  00BE               	movwf	floorf@u+1
  5006     10DE  1683               	bsf	3,5	;RP0=1, select bank1
  5007     10DF  1303               	bcf	3,6	;RP1=0, select bank1
  5008     10E0  085D               	movf	floorf@F521^(0+128),w
  5009     10E1  1283               	bcf	3,5	;RP0=0, select bank0
  5010     10E2  1303               	bcf	3,6	;RP1=0, select bank0
  5011     10E3  00BD               	movwf	floorf@u
  5012     10E4  0830               	movf	floorf@x+3,w
  5013     10E5  00C0               	movwf	floorf@u+3
  5014     10E6  082F               	movf	floorf@x+2,w
  5015     10E7  00BF               	movwf	floorf@u+2
  5016     10E8  082E               	movf	floorf@x+1,w
  5017     10E9  00BE               	movwf	floorf@u+1
  5018     10EA  082D               	movf	floorf@x,w
  5019     10EB  00BD               	movwf	floorf@u
  5020     10EC                     l2823:
  5021     10EC  083D               	movf	floorf@u,w
  5022     10ED  00B1               	movwf	??_floorf
  5023     10EE  083E               	movf	floorf@u+1,w
  5024     10EF  00B2               	movwf	??_floorf+1
  5025     10F0  083F               	movf	floorf@u+2,w
  5026     10F1  00B3               	movwf	??_floorf+2
  5027     10F2  0840               	movf	floorf@u+3,w
  5028     10F3  00B4               	movwf	??_floorf+3
  5029     10F4  3017               	movlw	23
  5030     10F5                     u3995:
  5031     10F5  1003               	clrc
  5032     10F6  0CB4               	rrf	??_floorf+3,f
  5033     10F7  0CB3               	rrf	??_floorf+2,f
  5034     10F8  0CB2               	rrf	??_floorf+1,f
  5035     10F9  0CB1               	rrf	??_floorf,f
  5036     10FA                     u3990:
  5037     10FA  3EFF               	addlw	-1
  5038     10FB  1D03               	skipz
  5039     10FC  28F5               	goto	u3995
  5040     10FD  30FF               	movlw	255
  5041     10FE  0531               	andwf	??_floorf,w
  5042     10FF  00B5               	movwf	??_floorf+4
  5043     1100  3000               	movlw	0
  5044     1101  0532               	andwf	??_floorf+1,w
  5045     1102  00B6               	movwf	??_floorf+5
  5046     1103  0835               	movf	??_floorf+4,w
  5047     1104  3E81               	addlw	129
  5048     1105  00BB               	movwf	floorf@e
  5049     1106  0836               	movf	??_floorf+5,w
  5050     1107  1803               	skipnc
  5051     1108  3E01               	addlw	1
  5052     1109  3EFF               	addlw	255
  5053     110A  00BC               	movwf	floorf@e+1
  5054     110B                     l2825:
  5055     110B  083C               	movf	floorf@e+1,w
  5056     110C  3A80               	xorlw	128
  5057     110D  00FF               	movwf	btemp+1
  5058     110E  3080               	movlw	128
  5059     110F  027F               	subwf	btemp+1,w
  5060     1110  1D03               	skipz
  5061     1111  2914               	goto	u4005
  5062     1112  3017               	movlw	23
  5063     1113  023B               	subwf	floorf@e,w
  5064     1114                     u4005:
  5065     1114  1C03               	skipc
  5066     1115  2917               	goto	u4001
  5067     1116  2918               	goto	u4000
  5068     1117                     u4001:
  5069     1117  2919               	goto	l803
  5070     1118                     u4000:
  5071     1118                     l2827:
  5072     1118  29DA               	goto	l804
  5073     1119                     l803:
  5074     1119  1283               	bcf	3,5	;RP0=0, select bank0
  5075     111A  1303               	bcf	3,6	;RP1=0, select bank0
  5076     111B  1BBC               	btfsc	floorf@e+1,7
  5077     111C  291E               	goto	u4011
  5078     111D  291F               	goto	u4010
  5079     111E                     u4011:
  5080     111E  298F               	goto	l2841
  5081     111F                     u4010:
  5082     111F                     l2829:
  5083     111F  0A3B               	incf	floorf@e,w
  5084     1120  00FF               	movwf	btemp+1
  5085     1121  30FF               	movlw	255
  5086     1122  00B1               	movwf	??_floorf
  5087     1123  30FF               	movlw	255
  5088     1124  00B2               	movwf	??_floorf+1
  5089     1125  307F               	movlw	127
  5090     1126  00B3               	movwf	??_floorf+2
  5091     1127  3000               	movlw	0
  5092     1128  00B4               	movwf	??_floorf+3
  5093     1129  292F               	goto	u4020
  5094     112A                     u4025:
  5095     112A  0D34               	rlf	??_floorf+3,w
  5096     112B  0CB4               	rrf	??_floorf+3,f
  5097     112C  0CB3               	rrf	??_floorf+2,f
  5098     112D  0CB2               	rrf	??_floorf+1,f
  5099     112E  0CB1               	rrf	??_floorf,f
  5100     112F                     u4020:
  5101     112F  0BFF               	decfsz	btemp+1,f
  5102     1130  292A               	goto	u4025
  5103     1131  0834               	movf	??_floorf+3,w
  5104     1132  00BA               	movwf	floorf@m+3
  5105     1133  0833               	movf	??_floorf+2,w
  5106     1134  00B9               	movwf	floorf@m+2
  5107     1135  0832               	movf	??_floorf+1,w
  5108     1136  00B8               	movwf	floorf@m+1
  5109     1137  0831               	movf	??_floorf,w
  5110     1138  00B7               	movwf	floorf@m
  5111     1139                     l2831:
  5112     1139  0837               	movf	floorf@m,w
  5113     113A  053D               	andwf	floorf@u,w
  5114     113B  00B1               	movwf	??_floorf
  5115     113C  0838               	movf	floorf@m+1,w
  5116     113D  053E               	andwf	floorf@u+1,w
  5117     113E  00B2               	movwf	??_floorf+1
  5118     113F  0839               	movf	floorf@m+2,w
  5119     1140  053F               	andwf	floorf@u+2,w
  5120     1141  00B3               	movwf	??_floorf+2
  5121     1142  083A               	movf	floorf@m+3,w
  5122     1143  0540               	andwf	floorf@u+3,w
  5123     1144  00B4               	movwf	??_floorf+3
  5124     1145  0834               	movf	??_floorf+3,w
  5125     1146  0433               	iorwf	??_floorf+2,w
  5126     1147  0432               	iorwf	??_floorf+1,w
  5127     1148  0431               	iorwf	??_floorf,w
  5128     1149  1D03               	skipz
  5129     114A  294C               	goto	u4031
  5130     114B  294D               	goto	u4030
  5131     114C                     u4031:
  5132     114C  294E               	goto	l2835
  5133     114D                     u4030:
  5134     114D  2918               	goto	l2827
  5135     114E                     l2835:
  5136     114E  083D               	movf	floorf@u,w
  5137     114F  00B1               	movwf	??_floorf
  5138     1150  083E               	movf	floorf@u+1,w
  5139     1151  00B2               	movwf	??_floorf+1
  5140     1152  083F               	movf	floorf@u+2,w
  5141     1153  00B3               	movwf	??_floorf+2
  5142     1154  0840               	movf	floorf@u+3,w
  5143     1155  00B4               	movwf	??_floorf+3
  5144     1156  301F               	movlw	31
  5145     1157                     u4045:
  5146     1157  1003               	clrc
  5147     1158  0CB4               	rrf	??_floorf+3,f
  5148     1159  0CB3               	rrf	??_floorf+2,f
  5149     115A  0CB2               	rrf	??_floorf+1,f
  5150     115B  0CB1               	rrf	??_floorf,f
  5151     115C                     u4040:
  5152     115C  3EFF               	addlw	-1
  5153     115D  1D03               	skipz
  5154     115E  2957               	goto	u4045
  5155     115F  0834               	movf	??_floorf+3,w
  5156     1160  0433               	iorwf	??_floorf+2,w
  5157     1161  0432               	iorwf	??_floorf+1,w
  5158     1162  0431               	iorwf	??_floorf,w
  5159     1163  1903               	skipnz
  5160     1164  2966               	goto	u4051
  5161     1165  2967               	goto	u4050
  5162     1166                     u4051:
  5163     1166  297E               	goto	l2839
  5164     1167                     u4050:
  5165     1167                     l2837:
  5166     1167  0837               	movf	floorf@m,w
  5167     1168  07BD               	addwf	floorf@u,f
  5168     1169  0838               	movf	floorf@m+1,w
  5169     116A  1103               	clrz
  5170     116B  1803               	skipnc
  5171     116C  3E01               	addlw	1
  5172     116D  1903               	skipnz
  5173     116E  2970               	goto	u4061
  5174     116F  07BE               	addwf	floorf@u+1,f
  5175     1170                     u4061:
  5176     1170  0839               	movf	floorf@m+2,w
  5177     1171  1103               	clrz
  5178     1172  1803               	skipnc
  5179     1173  3E01               	addlw	1
  5180     1174  1903               	skipnz
  5181     1175  2977               	goto	u4062
  5182     1176  07BF               	addwf	floorf@u+2,f
  5183     1177                     u4062:
  5184     1177  083A               	movf	floorf@m+3,w
  5185     1178  1103               	clrz
  5186     1179  1803               	skipnc
  5187     117A  3E01               	addlw	1
  5188     117B  1903               	skipnz
  5189     117C  297E               	goto	u4063
  5190     117D  07C0               	addwf	floorf@u+3,f
  5191     117E                     u4063:
  5192     117E                     l2839:
  5193     117E  0937               	comf	floorf@m,w
  5194     117F  00B1               	movwf	??_floorf
  5195     1180  0938               	comf	floorf@m+1,w
  5196     1181  00B2               	movwf	??_floorf+1
  5197     1182  0939               	comf	floorf@m+2,w
  5198     1183  00B3               	movwf	??_floorf+2
  5199     1184  093A               	comf	floorf@m+3,w
  5200     1185  00B4               	movwf	??_floorf+3
  5201     1186  0831               	movf	??_floorf,w
  5202     1187  05BD               	andwf	floorf@u,f
  5203     1188  0832               	movf	??_floorf+1,w
  5204     1189  05BE               	andwf	floorf@u+1,f
  5205     118A  0833               	movf	??_floorf+2,w
  5206     118B  05BF               	andwf	floorf@u+2,f
  5207     118C  0834               	movf	??_floorf+3,w
  5208     118D  05C0               	andwf	floorf@u+3,f
  5209     118E  29D2               	goto	l808
  5210     118F                     l2841:
  5211     118F  083D               	movf	floorf@u,w
  5212     1190  00B1               	movwf	??_floorf
  5213     1191  083E               	movf	floorf@u+1,w
  5214     1192  00B2               	movwf	??_floorf+1
  5215     1193  083F               	movf	floorf@u+2,w
  5216     1194  00B3               	movwf	??_floorf+2
  5217     1195  0840               	movf	floorf@u+3,w
  5218     1196  00B4               	movwf	??_floorf+3
  5219     1197  301F               	movlw	31
  5220     1198                     u4075:
  5221     1198  1003               	clrc
  5222     1199  0CB4               	rrf	??_floorf+3,f
  5223     119A  0CB3               	rrf	??_floorf+2,f
  5224     119B  0CB2               	rrf	??_floorf+1,f
  5225     119C  0CB1               	rrf	??_floorf,f
  5226     119D                     u4070:
  5227     119D  3EFF               	addlw	-1
  5228     119E  1D03               	skipz
  5229     119F  2998               	goto	u4075
  5230     11A0  0834               	movf	??_floorf+3,w
  5231     11A1  0433               	iorwf	??_floorf+2,w
  5232     11A2  0432               	iorwf	??_floorf+1,w
  5233     11A3  0431               	iorwf	??_floorf,w
  5234     11A4  1D03               	skipz
  5235     11A5  29A7               	goto	u4081
  5236     11A6  29A8               	goto	u4080
  5237     11A7                     u4081:
  5238     11A7  29B1               	goto	l2845
  5239     11A8                     u4080:
  5240     11A8                     l2843:
  5241     11A8  3000               	movlw	0
  5242     11A9  00C0               	movwf	floorf@u+3
  5243     11AA  3000               	movlw	0
  5244     11AB  00BF               	movwf	floorf@u+2
  5245     11AC  3000               	movlw	0
  5246     11AD  00BE               	movwf	floorf@u+1
  5247     11AE  3000               	movlw	0
  5248     11AF  00BD               	movwf	floorf@u
  5249     11B0  29D2               	goto	l808
  5250     11B1                     l2845:
  5251     11B1  083D               	movf	floorf@u,w
  5252     11B2  00B1               	movwf	??_floorf
  5253     11B3  083E               	movf	floorf@u+1,w
  5254     11B4  00B2               	movwf	??_floorf+1
  5255     11B5  083F               	movf	floorf@u+2,w
  5256     11B6  00B3               	movwf	??_floorf+2
  5257     11B7  0840               	movf	floorf@u+3,w
  5258     11B8  00B4               	movwf	??_floorf+3
  5259     11B9  3001               	movlw	1
  5260     11BA                     u4095:
  5261     11BA  1003               	clrc
  5262     11BB  0DB1               	rlf	??_floorf,f
  5263     11BC  0DB2               	rlf	??_floorf+1,f
  5264     11BD  0DB3               	rlf	??_floorf+2,f
  5265     11BE  0DB4               	rlf	??_floorf+3,f
  5266     11BF                     u4090:
  5267     11BF  3EFF               	addlw	-1
  5268     11C0  1D03               	skipz
  5269     11C1  29BA               	goto	u4095
  5270     11C2  0834               	movf	??_floorf+3,w
  5271     11C3  0433               	iorwf	??_floorf+2,w
  5272     11C4  0432               	iorwf	??_floorf+1,w
  5273     11C5  0431               	iorwf	??_floorf,w
  5274     11C6  1903               	skipnz
  5275     11C7  29C9               	goto	u4101
  5276     11C8  29CA               	goto	u4100
  5277     11C9                     u4101:
  5278     11C9  29D2               	goto	l808
  5279     11CA                     u4100:
  5280     11CA                     l2847:
  5281     11CA  30BF               	movlw	191
  5282     11CB  00C0               	movwf	floorf@u+3
  5283     11CC  3080               	movlw	128
  5284     11CD  00BF               	movwf	floorf@u+2
  5285     11CE  3000               	movlw	0
  5286     11CF  00BE               	movwf	floorf@u+1
  5287     11D0  3000               	movlw	0
  5288     11D1  00BD               	movwf	floorf@u
  5289     11D2                     l808:
  5290     11D2  0840               	movf	floorf@u+3,w
  5291     11D3  00B0               	movwf	?_floorf+3
  5292     11D4  083F               	movf	floorf@u+2,w
  5293     11D5  00AF               	movwf	?_floorf+2
  5294     11D6  083E               	movf	floorf@u+1,w
  5295     11D7  00AE               	movwf	?_floorf+1
  5296     11D8  083D               	movf	floorf@u,w
  5297     11D9  00AD               	movwf	?_floorf
  5298     11DA                     l804:
  5299     11DA  0008               	return
  5300     11DB                     __end_of_floorf:
  5301                           
  5302                           	psect	text17
  5303     1DDE                     __ptext17:	
  5304 ;; *************** function ___fpclassifyf *****************
  5305 ;; Defined at:
  5306 ;;		line 4 in file "D:\Program Files\Microchip\xc8\v3.00\pic\sources\c99\common\__fpclassifyf.c"
  5307 ;; Parameters:    Size  Location     Type
  5308 ;;  x               4    0[COMMON] float 
  5309 ;; Auto vars:     Size  Location     Type
  5310 ;;  u               4    2[BANK0 ] struct .
  5311 ;;  e               2    0[BANK0 ] int 
  5312 ;; Return value:  Size  Location     Type
  5313 ;;                  2    0[COMMON] int 
  5314 ;; Registers used:
  5315 ;;		wreg, status,2, status,0
  5316 ;; Tracked objects:
  5317 ;;		On entry : 0/0
  5318 ;;		On exit  : 0/0
  5319 ;;		Unchanged: 0/0
  5320 ;; Data sizes:     COMMON   BANK0   BANK1   BANK3   BANK2
  5321 ;;      Params:         4       0       0       0       0
  5322 ;;      Locals:         0       6       0       0       0
  5323 ;;      Temps:          6       0       0       0       0
  5324 ;;      Totals:        10       6       0       0       0
  5325 ;;Total ram usage:       16 bytes
  5326 ;; Hardware stack levels used: 1
  5327 ;; This function calls:
  5328 ;;		Nothing
  5329 ;; This function is called by:
  5330 ;;		_efgtoa
  5331 ;; This function uses a non-reentrant model
  5332 ;;
  5333                           
  5334     1DDE                     ___fpclassifyf:	
  5335                           ;psect for function ___fpclassifyf
  5336                           
  5337     1DDE                     l2785:	
  5338                           ;incstack = 0
  5339                           ; Regs used in ___fpclassifyf: [wreg+status,2+status,0]
  5340                           
  5341     1DDE  1283               	bcf	3,5	;RP0=0, select bank0
  5342     1DDF  1303               	bcf	3,6	;RP1=0, select bank0
  5343     1DE0  0865               	movf	___fpclassifyf@F465+3,w
  5344     1DE1  00A5               	movwf	___fpclassifyf@u+3
  5345     1DE2  0864               	movf	___fpclassifyf@F465+2,w
  5346     1DE3  00A4               	movwf	___fpclassifyf@u+2
  5347     1DE4  0863               	movf	___fpclassifyf@F465+1,w
  5348     1DE5  00A3               	movwf	___fpclassifyf@u+1
  5349     1DE6  0862               	movf	___fpclassifyf@F465,w
  5350     1DE7  00A2               	movwf	___fpclassifyf@u
  5351     1DE8  0873               	movf	___fpclassifyf@x+3,w
  5352     1DE9  00A5               	movwf	___fpclassifyf@u+3
  5353     1DEA  0872               	movf	___fpclassifyf@x+2,w
  5354     1DEB  00A4               	movwf	___fpclassifyf@u+2
  5355     1DEC  0871               	movf	___fpclassifyf@x+1,w
  5356     1DED  00A3               	movwf	___fpclassifyf@u+1
  5357     1DEE  0870               	movf	___fpclassifyf@x,w
  5358     1DEF  00A2               	movwf	___fpclassifyf@u
  5359     1DF0                     l2787:
  5360     1DF0  0822               	movf	___fpclassifyf@u,w
  5361     1DF1  00F4               	movwf	??___fpclassifyf
  5362     1DF2  0823               	movf	___fpclassifyf@u+1,w
  5363     1DF3  00F5               	movwf	??___fpclassifyf+1
  5364     1DF4  0824               	movf	___fpclassifyf@u+2,w
  5365     1DF5  00F6               	movwf	??___fpclassifyf+2
  5366     1DF6  0825               	movf	___fpclassifyf@u+3,w
  5367     1DF7  00F7               	movwf	??___fpclassifyf+3
  5368     1DF8  3017               	movlw	23
  5369     1DF9                     u3895:
  5370     1DF9  1003               	clrc
  5371     1DFA  0CF7               	rrf	??___fpclassifyf+3,f
  5372     1DFB  0CF6               	rrf	??___fpclassifyf+2,f
  5373     1DFC  0CF5               	rrf	??___fpclassifyf+1,f
  5374     1DFD  0CF4               	rrf	??___fpclassifyf,f
  5375     1DFE                     u3890:
  5376     1DFE  3EFF               	addlw	-1
  5377     1DFF  1D03               	skipz
  5378     1E00  2DF9               	goto	u3895
  5379     1E01  30FF               	movlw	255
  5380     1E02  0574               	andwf	??___fpclassifyf,w
  5381     1E03  00A0               	movwf	___fpclassifyf@e
  5382     1E04  3000               	movlw	0
  5383     1E05  0575               	andwf	??___fpclassifyf+1,w
  5384     1E06  00A1               	movwf	___fpclassifyf@e+1
  5385     1E07                     l2789:
  5386     1E07  0820               	movf	___fpclassifyf@e,w
  5387     1E08  0421               	iorwf	___fpclassifyf@e+1,w
  5388     1E09  1D03               	btfss	3,2
  5389     1E0A  2E0C               	goto	u3901
  5390     1E0B  2E0D               	goto	u3900
  5391     1E0C                     u3901:
  5392     1E0C  2E30               	goto	l2799
  5393     1E0D                     u3900:
  5394     1E0D                     l2791:
  5395     1E0D  0822               	movf	___fpclassifyf@u,w
  5396     1E0E  00F4               	movwf	??___fpclassifyf
  5397     1E0F  0823               	movf	___fpclassifyf@u+1,w
  5398     1E10  00F5               	movwf	??___fpclassifyf+1
  5399     1E11  0824               	movf	___fpclassifyf@u+2,w
  5400     1E12  00F6               	movwf	??___fpclassifyf+2
  5401     1E13  0825               	movf	___fpclassifyf@u+3,w
  5402     1E14  00F7               	movwf	??___fpclassifyf+3
  5403     1E15  3001               	movlw	1
  5404     1E16                     u3915:
  5405     1E16  1003               	clrc
  5406     1E17  0DF4               	rlf	??___fpclassifyf,f
  5407     1E18  0DF5               	rlf	??___fpclassifyf+1,f
  5408     1E19  0DF6               	rlf	??___fpclassifyf+2,f
  5409     1E1A  0DF7               	rlf	??___fpclassifyf+3,f
  5410     1E1B                     u3910:
  5411     1E1B  3EFF               	addlw	-1
  5412     1E1C  1D03               	skipz
  5413     1E1D  2E16               	goto	u3915
  5414     1E1E  0877               	movf	??___fpclassifyf+3,w
  5415     1E1F  0476               	iorwf	??___fpclassifyf+2,w
  5416     1E20  0475               	iorwf	??___fpclassifyf+1,w
  5417     1E21  0474               	iorwf	??___fpclassifyf,w
  5418     1E22  1D03               	skipz
  5419     1E23  2E25               	goto	u3921
  5420     1E24  2E26               	goto	u3920
  5421     1E25                     u3921:
  5422     1E25  2E2B               	goto	l2795
  5423     1E26                     u3920:
  5424     1E26                     l2793:
  5425     1E26  3002               	movlw	2
  5426     1E27  00F0               	movwf	?___fpclassifyf
  5427     1E28  3000               	movlw	0
  5428     1E29  00F1               	movwf	?___fpclassifyf+1
  5429     1E2A  2E5C               	goto	l797
  5430     1E2B                     l2795:
  5431     1E2B  3003               	movlw	3
  5432     1E2C  00F0               	movwf	?___fpclassifyf
  5433     1E2D  3000               	movlw	0
  5434     1E2E  00F1               	movwf	?___fpclassifyf+1
  5435     1E2F  2E5C               	goto	l797
  5436     1E30                     l2799:
  5437     1E30  0A20               	incf	___fpclassifyf@e,w
  5438     1E31  0421               	iorwf	___fpclassifyf@e+1,w
  5439     1E32  1D03               	btfss	3,2
  5440     1E33  2E35               	goto	u3931
  5441     1E34  2E36               	goto	u3930
  5442     1E35                     u3931:
  5443     1E35  2E58               	goto	l2805
  5444     1E36                     u3930:
  5445     1E36                     l2801:
  5446     1E36  0822               	movf	___fpclassifyf@u,w
  5447     1E37  00F4               	movwf	??___fpclassifyf
  5448     1E38  0823               	movf	___fpclassifyf@u+1,w
  5449     1E39  00F5               	movwf	??___fpclassifyf+1
  5450     1E3A  0824               	movf	___fpclassifyf@u+2,w
  5451     1E3B  00F6               	movwf	??___fpclassifyf+2
  5452     1E3C  0825               	movf	___fpclassifyf@u+3,w
  5453     1E3D  00F7               	movwf	??___fpclassifyf+3
  5454     1E3E  3009               	movlw	9
  5455     1E3F                     u3945:
  5456     1E3F  1003               	clrc
  5457     1E40  0DF4               	rlf	??___fpclassifyf,f
  5458     1E41  0DF5               	rlf	??___fpclassifyf+1,f
  5459     1E42  0DF6               	rlf	??___fpclassifyf+2,f
  5460     1E43  0DF7               	rlf	??___fpclassifyf+3,f
  5461     1E44                     u3940:
  5462     1E44  3EFF               	addlw	-1
  5463     1E45  1D03               	skipz
  5464     1E46  2E3F               	goto	u3945
  5465     1E47  0877               	movf	??___fpclassifyf+3,w
  5466     1E48  0476               	iorwf	??___fpclassifyf+2,w
  5467     1E49  0475               	iorwf	??___fpclassifyf+1,w
  5468     1E4A  0474               	iorwf	??___fpclassifyf,w
  5469     1E4B  1903               	skipnz
  5470     1E4C  2E4E               	goto	u3951
  5471     1E4D  2E50               	goto	u3950
  5472     1E4E                     u3951:
  5473     1E4E  3001               	movlw	1
  5474     1E4F  2E51               	goto	u3960
  5475     1E50                     u3950:
  5476     1E50  3000               	movlw	0
  5477     1E51                     u3960:
  5478     1E51  00F8               	movwf	??___fpclassifyf+4
  5479     1E52  01F9               	clrf	??___fpclassifyf+5
  5480     1E53  0878               	movf	??___fpclassifyf+4,w
  5481     1E54  00F0               	movwf	?___fpclassifyf
  5482     1E55  0879               	movf	??___fpclassifyf+5,w
  5483     1E56  00F1               	movwf	?___fpclassifyf+1
  5484     1E57  2E5C               	goto	l797
  5485     1E58                     l2805:
  5486     1E58  3004               	movlw	4
  5487     1E59  00F0               	movwf	?___fpclassifyf
  5488     1E5A  3000               	movlw	0
  5489     1E5B  00F1               	movwf	?___fpclassifyf+1
  5490     1E5C                     l797:
  5491     1E5C  0008               	return
  5492     1E5D                     __end_of___fpclassifyf:
  5493                           
  5494                           	psect	text18
  5495     1D6A                     __ptext18:	
  5496 ;; *************** function ___fltol *****************
  5497 ;; Defined at:
  5498 ;;		line 43 in file "D:\Program Files\Microchip\xc8\v3.00\pic\sources\c99\common\fltol.c"
  5499 ;; Parameters:    Size  Location     Type
  5500 ;;  f1              4    0[COMMON] int 
  5501 ;; Auto vars:     Size  Location     Type
  5502 ;;  exp1            1    9[COMMON] unsigned char 
  5503 ;;  sign1           1    8[COMMON] unsigned char 
  5504 ;; Return value:  Size  Location     Type
  5505 ;;                  4    0[COMMON] long 
  5506 ;; Registers used:
  5507 ;;		wreg, status,2, status,0
  5508 ;; Tracked objects:
  5509 ;;		On entry : 0/0
  5510 ;;		On exit  : 0/0
  5511 ;;		Unchanged: 0/0
  5512 ;; Data sizes:     COMMON   BANK0   BANK1   BANK3   BANK2
  5513 ;;      Params:         4       0       0       0       0
  5514 ;;      Locals:         2       0       0       0       0
  5515 ;;      Temps:          4       0       0       0       0
  5516 ;;      Totals:        10       0       0       0       0
  5517 ;;Total ram usage:       10 bytes
  5518 ;; Hardware stack levels used: 1
  5519 ;; This function calls:
  5520 ;;		Nothing
  5521 ;; This function is called by:
  5522 ;;		_efgtoa
  5523 ;; This function uses a non-reentrant model
  5524 ;;
  5525                           
  5526     1D6A                     ___fltol:	
  5527                           ;psect for function ___fltol
  5528                           
  5529     1D6A                     l2445:	
  5530                           ;incstack = 0
  5531                           ; Regs used in ___fltol: [wreg+status,2+status,0]
  5532                           
  5533     1D6A  1003               	clrc
  5534     1D6B  0D72               	rlf	___fltol@f1+2,w
  5535     1D6C  0D73               	rlf	___fltol@f1+3,w
  5536     1D6D  00F9               	movwf	___fltol@exp1
  5537     1D6E  0879               	movf	___fltol@exp1,w
  5538     1D6F  1D03               	btfss	3,2
  5539     1D70  2D72               	goto	u3101
  5540     1D71  2D73               	goto	u3100
  5541     1D72                     u3101:
  5542     1D72  2D7C               	goto	l2451
  5543     1D73                     u3100:
  5544     1D73                     l2447:
  5545     1D73  3000               	movlw	0
  5546     1D74  00F3               	movwf	?___fltol+3
  5547     1D75  3000               	movlw	0
  5548     1D76  00F2               	movwf	?___fltol+2
  5549     1D77  3000               	movlw	0
  5550     1D78  00F1               	movwf	?___fltol+1
  5551     1D79  3000               	movlw	0
  5552     1D7A  00F0               	movwf	?___fltol
  5553     1D7B  2DDD               	goto	l400
  5554     1D7C                     l2451:
  5555     1D7C  0870               	movf	___fltol@f1,w
  5556     1D7D  00F4               	movwf	??___fltol
  5557     1D7E  0871               	movf	___fltol@f1+1,w
  5558     1D7F  00F5               	movwf	??___fltol+1
  5559     1D80  0872               	movf	___fltol@f1+2,w
  5560     1D81  00F6               	movwf	??___fltol+2
  5561     1D82  0873               	movf	___fltol@f1+3,w
  5562     1D83  00F7               	movwf	??___fltol+3
  5563     1D84  301F               	movlw	31
  5564     1D85                     u3115:
  5565     1D85  1003               	clrc
  5566     1D86  0CF7               	rrf	??___fltol+3,f
  5567     1D87  0CF6               	rrf	??___fltol+2,f
  5568     1D88  0CF5               	rrf	??___fltol+1,f
  5569     1D89  0CF4               	rrf	??___fltol,f
  5570     1D8A                     u3110:
  5571     1D8A  3EFF               	addlw	-1
  5572     1D8B  1D03               	skipz
  5573     1D8C  2D85               	goto	u3115
  5574     1D8D  0874               	movf	??___fltol,w
  5575     1D8E  00F8               	movwf	___fltol@sign1
  5576     1D8F                     l2453:
  5577     1D8F  17F2               	bsf	___fltol@f1+2,7
  5578     1D90                     l2455:
  5579     1D90  30FF               	movlw	255
  5580     1D91  05F0               	andwf	___fltol@f1,f
  5581     1D92  30FF               	movlw	255
  5582     1D93  05F1               	andwf	___fltol@f1+1,f
  5583     1D94  30FF               	movlw	255
  5584     1D95  05F2               	andwf	___fltol@f1+2,f
  5585     1D96  3000               	movlw	0
  5586     1D97  05F3               	andwf	___fltol@f1+3,f
  5587     1D98                     l2457:
  5588     1D98  3096               	movlw	150
  5589     1D99  02F9               	subwf	___fltol@exp1,f
  5590     1D9A                     l2459:
  5591     1D9A  1FF9               	btfss	___fltol@exp1,7
  5592     1D9B  2D9D               	goto	u3121
  5593     1D9C  2D9E               	goto	u3120
  5594     1D9D                     u3121:
  5595     1D9D  2DB6               	goto	l2469
  5596     1D9E                     u3120:
  5597     1D9E                     l2461:
  5598     1D9E  0879               	movf	___fltol@exp1,w
  5599     1D9F  3A80               	xorlw	128
  5600     1DA0  3E97               	addlw	151
  5601     1DA1  1803               	skipnc
  5602     1DA2  2DA4               	goto	u3131
  5603     1DA3  2DA5               	goto	u3130
  5604     1DA4                     u3131:
  5605     1DA4  2DA6               	goto	l2467
  5606     1DA5                     u3130:
  5607     1DA5  2D73               	goto	l2447
  5608     1DA6                     l2467:
  5609     1DA6  3001               	movlw	1
  5610     1DA7                     u3145:
  5611     1DA7  1003               	clrc
  5612     1DA8  0CF3               	rrf	___fltol@f1+3,f
  5613     1DA9  0CF2               	rrf	___fltol@f1+2,f
  5614     1DAA  0CF1               	rrf	___fltol@f1+1,f
  5615     1DAB  0CF0               	rrf	___fltol@f1,f
  5616     1DAC  3EFF               	addlw	-1
  5617     1DAD  1D03               	skipz
  5618     1DAE  2DA7               	goto	u3145
  5619     1DAF  3001               	movlw	1
  5620     1DB0  07F9               	addwf	___fltol@exp1,f
  5621     1DB1  1D03               	btfss	3,2
  5622     1DB2  2DB4               	goto	u3151
  5623     1DB3  2DB5               	goto	u3150
  5624     1DB4                     u3151:
  5625     1DB4  2DA6               	goto	l2467
  5626     1DB5                     u3150:
  5627     1DB5  2DCD               	goto	l2477
  5628     1DB6                     l2469:
  5629     1DB6  3020               	movlw	32
  5630     1DB7  0279               	subwf	___fltol@exp1,w
  5631     1DB8  1C03               	skipc
  5632     1DB9  2DBB               	goto	u3161
  5633     1DBA  2DBC               	goto	u3160
  5634     1DBB                     u3161:
  5635     1DBB  2DC8               	goto	l407
  5636     1DBC                     u3160:
  5637     1DBC  2D73               	goto	l2447
  5638     1DBD                     l2475:
  5639     1DBD  3001               	movlw	1
  5640     1DBE  00F4               	movwf	??___fltol
  5641     1DBF                     u3175:
  5642     1DBF  1003               	clrc
  5643     1DC0  0DF0               	rlf	___fltol@f1,f
  5644     1DC1  0DF1               	rlf	___fltol@f1+1,f
  5645     1DC2  0DF2               	rlf	___fltol@f1+2,f
  5646     1DC3  0DF3               	rlf	___fltol@f1+3,f
  5647     1DC4  0BF4               	decfsz	??___fltol,f
  5648     1DC5  2DBF               	goto	u3175
  5649     1DC6  3001               	movlw	1
  5650     1DC7  02F9               	subwf	___fltol@exp1,f
  5651     1DC8                     l407:
  5652     1DC8  0879               	movf	___fltol@exp1,w
  5653     1DC9  1D03               	btfss	3,2
  5654     1DCA  2DCC               	goto	u3181
  5655     1DCB  2DCD               	goto	u3180
  5656     1DCC                     u3181:
  5657     1DCC  2DBD               	goto	l2475
  5658     1DCD                     u3180:
  5659     1DCD                     l2477:
  5660     1DCD  0878               	movf	___fltol@sign1,w
  5661     1DCE  1903               	btfsc	3,2
  5662     1DCF  2DD1               	goto	u3191
  5663     1DD0  2DD2               	goto	u3190
  5664     1DD1                     u3191:
  5665     1DD1  2DDD               	goto	l410
  5666     1DD2                     u3190:
  5667     1DD2                     l2479:
  5668     1DD2  09F0               	comf	___fltol@f1,f
  5669     1DD3  09F1               	comf	___fltol@f1+1,f
  5670     1DD4  09F2               	comf	___fltol@f1+2,f
  5671     1DD5  09F3               	comf	___fltol@f1+3,f
  5672     1DD6  0AF0               	incf	___fltol@f1,f
  5673     1DD7  1903               	skipnz
  5674     1DD8  0AF1               	incf	___fltol@f1+1,f
  5675     1DD9  1903               	skipnz
  5676     1DDA  0AF2               	incf	___fltol@f1+2,f
  5677     1DDB  1903               	skipnz
  5678     1DDC  0AF3               	incf	___fltol@f1+3,f
  5679     1DDD                     l410:
  5680     1DDD                     l400:
  5681     1DDD  0008               	return
  5682     1DDE                     __end_of___fltol:
  5683                           
  5684                           	psect	text19
  5685     1B87                     __ptext19:	
  5686 ;; *************** function ___flsub *****************
  5687 ;; Defined at:
  5688 ;;		line 242 in file "D:\Program Files\Microchip\xc8\v3.00\pic\sources\c99\common\sprcadd.c"
  5689 ;; Parameters:    Size  Location     Type
  5690 ;;  a               4   21[BANK0 ] long 
  5691 ;;  b               4   25[BANK0 ] long 
  5692 ;; Auto vars:     Size  Location     Type
  5693 ;;		None
  5694 ;; Return value:  Size  Location     Type
  5695 ;;                  4   21[BANK0 ] long 
  5696 ;; Registers used:
  5697 ;;		wreg, status,2, status,0, btemp+1, pclath, cstack
  5698 ;; Tracked objects:
  5699 ;;		On entry : 0/0
  5700 ;;		On exit  : 0/0
  5701 ;;		Unchanged: 0/0
  5702 ;; Data sizes:     COMMON   BANK0   BANK1   BANK3   BANK2
  5703 ;;      Params:         0       8       0       0       0
  5704 ;;      Locals:         0       0       0       0       0
  5705 ;;      Temps:          0       0       0       0       0
  5706 ;;      Totals:         0       8       0       0       0
  5707 ;;Total ram usage:        8 bytes
  5708 ;; Hardware stack levels used: 1
  5709 ;; Hardware stack levels required when called: 1
  5710 ;; This function calls:
  5711 ;;		___fladd
  5712 ;; This function is called by:
  5713 ;;		_BatStatus
  5714 ;;		_efgtoa
  5715 ;; This function uses a non-reentrant model
  5716 ;;
  5717                           
  5718     1B87                     ___flsub:	
  5719                           ;psect for function ___flsub
  5720                           
  5721     1B87                     l2481:	
  5722                           ;incstack = 0
  5723                           ; Regs used in ___flsub: [wreg+status,2+status,0+btemp+1+pclath+cstack]
  5724                           
  5725     1B87  3080               	movlw	128
  5726     1B88  1283               	bcf	3,5	;RP0=0, select bank0
  5727     1B89  1303               	bcf	3,6	;RP1=0, select bank0
  5728     1B8A  06B8               	xorwf	___flsub@a+3,f
  5729     1B8B                     l2483:
  5730     1B8B  083C               	movf	___flsub@b+3,w
  5731     1B8C  00F3               	movwf	___fladd@b+3
  5732     1B8D  083B               	movf	___flsub@b+2,w
  5733     1B8E  00F2               	movwf	___fladd@b+2
  5734     1B8F  083A               	movf	___flsub@b+1,w
  5735     1B90  00F1               	movwf	___fladd@b+1
  5736     1B91  0839               	movf	___flsub@b,w
  5737     1B92  00F0               	movwf	___fladd@b
  5738     1B93  0838               	movf	___flsub@a+3,w
  5739     1B94  00F7               	movwf	___fladd@a+3
  5740     1B95  0837               	movf	___flsub@a+2,w
  5741     1B96  00F6               	movwf	___fladd@a+2
  5742     1B97  0836               	movf	___flsub@a+1,w
  5743     1B98  00F5               	movwf	___fladd@a+1
  5744     1B99  0835               	movf	___flsub@a,w
  5745     1B9A  00F4               	movwf	___fladd@a
  5746     1B9B  120A  158A  201A  160A  158A  	fcall	___fladd
  5747     1BA0  0873               	movf	?___fladd+3,w
  5748     1BA1  1283               	bcf	3,5	;RP0=0, select bank0
  5749     1BA2  1303               	bcf	3,6	;RP1=0, select bank0
  5750     1BA3  00B8               	movwf	?___flsub+3
  5751     1BA4  0872               	movf	?___fladd+2,w
  5752     1BA5  00B7               	movwf	?___flsub+2
  5753     1BA6  0871               	movf	?___fladd+1,w
  5754     1BA7  00B6               	movwf	?___flsub+1
  5755     1BA8  0870               	movf	?___fladd,w
  5756     1BA9  00B5               	movwf	?___flsub
  5757     1BAA                     l553:
  5758     1BAA  0008               	return
  5759     1BAB                     __end_of___flsub:
  5760                           
  5761                           	psect	text20
  5762     081A                     __ptext20:	
  5763 ;; *************** function ___fladd *****************
  5764 ;; Defined at:
  5765 ;;		line 10 in file "D:\Program Files\Microchip\xc8\v3.00\pic\sources\c99\common\sprcadd.c"
  5766 ;; Parameters:    Size  Location     Type
  5767 ;;  b               4    0[COMMON] long 
  5768 ;;  a               4    4[COMMON] long 
  5769 ;; Auto vars:     Size  Location     Type
  5770 ;;  grs             1   11[COMMON] unsigned char 
  5771 ;;  bexp            1   10[COMMON] unsigned char 
  5772 ;;  aexp            1    9[COMMON] unsigned char 
  5773 ;;  signs           1    8[COMMON] unsigned char 
  5774 ;; Return value:  Size  Location     Type
  5775 ;;                  4    0[COMMON] unsigned char 
  5776 ;; Registers used:
  5777 ;;		wreg, status,2, status,0, btemp+1
  5778 ;; Tracked objects:
  5779 ;;		On entry : 0/0
  5780 ;;		On exit  : 0/0
  5781 ;;		Unchanged: 0/0
  5782 ;; Data sizes:     COMMON   BANK0   BANK1   BANK3   BANK2
  5783 ;;      Params:         8       0       0       0       0
  5784 ;;      Locals:         4       0       0       0       0
  5785 ;;      Temps:          0       8       0       0       0
  5786 ;;      Totals:        12       8       0       0       0
  5787 ;;Total ram usage:       20 bytes
  5788 ;; Hardware stack levels used: 1
  5789 ;; This function calls:
  5790 ;;		Nothing
  5791 ;; This function is called by:
  5792 ;;		_BatStatus
  5793 ;;		___flsub
  5794 ;;		_efgtoa
  5795 ;; This function uses a non-reentrant model
  5796 ;;
  5797                           
  5798     081A                     ___fladd:	
  5799                           ;psect for function ___fladd
  5800                           
  5801     081A                     l2171:	
  5802                           ;incstack = 0
  5803                           ; Regs used in ___fladd: [wreg+status,2+status,0+btemp+1]
  5804                           
  5805     081A  0873               	movf	___fladd@b+3,w
  5806     081B  00F8               	movwf	___fladd@signs
  5807     081C                     l2173:
  5808     081C  3080               	movlw	128
  5809     081D  05F8               	andwf	___fladd@signs,f
  5810     081E                     l2175:
  5811     081E  0873               	movf	___fladd@b+3,w
  5812     081F  1283               	bcf	3,5	;RP0=0, select bank0
  5813     0820  1303               	bcf	3,6	;RP1=0, select bank0
  5814     0821  00A0               	movwf	??___fladd
  5815     0822  0720               	addwf	??___fladd,w
  5816     0823  00FA               	movwf	___fladd@bexp
  5817     0824                     l2177:
  5818     0824  1FF2               	btfss	___fladd@b+2,7
  5819     0825  2827               	goto	u2451
  5820     0826  2828               	goto	u2450
  5821     0827                     u2451:
  5822     0827  2829               	goto	l2181
  5823     0828                     u2450:
  5824     0828                     l2179:
  5825     0828  147A               	bsf	___fladd@bexp,0
  5826     0829                     l2181:
  5827     0829  087A               	movf	___fladd@bexp,w
  5828     082A  1903               	btfsc	3,2
  5829     082B  282D               	goto	u2461
  5830     082C  282E               	goto	u2460
  5831     082D                     u2461:
  5832     082D  283E               	goto	l2191
  5833     082E                     u2460:
  5834     082E                     l2183:
  5835     082E  0A7A               	incf	___fladd@bexp,w
  5836     082F  1D03               	btfss	3,2
  5837     0830  2832               	goto	u2471
  5838     0831  2833               	goto	u2470
  5839     0832                     u2471:
  5840     0832  283B               	goto	l2187
  5841     0833                     u2470:
  5842     0833                     l2185:
  5843     0833  3000               	movlw	0
  5844     0834  00F3               	movwf	___fladd@b+3
  5845     0835  3000               	movlw	0
  5846     0836  00F2               	movwf	___fladd@b+2
  5847     0837  3000               	movlw	0
  5848     0838  00F1               	movwf	___fladd@b+1
  5849     0839  3000               	movlw	0
  5850     083A  00F0               	movwf	___fladd@b
  5851     083B                     l2187:
  5852     083B  17F2               	bsf	___fladd@b+2,7
  5853     083C                     l2189:
  5854     083C  01F3               	clrf	___fladd@b+3
  5855     083D  2846               	goto	l502
  5856     083E                     l2191:
  5857     083E  3000               	movlw	0
  5858     083F  00F3               	movwf	___fladd@b+3
  5859     0840  3000               	movlw	0
  5860     0841  00F2               	movwf	___fladd@b+2
  5861     0842  3000               	movlw	0
  5862     0843  00F1               	movwf	___fladd@b+1
  5863     0844  3000               	movlw	0
  5864     0845  00F0               	movwf	___fladd@b
  5865     0846                     l502:
  5866     0846  0877               	movf	___fladd@a+3,w
  5867     0847  00F9               	movwf	___fladd@aexp
  5868     0848                     l2193:
  5869     0848  3080               	movlw	128
  5870     0849  05F9               	andwf	___fladd@aexp,f
  5871     084A                     l2195:
  5872     084A  0879               	movf	___fladd@aexp,w
  5873     084B  0678               	xorwf	___fladd@signs,w
  5874     084C  1903               	skipnz
  5875     084D  284F               	goto	u2481
  5876     084E  2850               	goto	u2480
  5877     084F                     u2481:
  5878     084F  2851               	goto	l2199
  5879     0850                     u2480:
  5880     0850                     l2197:
  5881     0850  1778               	bsf	___fladd@signs,6
  5882     0851                     l2199:
  5883     0851  0877               	movf	___fladd@a+3,w
  5884     0852  00A0               	movwf	??___fladd
  5885     0853  0720               	addwf	??___fladd,w
  5886     0854  00F9               	movwf	___fladd@aexp
  5887     0855                     l2201:
  5888     0855  1FF6               	btfss	___fladd@a+2,7
  5889     0856  2858               	goto	u2491
  5890     0857  2859               	goto	u2490
  5891     0858                     u2491:
  5892     0858  285A               	goto	l2205
  5893     0859                     u2490:
  5894     0859                     l2203:
  5895     0859  1479               	bsf	___fladd@aexp,0
  5896     085A                     l2205:
  5897     085A  0879               	movf	___fladd@aexp,w
  5898     085B  1903               	btfsc	3,2
  5899     085C  285E               	goto	u2501
  5900     085D  285F               	goto	u2500
  5901     085E                     u2501:
  5902     085E  286F               	goto	l2215
  5903     085F                     u2500:
  5904     085F                     l2207:
  5905     085F  0A79               	incf	___fladd@aexp,w
  5906     0860  1D03               	btfss	3,2
  5907     0861  2863               	goto	u2511
  5908     0862  2864               	goto	u2510
  5909     0863                     u2511:
  5910     0863  286C               	goto	l2211
  5911     0864                     u2510:
  5912     0864                     l2209:
  5913     0864  3000               	movlw	0
  5914     0865  00F7               	movwf	___fladd@a+3
  5915     0866  3000               	movlw	0
  5916     0867  00F6               	movwf	___fladd@a+2
  5917     0868  3000               	movlw	0
  5918     0869  00F5               	movwf	___fladd@a+1
  5919     086A  3000               	movlw	0
  5920     086B  00F4               	movwf	___fladd@a
  5921     086C                     l2211:
  5922     086C  17F6               	bsf	___fladd@a+2,7
  5923     086D                     l2213:
  5924     086D  01F7               	clrf	___fladd@a+3
  5925     086E  2877               	goto	l507
  5926     086F                     l2215:
  5927     086F  3000               	movlw	0
  5928     0870  00F7               	movwf	___fladd@a+3
  5929     0871  3000               	movlw	0
  5930     0872  00F6               	movwf	___fladd@a+2
  5931     0873  3000               	movlw	0
  5932     0874  00F5               	movwf	___fladd@a+1
  5933     0875  3000               	movlw	0
  5934     0876  00F4               	movwf	___fladd@a
  5935     0877                     l507:
  5936     0877  087A               	movf	___fladd@bexp,w
  5937     0878  0279               	subwf	___fladd@aexp,w
  5938     0879  1803               	skipnc
  5939     087A  287C               	goto	u2521
  5940     087B  287D               	goto	u2520
  5941     087C                     u2521:
  5942     087C  28A1               	goto	l2251
  5943     087D                     u2520:
  5944     087D                     l2217:
  5945     087D  1F78               	btfss	___fladd@signs,6
  5946     087E  2880               	goto	u2531
  5947     087F  2881               	goto	u2530
  5948     0880                     u2531:
  5949     0880  2883               	goto	l2221
  5950     0881                     u2530:
  5951     0881                     l2219:
  5952     0881  3080               	movlw	128
  5953     0882  06F8               	xorwf	___fladd@signs,f
  5954     0883                     l2221:
  5955     0883  087A               	movf	___fladd@bexp,w
  5956     0884  00FB               	movwf	___fladd@grs
  5957     0885                     l2223:
  5958     0885  0879               	movf	___fladd@aexp,w
  5959     0886  00FA               	movwf	___fladd@bexp
  5960     0887                     l2225:
  5961     0887  087B               	movf	___fladd@grs,w
  5962     0888  00F9               	movwf	___fladd@aexp
  5963     0889                     l2227:
  5964     0889  0870               	movf	___fladd@b,w
  5965     088A  00FB               	movwf	___fladd@grs
  5966     088B                     l2229:
  5967     088B  0874               	movf	___fladd@a,w
  5968     088C  00F0               	movwf	___fladd@b
  5969     088D                     l2231:
  5970     088D  087B               	movf	___fladd@grs,w
  5971     088E  00F4               	movwf	___fladd@a
  5972     088F                     l2233:
  5973     088F  0871               	movf	___fladd@b+1,w
  5974     0890  00FB               	movwf	___fladd@grs
  5975     0891                     l2235:
  5976     0891  0875               	movf	___fladd@a+1,w
  5977     0892  00F1               	movwf	___fladd@b+1
  5978     0893                     l2237:
  5979     0893  087B               	movf	___fladd@grs,w
  5980     0894  00F5               	movwf	___fladd@a+1
  5981     0895                     l2239:
  5982     0895  0872               	movf	___fladd@b+2,w
  5983     0896  00FB               	movwf	___fladd@grs
  5984     0897                     l2241:
  5985     0897  0876               	movf	___fladd@a+2,w
  5986     0898  00F2               	movwf	___fladd@b+2
  5987     0899                     l2243:
  5988     0899  087B               	movf	___fladd@grs,w
  5989     089A  00F6               	movwf	___fladd@a+2
  5990     089B                     l2245:
  5991     089B  0873               	movf	___fladd@b+3,w
  5992     089C  00FB               	movwf	___fladd@grs
  5993     089D                     l2247:
  5994     089D  0877               	movf	___fladd@a+3,w
  5995     089E  00F3               	movwf	___fladd@b+3
  5996     089F                     l2249:
  5997     089F  087B               	movf	___fladd@grs,w
  5998     08A0  00F7               	movwf	___fladd@a+3
  5999     08A1                     l2251:
  6000     08A1  01FB               	clrf	___fladd@grs
  6001     08A2                     l2253:
  6002     08A2  0879               	movf	___fladd@aexp,w
  6003     08A3  00A0               	movwf	??___fladd
  6004     08A4  01A1               	clrf	??___fladd+1
  6005     08A5  0821               	movf	??___fladd+1,w
  6006     08A6  00A3               	movwf	??___fladd+3
  6007     08A7  087A               	movf	___fladd@bexp,w
  6008     08A8  0220               	subwf	??___fladd,w
  6009     08A9  00A2               	movwf	??___fladd+2
  6010     08AA  1C03               	skipc
  6011     08AB  03A3               	decf	??___fladd+3,f
  6012     08AC  0823               	movf	??___fladd+3,w
  6013     08AD  3A80               	xorlw	128
  6014     08AE  00FF               	movwf	btemp+1
  6015     08AF  3080               	movlw	128
  6016     08B0  027F               	subwf	btemp+1,w
  6017     08B1  1D03               	skipz
  6018     08B2  28B5               	goto	u2545
  6019     08B3  301A               	movlw	26
  6020     08B4  0222               	subwf	??___fladd+2,w
  6021     08B5                     u2545:
  6022     08B5  1C03               	skipc
  6023     08B6  28B8               	goto	u2541
  6024     08B7  28B9               	goto	u2540
  6025     08B8                     u2541:
  6026     08B8  28F0               	goto	l2269
  6027     08B9                     u2540:
  6028     08B9                     l2255:
  6029     08B9  0873               	movf	___fladd@b+3,w
  6030     08BA  0472               	iorwf	___fladd@b+2,w
  6031     08BB  0471               	iorwf	___fladd@b+1,w
  6032     08BC  0470               	iorwf	___fladd@b,w
  6033     08BD  1D03               	skipz
  6034     08BE  28C0               	goto	u2551
  6035     08BF  28C2               	goto	u2550
  6036     08C0                     u2551:
  6037     08C0  3001               	movlw	1
  6038     08C1  28C3               	goto	u2560
  6039     08C2                     u2550:
  6040     08C2  3000               	movlw	0
  6041     08C3                     u2560:
  6042     08C3  00FB               	movwf	___fladd@grs
  6043     08C4  3000               	movlw	0
  6044     08C5  00F3               	movwf	___fladd@b+3
  6045     08C6  3000               	movlw	0
  6046     08C7  00F2               	movwf	___fladd@b+2
  6047     08C8  3000               	movlw	0
  6048     08C9  00F1               	movwf	___fladd@b+1
  6049     08CA  3000               	movlw	0
  6050     08CB  00F0               	movwf	___fladd@b
  6051     08CC  0879               	movf	___fladd@aexp,w
  6052     08CD  00FA               	movwf	___fladd@bexp
  6053     08CE  28F6               	goto	l511
  6054     08CF                     l513:
  6055     08CF  1C7B               	btfss	___fladd@grs,0
  6056     08D0  28D2               	goto	u2571
  6057     08D1  28D3               	goto	u2570
  6058     08D2                     u2571:
  6059     08D2  28DC               	goto	l2259
  6060     08D3                     u2570:
  6061     08D3                     l2257:
  6062     08D3  087B               	movf	___fladd@grs,w
  6063     08D4  1283               	bcf	3,5	;RP0=0, select bank0
  6064     08D5  1303               	bcf	3,6	;RP1=0, select bank0
  6065     08D6  00A0               	movwf	??___fladd
  6066     08D7  1003               	clrc
  6067     08D8  0C20               	rrf	??___fladd,w
  6068     08D9  3801               	iorlw	1
  6069     08DA  00FB               	movwf	___fladd@grs
  6070     08DB  28DE               	goto	l2261
  6071     08DC                     l2259:
  6072     08DC  1003               	clrc
  6073     08DD  0CFB               	rrf	___fladd@grs,f
  6074     08DE                     l2261:
  6075     08DE  1C70               	btfss	___fladd@b,0
  6076     08DF  28E1               	goto	u2581
  6077     08E0  28E2               	goto	u2580
  6078     08E1                     u2581:
  6079     08E1  28E3               	goto	l2265
  6080     08E2                     u2580:
  6081     08E2                     l2263:
  6082     08E2  17FB               	bsf	___fladd@grs,7
  6083     08E3                     l2265:
  6084     08E3  3001               	movlw	1
  6085     08E4  1283               	bcf	3,5	;RP0=0, select bank0
  6086     08E5  1303               	bcf	3,6	;RP1=0, select bank0
  6087     08E6  00A0               	movwf	??___fladd
  6088     08E7                     u2595:
  6089     08E7  0D73               	rlf	___fladd@b+3,w
  6090     08E8  0CF3               	rrf	___fladd@b+3,f
  6091     08E9  0CF2               	rrf	___fladd@b+2,f
  6092     08EA  0CF1               	rrf	___fladd@b+1,f
  6093     08EB  0CF0               	rrf	___fladd@b,f
  6094     08EC  0BA0               	decfsz	??___fladd& (0+127),f
  6095     08ED  28E7               	goto	u2595
  6096     08EE                     l2267:
  6097     08EE  3001               	movlw	1
  6098     08EF  07FA               	addwf	___fladd@bexp,f
  6099     08F0                     l2269:
  6100     08F0  0879               	movf	___fladd@aexp,w
  6101     08F1  027A               	subwf	___fladd@bexp,w
  6102     08F2  1C03               	skipc
  6103     08F3  28F5               	goto	u2601
  6104     08F4  28F6               	goto	u2600
  6105     08F5                     u2601:
  6106     08F5  28CF               	goto	l513
  6107     08F6                     u2600:
  6108     08F6                     l511:
  6109     08F6  1B78               	btfsc	___fladd@signs,6
  6110     08F7  28F9               	goto	u2611
  6111     08F8  28FA               	goto	u2610
  6112     08F9                     u2611:
  6113     08F9  2945               	goto	l2295
  6114     08FA                     u2610:
  6115     08FA                     l2271:
  6116     08FA  087A               	movf	___fladd@bexp,w
  6117     08FB  1D03               	btfss	3,2
  6118     08FC  28FE               	goto	u2621
  6119     08FD  28FF               	goto	u2620
  6120     08FE                     u2621:
  6121     08FE  2908               	goto	l2277
  6122     08FF                     u2620:
  6123     08FF                     l2273:
  6124     08FF  3000               	movlw	0
  6125     0900  00F3               	movwf	?___fladd+3
  6126     0901  3000               	movlw	0
  6127     0902  00F2               	movwf	?___fladd+2
  6128     0903  3000               	movlw	0
  6129     0904  00F1               	movwf	?___fladd+1
  6130     0905  3000               	movlw	0
  6131     0906  00F0               	movwf	?___fladd
  6132     0907  2A75               	goto	l520
  6133     0908                     l2277:
  6134     0908  0874               	movf	___fladd@a,w
  6135     0909  07F0               	addwf	___fladd@b,f
  6136     090A  0875               	movf	___fladd@a+1,w
  6137     090B  1103               	clrz
  6138     090C  1803               	skipnc
  6139     090D  3E01               	addlw	1
  6140     090E  1903               	skipnz
  6141     090F  2911               	goto	u2631
  6142     0910  07F1               	addwf	___fladd@b+1,f
  6143     0911                     u2631:
  6144     0911  0876               	movf	___fladd@a+2,w
  6145     0912  1103               	clrz
  6146     0913  1803               	skipnc
  6147     0914  3E01               	addlw	1
  6148     0915  1903               	skipnz
  6149     0916  2918               	goto	u2632
  6150     0917  07F2               	addwf	___fladd@b+2,f
  6151     0918                     u2632:
  6152     0918  0877               	movf	___fladd@a+3,w
  6153     0919  1103               	clrz
  6154     091A  1803               	skipnc
  6155     091B  3E01               	addlw	1
  6156     091C  1903               	skipnz
  6157     091D  291F               	goto	u2633
  6158     091E  07F3               	addwf	___fladd@b+3,f
  6159     091F                     u2633:
  6160     091F                     l2279:
  6161     091F  1C73               	btfss	___fladd@b+3,0
  6162     0920  2922               	goto	u2641
  6163     0921  2923               	goto	u2640
  6164     0922                     u2641:
  6165     0922  29FD               	goto	l2331
  6166     0923                     u2640:
  6167     0923                     l2281:
  6168     0923  1C7B               	btfss	___fladd@grs,0
  6169     0924  2926               	goto	u2651
  6170     0925  2927               	goto	u2650
  6171     0926                     u2651:
  6172     0926  2930               	goto	l2285
  6173     0927                     u2650:
  6174     0927                     l2283:
  6175     0927  087B               	movf	___fladd@grs,w
  6176     0928  1283               	bcf	3,5	;RP0=0, select bank0
  6177     0929  1303               	bcf	3,6	;RP1=0, select bank0
  6178     092A  00A0               	movwf	??___fladd
  6179     092B  1003               	clrc
  6180     092C  0C20               	rrf	??___fladd,w
  6181     092D  3801               	iorlw	1
  6182     092E  00FB               	movwf	___fladd@grs
  6183     092F  2932               	goto	l2287
  6184     0930                     l2285:
  6185     0930  1003               	clrc
  6186     0931  0CFB               	rrf	___fladd@grs,f
  6187     0932                     l2287:
  6188     0932  1C70               	btfss	___fladd@b,0
  6189     0933  2935               	goto	u2661
  6190     0934  2936               	goto	u2660
  6191     0935                     u2661:
  6192     0935  2937               	goto	l2291
  6193     0936                     u2660:
  6194     0936                     l2289:
  6195     0936  17FB               	bsf	___fladd@grs,7
  6196     0937                     l2291:
  6197     0937  3001               	movlw	1
  6198     0938  1283               	bcf	3,5	;RP0=0, select bank0
  6199     0939  1303               	bcf	3,6	;RP1=0, select bank0
  6200     093A  00A0               	movwf	??___fladd
  6201     093B                     u2675:
  6202     093B  0D73               	rlf	___fladd@b+3,w
  6203     093C  0CF3               	rrf	___fladd@b+3,f
  6204     093D  0CF2               	rrf	___fladd@b+2,f
  6205     093E  0CF1               	rrf	___fladd@b+1,f
  6206     093F  0CF0               	rrf	___fladd@b,f
  6207     0940  0BA0               	decfsz	??___fladd& (0+127),f
  6208     0941  293B               	goto	u2675
  6209     0942                     l2293:
  6210     0942  3001               	movlw	1
  6211     0943  07FA               	addwf	___fladd@bexp,f
  6212     0944  29FD               	goto	l2331
  6213     0945                     l2295:
  6214     0945  0873               	movf	___fladd@b+3,w
  6215     0946  3A80               	xorlw	128
  6216     0947  00FF               	movwf	btemp+1
  6217     0948  0877               	movf	___fladd@a+3,w
  6218     0949  3A80               	xorlw	128
  6219     094A  027F               	subwf	btemp+1,w
  6220     094B  1D03               	skipz
  6221     094C  2957               	goto	u2683
  6222     094D  0876               	movf	___fladd@a+2,w
  6223     094E  0272               	subwf	___fladd@b+2,w
  6224     094F  1D03               	skipz
  6225     0950  2957               	goto	u2683
  6226     0951  0875               	movf	___fladd@a+1,w
  6227     0952  0271               	subwf	___fladd@b+1,w
  6228     0953  1D03               	skipz
  6229     0954  2957               	goto	u2683
  6230     0955  0874               	movf	___fladd@a,w
  6231     0956  0270               	subwf	___fladd@b,w
  6232     0957                     u2683:
  6233     0957  1803               	skipnc
  6234     0958  295A               	goto	u2681
  6235     0959  295B               	goto	u2680
  6236     095A                     u2681:
  6237     095A  29B4               	goto	l2307
  6238     095B                     u2680:
  6239     095B                     l2297:
  6240     095B  30FF               	movlw	255
  6241     095C  1283               	bcf	3,5	;RP0=0, select bank0
  6242     095D  1303               	bcf	3,6	;RP1=0, select bank0
  6243     095E  00A0               	movwf	??___fladd
  6244     095F  30FF               	movlw	255
  6245     0960  00A1               	movwf	??___fladd+1
  6246     0961  30FF               	movlw	255
  6247     0962  00A2               	movwf	??___fladd+2
  6248     0963  30FF               	movlw	255
  6249     0964  00A3               	movwf	??___fladd+3
  6250     0965  0874               	movf	___fladd@a,w
  6251     0966  00A4               	movwf	??___fladd+4
  6252     0967  0875               	movf	___fladd@a+1,w
  6253     0968  00A5               	movwf	??___fladd+5
  6254     0969  0876               	movf	___fladd@a+2,w
  6255     096A  00A6               	movwf	??___fladd+6
  6256     096B  0877               	movf	___fladd@a+3,w
  6257     096C  00A7               	movwf	??___fladd+7
  6258     096D  0870               	movf	___fladd@b,w
  6259     096E  02A4               	subwf	??___fladd+4,f
  6260     096F  0871               	movf	___fladd@b+1,w
  6261     0970  1C03               	skipc
  6262     0971  0F71               	incfsz	___fladd@b+1,w
  6263     0972  2974               	goto	u2691
  6264     0973  2975               	goto	u2692
  6265     0974                     u2691:
  6266     0974  02A5               	subwf	??___fladd+5,f
  6267     0975                     u2692:
  6268     0975  0872               	movf	___fladd@b+2,w
  6269     0976  1C03               	skipc
  6270     0977  0F72               	incfsz	___fladd@b+2,w
  6271     0978  297A               	goto	u2693
  6272     0979  297B               	goto	u2694
  6273     097A                     u2693:
  6274     097A  02A6               	subwf	??___fladd+6,f
  6275     097B                     u2694:
  6276     097B  0873               	movf	___fladd@b+3,w
  6277     097C  1C03               	skipc
  6278     097D  0F73               	incfsz	___fladd@b+3,w
  6279     097E  2980               	goto	u2695
  6280     097F  2981               	goto	u2696
  6281     0980                     u2695:
  6282     0980  02A7               	subwf	??___fladd+7,f
  6283     0981                     u2696:
  6284     0981  0824               	movf	??___fladd+4,w
  6285     0982  07A0               	addwf	??___fladd,f
  6286     0983  0825               	movf	??___fladd+5,w
  6287     0984  1803               	skipnc
  6288     0985  0F25               	incfsz	??___fladd+5,w
  6289     0986  2988               	goto	u2700
  6290     0987  2989               	goto	u2701
  6291     0988                     u2700:
  6292     0988  07A1               	addwf	??___fladd+1,f
  6293     0989                     u2701:
  6294     0989  0826               	movf	??___fladd+6,w
  6295     098A  1803               	skipnc
  6296     098B  0F26               	incfsz	??___fladd+6,w
  6297     098C  298E               	goto	u2702
  6298     098D  298F               	goto	u2703
  6299     098E                     u2702:
  6300     098E  07A2               	addwf	??___fladd+2,f
  6301     098F                     u2703:
  6302     098F  0827               	movf	??___fladd+7,w
  6303     0990  1803               	skipnc
  6304     0991  0A27               	incf	??___fladd+7,w
  6305     0992  07A3               	addwf	??___fladd+3,f
  6306     0993  0823               	movf	??___fladd+3,w
  6307     0994  00F3               	movwf	___fladd@b+3
  6308     0995  0822               	movf	??___fladd+2,w
  6309     0996  00F2               	movwf	___fladd@b+2
  6310     0997  0821               	movf	??___fladd+1,w
  6311     0998  00F1               	movwf	___fladd@b+1
  6312     0999  0820               	movf	??___fladd,w
  6313     099A  00F0               	movwf	___fladd@b
  6314     099B                     l2299:
  6315     099B  3080               	movlw	128
  6316     099C  06F8               	xorwf	___fladd@signs,f
  6317     099D                     l2301:
  6318     099D  037B               	decf	___fladd@grs,w
  6319     099E  3AFF               	xorlw	255
  6320     099F  00FB               	movwf	___fladd@grs
  6321     09A0                     l2303:
  6322     09A0  087B               	movf	___fladd@grs,w
  6323     09A1  1D03               	btfss	3,2
  6324     09A2  29A4               	goto	u2711
  6325     09A3  29A5               	goto	u2710
  6326     09A4                     u2711:
  6327     09A4  29C2               	goto	l528
  6328     09A5                     u2710:
  6329     09A5                     l2305:
  6330     09A5  3001               	movlw	1
  6331     09A6  07F0               	addwf	___fladd@b,f
  6332     09A7  3000               	movlw	0
  6333     09A8  1803               	skipnc
  6334     09A9  3001               	movlw	1
  6335     09AA  07F1               	addwf	___fladd@b+1,f
  6336     09AB  3000               	movlw	0
  6337     09AC  1803               	skipnc
  6338     09AD  3001               	movlw	1
  6339     09AE  07F2               	addwf	___fladd@b+2,f
  6340     09AF  3000               	movlw	0
  6341     09B0  1803               	skipnc
  6342     09B1  3001               	movlw	1
  6343     09B2  07F3               	addwf	___fladd@b+3,f
  6344     09B3  29C2               	goto	l528
  6345     09B4                     l2307:
  6346     09B4  0874               	movf	___fladd@a,w
  6347     09B5  02F0               	subwf	___fladd@b,f
  6348     09B6  0875               	movf	___fladd@a+1,w
  6349     09B7  1C03               	skipc
  6350     09B8  0F75               	incfsz	___fladd@a+1,w
  6351     09B9  02F1               	subwf	___fladd@b+1,f
  6352     09BA  0876               	movf	___fladd@a+2,w
  6353     09BB  1C03               	skipc
  6354     09BC  0F76               	incfsz	___fladd@a+2,w
  6355     09BD  02F2               	subwf	___fladd@b+2,f
  6356     09BE  0877               	movf	___fladd@a+3,w
  6357     09BF  1C03               	skipc
  6358     09C0  0F77               	incfsz	___fladd@a+3,w
  6359     09C1  02F3               	subwf	___fladd@b+3,f
  6360     09C2                     l528:
  6361     09C2  0873               	movf	___fladd@b+3,w
  6362     09C3  0472               	iorwf	___fladd@b+2,w
  6363     09C4  0471               	iorwf	___fladd@b+1,w
  6364     09C5  0470               	iorwf	___fladd@b,w
  6365     09C6  1D03               	skipz
  6366     09C7  29C9               	goto	u2721
  6367     09C8  29CA               	goto	u2720
  6368     09C9                     u2721:
  6369     09C9  29F9               	goto	l2329
  6370     09CA                     u2720:
  6371     09CA                     l2309:
  6372     09CA  087B               	movf	___fladd@grs,w
  6373     09CB  1D03               	btfss	3,2
  6374     09CC  29CE               	goto	u2731
  6375     09CD  29CF               	goto	u2730
  6376     09CE                     u2731:
  6377     09CE  29F9               	goto	l2329
  6378     09CF                     u2730:
  6379     09CF                     l2311:
  6380     09CF  3000               	movlw	0
  6381     09D0  00F3               	movwf	?___fladd+3
  6382     09D1  3000               	movlw	0
  6383     09D2  00F2               	movwf	?___fladd+2
  6384     09D3  3000               	movlw	0
  6385     09D4  00F1               	movwf	?___fladd+1
  6386     09D5  3000               	movlw	0
  6387     09D6  00F0               	movwf	?___fladd
  6388     09D7  2A75               	goto	l520
  6389     09D8                     l2315:
  6390     09D8  3001               	movlw	1
  6391     09D9  1283               	bcf	3,5	;RP0=0, select bank0
  6392     09DA  1303               	bcf	3,6	;RP1=0, select bank0
  6393     09DB  00A0               	movwf	??___fladd
  6394     09DC                     u2745:
  6395     09DC  1003               	clrc
  6396     09DD  0DF0               	rlf	___fladd@b,f
  6397     09DE  0DF1               	rlf	___fladd@b+1,f
  6398     09DF  0DF2               	rlf	___fladd@b+2,f
  6399     09E0  0DF3               	rlf	___fladd@b+3,f
  6400     09E1  0BA0               	decfsz	??___fladd,f
  6401     09E2  29DC               	goto	u2745
  6402     09E3                     l2317:
  6403     09E3  1FFB               	btfss	___fladd@grs,7
  6404     09E4  29E6               	goto	u2751
  6405     09E5  29E7               	goto	u2750
  6406     09E6                     u2751:
  6407     09E6  29E8               	goto	l532
  6408     09E7                     u2750:
  6409     09E7                     l2319:
  6410     09E7  1470               	bsf	___fladd@b,0
  6411     09E8                     l532:
  6412     09E8  1C7B               	btfss	___fladd@grs,0
  6413     09E9  29EB               	goto	u2761
  6414     09EA  29EC               	goto	u2760
  6415     09EB                     u2761:
  6416     09EB  29F0               	goto	l2323
  6417     09EC                     u2760:
  6418     09EC                     l2321:
  6419     09EC  1403               	setc
  6420     09ED  0D7B               	rlf	___fladd@grs,w
  6421     09EE  00FB               	movwf	___fladd@grs
  6422     09EF  29F2               	goto	l2325
  6423     09F0                     l2323:
  6424     09F0  1003               	clrc
  6425     09F1  0DFB               	rlf	___fladd@grs,f
  6426     09F2                     l2325:
  6427     09F2  087A               	movf	___fladd@bexp,w
  6428     09F3  1903               	btfsc	3,2
  6429     09F4  29F6               	goto	u2771
  6430     09F5  29F7               	goto	u2770
  6431     09F6                     u2771:
  6432     09F6  29F9               	goto	l2329
  6433     09F7                     u2770:
  6434     09F7                     l2327:
  6435     09F7  3001               	movlw	1
  6436     09F8  02FA               	subwf	___fladd@bexp,f
  6437     09F9                     l2329:
  6438     09F9  1FF2               	btfss	___fladd@b+2,7
  6439     09FA  29FC               	goto	u2781
  6440     09FB  29FD               	goto	u2780
  6441     09FC                     u2781:
  6442     09FC  29D8               	goto	l2315
  6443     09FD                     u2780:
  6444     09FD                     l2331:
  6445     09FD  01F9               	clrf	___fladd@aexp
  6446     09FE                     l2333:
  6447     09FE  1FFB               	btfss	___fladd@grs,7
  6448     09FF  2A01               	goto	u2791
  6449     0A00  2A02               	goto	u2790
  6450     0A01                     u2791:
  6451     0A01  2A10               	goto	l2341
  6452     0A02                     u2790:
  6453     0A02                     l2335:
  6454     0A02  087B               	movf	___fladd@grs,w
  6455     0A03  397F               	andlw	127
  6456     0A04  1903               	btfsc	3,2
  6457     0A05  2A07               	goto	u2801
  6458     0A06  2A08               	goto	u2800
  6459     0A07                     u2801:
  6460     0A07  2A0B               	goto	l538
  6461     0A08                     u2800:
  6462     0A08                     l2337:
  6463     0A08  3001               	movlw	1
  6464     0A09  00F9               	movwf	___fladd@aexp
  6465     0A0A  2A10               	goto	l2341
  6466     0A0B                     l538:
  6467     0A0B  1C70               	btfss	___fladd@b,0
  6468     0A0C  2A0E               	goto	u2811
  6469     0A0D  2A0F               	goto	u2810
  6470     0A0E                     u2811:
  6471     0A0E  2A10               	goto	l2341
  6472     0A0F                     u2810:
  6473     0A0F  2A08               	goto	l2337
  6474     0A10                     l2341:
  6475     0A10  0879               	movf	___fladd@aexp,w
  6476     0A11  1903               	btfsc	3,2
  6477     0A12  2A14               	goto	u2821
  6478     0A13  2A15               	goto	u2820
  6479     0A14                     u2821:
  6480     0A14  2A49               	goto	l541
  6481     0A15                     u2820:
  6482     0A15                     l2343:
  6483     0A15  3001               	movlw	1
  6484     0A16  07F0               	addwf	___fladd@b,f
  6485     0A17  3000               	movlw	0
  6486     0A18  1803               	skipnc
  6487     0A19  3001               	movlw	1
  6488     0A1A  07F1               	addwf	___fladd@b+1,f
  6489     0A1B  3000               	movlw	0
  6490     0A1C  1803               	skipnc
  6491     0A1D  3001               	movlw	1
  6492     0A1E  07F2               	addwf	___fladd@b+2,f
  6493     0A1F  3000               	movlw	0
  6494     0A20  1803               	skipnc
  6495     0A21  3001               	movlw	1
  6496     0A22  07F3               	addwf	___fladd@b+3,f
  6497     0A23                     l2345:
  6498     0A23  1C73               	btfss	___fladd@b+3,0
  6499     0A24  2A26               	goto	u2831
  6500     0A25  2A27               	goto	u2830
  6501     0A26                     u2831:
  6502     0A26  2A49               	goto	l541
  6503     0A27                     u2830:
  6504     0A27                     l2347:
  6505     0A27  0870               	movf	___fladd@b,w
  6506     0A28  1283               	bcf	3,5	;RP0=0, select bank0
  6507     0A29  1303               	bcf	3,6	;RP1=0, select bank0
  6508     0A2A  00A0               	movwf	??___fladd
  6509     0A2B  0871               	movf	___fladd@b+1,w
  6510     0A2C  00A1               	movwf	??___fladd+1
  6511     0A2D  0872               	movf	___fladd@b+2,w
  6512     0A2E  00A2               	movwf	??___fladd+2
  6513     0A2F  0873               	movf	___fladd@b+3,w
  6514     0A30  00A3               	movwf	??___fladd+3
  6515     0A31  3001               	movlw	1
  6516     0A32  00A4               	movwf	??___fladd+4
  6517     0A33                     u2845:
  6518     0A33  0D23               	rlf	??___fladd+3,w
  6519     0A34  0CA3               	rrf	??___fladd+3,f
  6520     0A35  0CA2               	rrf	??___fladd+2,f
  6521     0A36  0CA1               	rrf	??___fladd+1,f
  6522     0A37  0CA0               	rrf	??___fladd,f
  6523     0A38                     u2840:
  6524     0A38  0BA4               	decfsz	??___fladd+4,f
  6525     0A39  2A33               	goto	u2845
  6526     0A3A  0823               	movf	??___fladd+3,w
  6527     0A3B  00F3               	movwf	___fladd@b+3
  6528     0A3C  0822               	movf	??___fladd+2,w
  6529     0A3D  00F2               	movwf	___fladd@b+2
  6530     0A3E  0821               	movf	??___fladd+1,w
  6531     0A3F  00F1               	movwf	___fladd@b+1
  6532     0A40  0820               	movf	??___fladd,w
  6533     0A41  00F0               	movwf	___fladd@b
  6534     0A42  0A7A               	incf	___fladd@bexp,w
  6535     0A43  1903               	btfsc	3,2
  6536     0A44  2A46               	goto	u2851
  6537     0A45  2A47               	goto	u2850
  6538     0A46                     u2851:
  6539     0A46  2A49               	goto	l541
  6540     0A47                     u2850:
  6541     0A47                     l2349:
  6542     0A47  3001               	movlw	1
  6543     0A48  07FA               	addwf	___fladd@bexp,f
  6544     0A49                     l541:
  6545     0A49  0A7A               	incf	___fladd@bexp,w
  6546     0A4A  1903               	btfsc	3,2
  6547     0A4B  2A4D               	goto	u2861
  6548     0A4C  2A4E               	goto	u2860
  6549     0A4D                     u2861:
  6550     0A4D  2A53               	goto	l2353
  6551     0A4E                     u2860:
  6552     0A4E                     l2351:
  6553     0A4E  087A               	movf	___fladd@bexp,w
  6554     0A4F  1D03               	btfss	3,2
  6555     0A50  2A52               	goto	u2871
  6556     0A51  2A53               	goto	u2870
  6557     0A52                     u2871:
  6558     0A52  2A61               	goto	l2359
  6559     0A53                     u2870:
  6560     0A53                     l2353:
  6561     0A53  3000               	movlw	0
  6562     0A54  00F3               	movwf	___fladd@b+3
  6563     0A55  3000               	movlw	0
  6564     0A56  00F2               	movwf	___fladd@b+2
  6565     0A57  3000               	movlw	0
  6566     0A58  00F1               	movwf	___fladd@b+1
  6567     0A59  3000               	movlw	0
  6568     0A5A  00F0               	movwf	___fladd@b
  6569     0A5B                     l2355:
  6570     0A5B  087A               	movf	___fladd@bexp,w
  6571     0A5C  1D03               	btfss	3,2
  6572     0A5D  2A5F               	goto	u2881
  6573     0A5E  2A60               	goto	u2880
  6574     0A5F                     u2881:
  6575     0A5F  2A61               	goto	l2359
  6576     0A60                     u2880:
  6577     0A60                     l2357:
  6578     0A60  01F8               	clrf	___fladd@signs
  6579     0A61                     l2359:
  6580     0A61  1C7A               	btfss	___fladd@bexp,0
  6581     0A62  2A64               	goto	u2891
  6582     0A63  2A65               	goto	u2890
  6583     0A64                     u2891:
  6584     0A64  2A67               	goto	l2363
  6585     0A65                     u2890:
  6586     0A65                     l2361:
  6587     0A65  17F2               	bsf	___fladd@b+2,7
  6588     0A66  2A69               	goto	l549
  6589     0A67                     l2363:
  6590     0A67  307F               	movlw	127
  6591     0A68  05F2               	andwf	___fladd@b+2,f
  6592     0A69                     l549:
  6593     0A69  087A               	movf	___fladd@bexp,w
  6594     0A6A  1283               	bcf	3,5	;RP0=0, select bank0
  6595     0A6B  1303               	bcf	3,6	;RP1=0, select bank0
  6596     0A6C  00A0               	movwf	??___fladd
  6597     0A6D  1003               	clrc
  6598     0A6E  0C20               	rrf	??___fladd,w
  6599     0A6F  00F3               	movwf	___fladd@b+3
  6600     0A70                     l2365:
  6601     0A70  1FF8               	btfss	___fladd@signs,7
  6602     0A71  2A73               	goto	u2901
  6603     0A72  2A74               	goto	u2900
  6604     0A73                     u2901:
  6605     0A73  2A75               	goto	l550
  6606     0A74                     u2900:
  6607     0A74                     l2367:
  6608     0A74  17F3               	bsf	___fladd@b+3,7
  6609     0A75                     l550:
  6610     0A75                     l520:
  6611     0A75  0008               	return
  6612     0A76                     __end_of___fladd:
  6613                           
  6614                           	psect	text21
  6615     1AE5                     __ptext21:	
  6616 ;; *************** function ___flneg *****************
  6617 ;; Defined at:
  6618 ;;		line 15 in file "D:\Program Files\Microchip\xc8\v3.00\pic\sources\c99\common\flneg.c"
  6619 ;; Parameters:    Size  Location     Type
  6620 ;;  f1              4    0[COMMON] unsigned char 
  6621 ;; Auto vars:     Size  Location     Type
  6622 ;;		None
  6623 ;; Return value:  Size  Location     Type
  6624 ;;                  4    0[COMMON] unsigned char 
  6625 ;; Registers used:
  6626 ;;		wreg
  6627 ;; Tracked objects:
  6628 ;;		On entry : 0/0
  6629 ;;		On exit  : 0/0
  6630 ;;		Unchanged: 0/0
  6631 ;; Data sizes:     COMMON   BANK0   BANK1   BANK3   BANK2
  6632 ;;      Params:         4       0       0       0       0
  6633 ;;      Locals:         0       0       0       0       0
  6634 ;;      Temps:          0       0       0       0       0
  6635 ;;      Totals:         4       0       0       0       0
  6636 ;;Total ram usage:        4 bytes
  6637 ;; Hardware stack levels used: 1
  6638 ;; This function calls:
  6639 ;;		Nothing
  6640 ;; This function is called by:
  6641 ;;		_efgtoa
  6642 ;; This function uses a non-reentrant model
  6643 ;;
  6644                           
  6645     1AE5                     ___flneg:	
  6646                           ;psect for function ___flneg
  6647                           
  6648     1AE5                     l2437:	
  6649                           ;incstack = 0
  6650                           ; Regs used in ___flneg: [wreg]
  6651                           
  6652     1AE5  0873               	movf	___flneg@f1+3,w
  6653     1AE6  0472               	iorwf	___flneg@f1+2,w
  6654     1AE7  0471               	iorwf	___flneg@f1+1,w
  6655     1AE8  0470               	iorwf	___flneg@f1,w
  6656     1AE9  1903               	skipnz
  6657     1AEA  2AEC               	goto	u3091
  6658     1AEB  2AED               	goto	u3090
  6659     1AEC                     u3091:
  6660     1AEC  2AEF               	goto	l2441
  6661     1AED                     u3090:
  6662     1AED                     l2439:
  6663     1AED  3080               	movlw	128
  6664     1AEE  06F3               	xorwf	___flneg@f1+3,f
  6665     1AEF                     l2441:
  6666     1AEF                     l396:
  6667     1AEF  0008               	return
  6668     1AF0                     __end_of___flneg:
  6669                           
  6670                           	psect	text22
  6671     14BE                     __ptext22:	
  6672 ;; *************** function ___flmul *****************
  6673 ;; Defined at:
  6674 ;;		line 8 in file "D:\Program Files\Microchip\xc8\v3.00\pic\sources\c99\common\sprcmul.c"
  6675 ;; Parameters:    Size  Location     Type
  6676 ;;  b               4    0[BANK0 ] unsigned char 
  6677 ;;  a               4    4[BANK0 ] unsigned char 
  6678 ;; Auto vars:     Size  Location     Type
  6679 ;;  prod            4   15[BANK0 ] struct .
  6680 ;;  grs             4    9[BANK0 ] unsigned long 
  6681 ;;  temp            2   19[BANK0 ] struct .
  6682 ;;  bexp            1   14[BANK0 ] unsigned char 
  6683 ;;  aexp            1   13[BANK0 ] unsigned char 
  6684 ;;  sign            1    8[BANK0 ] unsigned char 
  6685 ;; Return value:  Size  Location     Type
  6686 ;;                  4    0[BANK0 ] unsigned char 
  6687 ;; Registers used:
  6688 ;;		wreg, status,2, status,0, btemp+1, pclath, cstack
  6689 ;; Tracked objects:
  6690 ;;		On entry : 0/0
  6691 ;;		On exit  : 0/0
  6692 ;;		Unchanged: 0/0
  6693 ;; Data sizes:     COMMON   BANK0   BANK1   BANK3   BANK2
  6694 ;;      Params:         0       8       0       0       0
  6695 ;;      Locals:         0      13       0       0       0
  6696 ;;      Temps:          5       0       0       0       0
  6697 ;;      Totals:         5      21       0       0       0
  6698 ;;Total ram usage:       26 bytes
  6699 ;; Hardware stack levels used: 1
  6700 ;; Hardware stack levels required when called: 1
  6701 ;; This function calls:
  6702 ;;		__Umul8_16
  6703 ;; This function is called by:
  6704 ;;		_efgtoa
  6705 ;; This function uses a non-reentrant model
  6706 ;;
  6707                           
  6708     14BE                     ___flmul:	
  6709                           ;psect for function ___flmul
  6710                           
  6711     14BE                     l2631:	
  6712                           ;incstack = 0
  6713                           ; Regs used in ___flmul: [wreg+status,2+status,0+btemp+1+pclath+cstack]
  6714                           
  6715     14BE  1283               	bcf	3,5	;RP0=0, select bank0
  6716     14BF  1303               	bcf	3,6	;RP1=0, select bank0
  6717     14C0  0823               	movf	___flmul@b+3,w
  6718     14C1  00A8               	movwf	___flmul@sign
  6719     14C2                     l2633:
  6720     14C2  3080               	movlw	128
  6721     14C3  05A8               	andwf	___flmul@sign,f
  6722     14C4                     l2635:
  6723     14C4  0823               	movf	___flmul@b+3,w
  6724     14C5  00F9               	movwf	??___flmul
  6725     14C6  0779               	addwf	??___flmul,w
  6726     14C7  00AE               	movwf	___flmul@bexp
  6727     14C8                     l2637:
  6728     14C8  1FA2               	btfss	___flmul@b+2,7
  6729     14C9  2CCB               	goto	u3501
  6730     14CA  2CCC               	goto	u3500
  6731     14CB                     u3501:
  6732     14CB  2CCD               	goto	l2641
  6733     14CC                     u3500:
  6734     14CC                     l2639:
  6735     14CC  142E               	bsf	___flmul@bexp,0
  6736     14CD                     l2641:
  6737     14CD  082E               	movf	___flmul@bexp,w
  6738     14CE  1903               	btfsc	3,2
  6739     14CF  2CD1               	goto	u3511
  6740     14D0  2CD2               	goto	u3510
  6741     14D1                     u3511:
  6742     14D1  2CE1               	goto	l2649
  6743     14D2                     u3510:
  6744     14D2                     l2643:
  6745     14D2  0A2E               	incf	___flmul@bexp,w
  6746     14D3  1D03               	btfss	3,2
  6747     14D4  2CD6               	goto	u3521
  6748     14D5  2CD7               	goto	u3520
  6749     14D6                     u3521:
  6750     14D6  2CDF               	goto	l2647
  6751     14D7                     u3520:
  6752     14D7                     l2645:
  6753     14D7  3000               	movlw	0
  6754     14D8  00A3               	movwf	___flmul@b+3
  6755     14D9  3000               	movlw	0
  6756     14DA  00A2               	movwf	___flmul@b+2
  6757     14DB  3000               	movlw	0
  6758     14DC  00A1               	movwf	___flmul@b+1
  6759     14DD  3000               	movlw	0
  6760     14DE  00A0               	movwf	___flmul@b
  6761     14DF                     l2647:
  6762     14DF  17A2               	bsf	___flmul@b+2,7
  6763     14E0  2CE9               	goto	l2651
  6764     14E1                     l2649:
  6765     14E1  3000               	movlw	0
  6766     14E2  00A3               	movwf	___flmul@b+3
  6767     14E3  3000               	movlw	0
  6768     14E4  00A2               	movwf	___flmul@b+2
  6769     14E5  3000               	movlw	0
  6770     14E6  00A1               	movwf	___flmul@b+1
  6771     14E7  3000               	movlw	0
  6772     14E8  00A0               	movwf	___flmul@b
  6773     14E9                     l2651:
  6774     14E9  0827               	movf	___flmul@a+3,w
  6775     14EA  3980               	andlw	128
  6776     14EB  06A8               	xorwf	___flmul@sign,f
  6777     14EC                     l2653:
  6778     14EC  0827               	movf	___flmul@a+3,w
  6779     14ED  00F9               	movwf	??___flmul
  6780     14EE  0779               	addwf	??___flmul,w
  6781     14EF  00AD               	movwf	___flmul@aexp
  6782     14F0                     l2655:
  6783     14F0  1FA6               	btfss	___flmul@a+2,7
  6784     14F1  2CF3               	goto	u3531
  6785     14F2  2CF4               	goto	u3530
  6786     14F3                     u3531:
  6787     14F3  2CF5               	goto	l2659
  6788     14F4                     u3530:
  6789     14F4                     l2657:
  6790     14F4  142D               	bsf	___flmul@aexp,0
  6791     14F5                     l2659:
  6792     14F5  082D               	movf	___flmul@aexp,w
  6793     14F6  1903               	btfsc	3,2
  6794     14F7  2CF9               	goto	u3541
  6795     14F8  2CFA               	goto	u3540
  6796     14F9                     u3541:
  6797     14F9  2D09               	goto	l2667
  6798     14FA                     u3540:
  6799     14FA                     l2661:
  6800     14FA  0A2D               	incf	___flmul@aexp,w
  6801     14FB  1D03               	btfss	3,2
  6802     14FC  2CFE               	goto	u3551
  6803     14FD  2CFF               	goto	u3550
  6804     14FE                     u3551:
  6805     14FE  2D07               	goto	l2665
  6806     14FF                     u3550:
  6807     14FF                     l2663:
  6808     14FF  3000               	movlw	0
  6809     1500  00A7               	movwf	___flmul@a+3
  6810     1501  3000               	movlw	0
  6811     1502  00A6               	movwf	___flmul@a+2
  6812     1503  3000               	movlw	0
  6813     1504  00A5               	movwf	___flmul@a+1
  6814     1505  3000               	movlw	0
  6815     1506  00A4               	movwf	___flmul@a
  6816     1507                     l2665:
  6817     1507  17A6               	bsf	___flmul@a+2,7
  6818     1508  2D11               	goto	l2669
  6819     1509                     l2667:
  6820     1509  3000               	movlw	0
  6821     150A  00A7               	movwf	___flmul@a+3
  6822     150B  3000               	movlw	0
  6823     150C  00A6               	movwf	___flmul@a+2
  6824     150D  3000               	movlw	0
  6825     150E  00A5               	movwf	___flmul@a+1
  6826     150F  3000               	movlw	0
  6827     1510  00A4               	movwf	___flmul@a
  6828     1511                     l2669:
  6829     1511  082D               	movf	___flmul@aexp,w
  6830     1512  1903               	btfsc	3,2
  6831     1513  2D15               	goto	u3561
  6832     1514  2D16               	goto	u3560
  6833     1515                     u3561:
  6834     1515  2D1B               	goto	l2673
  6835     1516                     u3560:
  6836     1516                     l2671:
  6837     1516  082E               	movf	___flmul@bexp,w
  6838     1517  1D03               	btfss	3,2
  6839     1518  2D1A               	goto	u3571
  6840     1519  2D1B               	goto	u3570
  6841     151A                     u3571:
  6842     151A  2D24               	goto	l2677
  6843     151B                     u3570:
  6844     151B                     l2673:
  6845     151B  3000               	movlw	0
  6846     151C  00A3               	movwf	?___flmul+3
  6847     151D  3000               	movlw	0
  6848     151E  00A2               	movwf	?___flmul+2
  6849     151F  3000               	movlw	0
  6850     1520  00A1               	movwf	?___flmul+1
  6851     1521  3000               	movlw	0
  6852     1522  00A0               	movwf	?___flmul
  6853     1523  2FFF               	goto	l603
  6854     1524                     l2677:
  6855     1524  0820               	movf	___flmul@b,w
  6856     1525  00F0               	movwf	__Umul8_16@multiplicand
  6857     1526  0826               	movf	___flmul@a+2,w
  6858     1527  160A  158A  23D0  160A  118A  	fcall	__Umul8_16
  6859     152C  0871               	movf	?__Umul8_16+1,w
  6860     152D  1283               	bcf	3,5	;RP0=0, select bank0
  6861     152E  1303               	bcf	3,6	;RP1=0, select bank0
  6862     152F  00B4               	movwf	___flmul@temp+1
  6863     1530  0870               	movf	?__Umul8_16,w
  6864     1531  00B3               	movwf	___flmul@temp
  6865     1532                     l2679:
  6866     1532  0833               	movf	___flmul@temp,w
  6867     1533  00F9               	movwf	??___flmul
  6868     1534  01FA               	clrf	??___flmul+1
  6869     1535  01FB               	clrf	??___flmul+2
  6870     1536  01FC               	clrf	??___flmul+3
  6871     1537  087C               	movf	??___flmul+3,w
  6872     1538  00AC               	movwf	___flmul@grs+3
  6873     1539  087B               	movf	??___flmul+2,w
  6874     153A  00AB               	movwf	___flmul@grs+2
  6875     153B  087A               	movf	??___flmul+1,w
  6876     153C  00AA               	movwf	___flmul@grs+1
  6877     153D  0879               	movf	??___flmul,w
  6878     153E  00A9               	movwf	___flmul@grs
  6879     153F                     l2681:
  6880     153F  0834               	movf	___flmul@temp+1,w
  6881     1540  00F9               	movwf	??___flmul
  6882     1541  01FA               	clrf	??___flmul+1
  6883     1542  01FB               	clrf	??___flmul+2
  6884     1543  01FC               	clrf	??___flmul+3
  6885     1544  087C               	movf	??___flmul+3,w
  6886     1545  00B2               	movwf	___flmul@prod+3
  6887     1546  087B               	movf	??___flmul+2,w
  6888     1547  00B1               	movwf	___flmul@prod+2
  6889     1548  087A               	movf	??___flmul+1,w
  6890     1549  00B0               	movwf	___flmul@prod+1
  6891     154A  0879               	movf	??___flmul,w
  6892     154B  00AF               	movwf	___flmul@prod
  6893     154C  0821               	movf	___flmul@b+1,w
  6894     154D  00F0               	movwf	__Umul8_16@multiplicand
  6895     154E  0825               	movf	___flmul@a+1,w
  6896     154F  160A  158A  23D0  160A  118A  	fcall	__Umul8_16
  6897     1554  0871               	movf	?__Umul8_16+1,w
  6898     1555  1283               	bcf	3,5	;RP0=0, select bank0
  6899     1556  1303               	bcf	3,6	;RP1=0, select bank0
  6900     1557  00B4               	movwf	___flmul@temp+1
  6901     1558  0870               	movf	?__Umul8_16,w
  6902     1559  00B3               	movwf	___flmul@temp
  6903     155A                     l2683:
  6904     155A  0833               	movf	___flmul@temp,w
  6905     155B  00F9               	movwf	??___flmul
  6906     155C  01FA               	clrf	??___flmul+1
  6907     155D  01FB               	clrf	??___flmul+2
  6908     155E  01FC               	clrf	??___flmul+3
  6909     155F  0879               	movf	??___flmul,w
  6910     1560  07A9               	addwf	___flmul@grs,f
  6911     1561  087A               	movf	??___flmul+1,w
  6912     1562  1103               	clrz
  6913     1563  1803               	skipnc
  6914     1564  3E01               	addlw	1
  6915     1565  1903               	skipnz
  6916     1566  2D68               	goto	u3581
  6917     1567  07AA               	addwf	___flmul@grs+1,f
  6918     1568                     u3581:
  6919     1568  087B               	movf	??___flmul+2,w
  6920     1569  1103               	clrz
  6921     156A  1803               	skipnc
  6922     156B  3E01               	addlw	1
  6923     156C  1903               	skipnz
  6924     156D  2D6F               	goto	u3582
  6925     156E  07AB               	addwf	___flmul@grs+2,f
  6926     156F                     u3582:
  6927     156F  087C               	movf	??___flmul+3,w
  6928     1570  1103               	clrz
  6929     1571  1803               	skipnc
  6930     1572  3E01               	addlw	1
  6931     1573  1903               	skipnz
  6932     1574  2D76               	goto	u3583
  6933     1575  07AC               	addwf	___flmul@grs+3,f
  6934     1576                     u3583:
  6935     1576                     l2685:
  6936     1576  0834               	movf	___flmul@temp+1,w
  6937     1577  00F9               	movwf	??___flmul
  6938     1578  01FA               	clrf	??___flmul+1
  6939     1579  01FB               	clrf	??___flmul+2
  6940     157A  01FC               	clrf	??___flmul+3
  6941     157B  0879               	movf	??___flmul,w
  6942     157C  07AF               	addwf	___flmul@prod,f
  6943     157D  087A               	movf	??___flmul+1,w
  6944     157E  1103               	clrz
  6945     157F  1803               	skipnc
  6946     1580  3E01               	addlw	1
  6947     1581  1903               	skipnz
  6948     1582  2D84               	goto	u3591
  6949     1583  07B0               	addwf	___flmul@prod+1,f
  6950     1584                     u3591:
  6951     1584  087B               	movf	??___flmul+2,w
  6952     1585  1103               	clrz
  6953     1586  1803               	skipnc
  6954     1587  3E01               	addlw	1
  6955     1588  1903               	skipnz
  6956     1589  2D8B               	goto	u3592
  6957     158A  07B1               	addwf	___flmul@prod+2,f
  6958     158B                     u3592:
  6959     158B  087C               	movf	??___flmul+3,w
  6960     158C  1103               	clrz
  6961     158D  1803               	skipnc
  6962     158E  3E01               	addlw	1
  6963     158F  1903               	skipnz
  6964     1590  2D92               	goto	u3593
  6965     1591  07B2               	addwf	___flmul@prod+3,f
  6966     1592                     u3593:
  6967     1592  0822               	movf	___flmul@b+2,w
  6968     1593  00F0               	movwf	__Umul8_16@multiplicand
  6969     1594  0824               	movf	___flmul@a,w
  6970     1595  160A  158A  23D0  160A  118A  	fcall	__Umul8_16
  6971     159A  0871               	movf	?__Umul8_16+1,w
  6972     159B  1283               	bcf	3,5	;RP0=0, select bank0
  6973     159C  1303               	bcf	3,6	;RP1=0, select bank0
  6974     159D  00B4               	movwf	___flmul@temp+1
  6975     159E  0870               	movf	?__Umul8_16,w
  6976     159F  00B3               	movwf	___flmul@temp
  6977     15A0                     l2687:
  6978     15A0  0833               	movf	___flmul@temp,w
  6979     15A1  00F9               	movwf	??___flmul
  6980     15A2  01FA               	clrf	??___flmul+1
  6981     15A3  01FB               	clrf	??___flmul+2
  6982     15A4  01FC               	clrf	??___flmul+3
  6983     15A5  0879               	movf	??___flmul,w
  6984     15A6  07A9               	addwf	___flmul@grs,f
  6985     15A7  087A               	movf	??___flmul+1,w
  6986     15A8  1103               	clrz
  6987     15A9  1803               	skipnc
  6988     15AA  3E01               	addlw	1
  6989     15AB  1903               	skipnz
  6990     15AC  2DAE               	goto	u3601
  6991     15AD  07AA               	addwf	___flmul@grs+1,f
  6992     15AE                     u3601:
  6993     15AE  087B               	movf	??___flmul+2,w
  6994     15AF  1103               	clrz
  6995     15B0  1803               	skipnc
  6996     15B1  3E01               	addlw	1
  6997     15B2  1903               	skipnz
  6998     15B3  2DB5               	goto	u3602
  6999     15B4  07AB               	addwf	___flmul@grs+2,f
  7000     15B5                     u3602:
  7001     15B5  087C               	movf	??___flmul+3,w
  7002     15B6  1103               	clrz
  7003     15B7  1803               	skipnc
  7004     15B8  3E01               	addlw	1
  7005     15B9  1903               	skipnz
  7006     15BA  2DBC               	goto	u3603
  7007     15BB  07AC               	addwf	___flmul@grs+3,f
  7008     15BC                     u3603:
  7009     15BC                     l2689:
  7010     15BC  0834               	movf	___flmul@temp+1,w
  7011     15BD  00F9               	movwf	??___flmul
  7012     15BE  01FA               	clrf	??___flmul+1
  7013     15BF  01FB               	clrf	??___flmul+2
  7014     15C0  01FC               	clrf	??___flmul+3
  7015     15C1  0879               	movf	??___flmul,w
  7016     15C2  07AF               	addwf	___flmul@prod,f
  7017     15C3  087A               	movf	??___flmul+1,w
  7018     15C4  1103               	clrz
  7019     15C5  1803               	skipnc
  7020     15C6  3E01               	addlw	1
  7021     15C7  1903               	skipnz
  7022     15C8  2DCA               	goto	u3611
  7023     15C9  07B0               	addwf	___flmul@prod+1,f
  7024     15CA                     u3611:
  7025     15CA  087B               	movf	??___flmul+2,w
  7026     15CB  1103               	clrz
  7027     15CC  1803               	skipnc
  7028     15CD  3E01               	addlw	1
  7029     15CE  1903               	skipnz
  7030     15CF  2DD1               	goto	u3612
  7031     15D0  07B1               	addwf	___flmul@prod+2,f
  7032     15D1                     u3612:
  7033     15D1  087C               	movf	??___flmul+3,w
  7034     15D2  1103               	clrz
  7035     15D3  1803               	skipnc
  7036     15D4  3E01               	addlw	1
  7037     15D5  1903               	skipnz
  7038     15D6  2DD8               	goto	u3613
  7039     15D7  07B2               	addwf	___flmul@prod+3,f
  7040     15D8                     u3613:
  7041     15D8                     l2691:
  7042     15D8  3008               	movlw	8
  7043     15D9  00F9               	movwf	??___flmul
  7044     15DA                     u3625:
  7045     15DA  1003               	clrc
  7046     15DB  0DA9               	rlf	___flmul@grs,f
  7047     15DC  0DAA               	rlf	___flmul@grs+1,f
  7048     15DD  0DAB               	rlf	___flmul@grs+2,f
  7049     15DE  0DAC               	rlf	___flmul@grs+3,f
  7050     15DF  0BF9               	decfsz	??___flmul,f
  7051     15E0  2DDA               	goto	u3625
  7052     15E1                     l2693:
  7053     15E1  0821               	movf	___flmul@b+1,w
  7054     15E2  00F0               	movwf	__Umul8_16@multiplicand
  7055     15E3  0824               	movf	___flmul@a,w
  7056     15E4  160A  158A  23D0  160A  118A  	fcall	__Umul8_16
  7057     15E9  0871               	movf	?__Umul8_16+1,w
  7058     15EA  1283               	bcf	3,5	;RP0=0, select bank0
  7059     15EB  1303               	bcf	3,6	;RP1=0, select bank0
  7060     15EC  00B4               	movwf	___flmul@temp+1
  7061     15ED  0870               	movf	?__Umul8_16,w
  7062     15EE  00B3               	movwf	___flmul@temp
  7063     15EF                     l2695:
  7064     15EF  0833               	movf	___flmul@temp,w
  7065     15F0  00F9               	movwf	??___flmul
  7066     15F1  0834               	movf	___flmul@temp+1,w
  7067     15F2  00FA               	movwf	??___flmul+1
  7068     15F3  01FB               	clrf	??___flmul+2
  7069     15F4  01FC               	clrf	??___flmul+3
  7070     15F5  0879               	movf	??___flmul,w
  7071     15F6  07A9               	addwf	___flmul@grs,f
  7072     15F7  087A               	movf	??___flmul+1,w
  7073     15F8  1103               	clrz
  7074     15F9  1803               	skipnc
  7075     15FA  3E01               	addlw	1
  7076     15FB  1903               	skipnz
  7077     15FC  2DFE               	goto	u3631
  7078     15FD  07AA               	addwf	___flmul@grs+1,f
  7079     15FE                     u3631:
  7080     15FE  087B               	movf	??___flmul+2,w
  7081     15FF  1103               	clrz
  7082     1600  1803               	skipnc
  7083     1601  3E01               	addlw	1
  7084     1602  1903               	skipnz
  7085     1603  2E05               	goto	u3632
  7086     1604  07AB               	addwf	___flmul@grs+2,f
  7087     1605                     u3632:
  7088     1605  087C               	movf	??___flmul+3,w
  7089     1606  1103               	clrz
  7090     1607  1803               	skipnc
  7091     1608  3E01               	addlw	1
  7092     1609  1903               	skipnz
  7093     160A  2E0C               	goto	u3633
  7094     160B  07AC               	addwf	___flmul@grs+3,f
  7095     160C                     u3633:
  7096     160C                     l2697:
  7097     160C  0820               	movf	___flmul@b,w
  7098     160D  00F0               	movwf	__Umul8_16@multiplicand
  7099     160E  0825               	movf	___flmul@a+1,w
  7100     160F  160A  158A  23D0  160A  118A  	fcall	__Umul8_16
  7101     1614  0871               	movf	?__Umul8_16+1,w
  7102     1615  1283               	bcf	3,5	;RP0=0, select bank0
  7103     1616  1303               	bcf	3,6	;RP1=0, select bank0
  7104     1617  00B4               	movwf	___flmul@temp+1
  7105     1618  0870               	movf	?__Umul8_16,w
  7106     1619  00B3               	movwf	___flmul@temp
  7107     161A                     l2699:
  7108     161A  0833               	movf	___flmul@temp,w
  7109     161B  00F9               	movwf	??___flmul
  7110     161C  0834               	movf	___flmul@temp+1,w
  7111     161D  00FA               	movwf	??___flmul+1
  7112     161E  01FB               	clrf	??___flmul+2
  7113     161F  01FC               	clrf	??___flmul+3
  7114     1620  0879               	movf	??___flmul,w
  7115     1621  07A9               	addwf	___flmul@grs,f
  7116     1622  087A               	movf	??___flmul+1,w
  7117     1623  1103               	clrz
  7118     1624  1803               	skipnc
  7119     1625  3E01               	addlw	1
  7120     1626  1903               	skipnz
  7121     1627  2E29               	goto	u3641
  7122     1628  07AA               	addwf	___flmul@grs+1,f
  7123     1629                     u3641:
  7124     1629  087B               	movf	??___flmul+2,w
  7125     162A  1103               	clrz
  7126     162B  1803               	skipnc
  7127     162C  3E01               	addlw	1
  7128     162D  1903               	skipnz
  7129     162E  2E30               	goto	u3642
  7130     162F  07AB               	addwf	___flmul@grs+2,f
  7131     1630                     u3642:
  7132     1630  087C               	movf	??___flmul+3,w
  7133     1631  1103               	clrz
  7134     1632  1803               	skipnc
  7135     1633  3E01               	addlw	1
  7136     1634  1903               	skipnz
  7137     1635  2E37               	goto	u3643
  7138     1636  07AC               	addwf	___flmul@grs+3,f
  7139     1637                     u3643:
  7140     1637                     l2701:
  7141     1637  3008               	movlw	8
  7142     1638  00F9               	movwf	??___flmul
  7143     1639                     u3655:
  7144     1639  1003               	clrc
  7145     163A  0DA9               	rlf	___flmul@grs,f
  7146     163B  0DAA               	rlf	___flmul@grs+1,f
  7147     163C  0DAB               	rlf	___flmul@grs+2,f
  7148     163D  0DAC               	rlf	___flmul@grs+3,f
  7149     163E  0BF9               	decfsz	??___flmul,f
  7150     163F  2E39               	goto	u3655
  7151     1640  0820               	movf	___flmul@b,w
  7152     1641  00F0               	movwf	__Umul8_16@multiplicand
  7153     1642  0824               	movf	___flmul@a,w
  7154     1643  160A  158A  23D0  160A  118A  	fcall	__Umul8_16
  7155     1648  0871               	movf	?__Umul8_16+1,w
  7156     1649  1283               	bcf	3,5	;RP0=0, select bank0
  7157     164A  1303               	bcf	3,6	;RP1=0, select bank0
  7158     164B  00B4               	movwf	___flmul@temp+1
  7159     164C  0870               	movf	?__Umul8_16,w
  7160     164D  00B3               	movwf	___flmul@temp
  7161     164E                     l2703:
  7162     164E  0833               	movf	___flmul@temp,w
  7163     164F  00F9               	movwf	??___flmul
  7164     1650  0834               	movf	___flmul@temp+1,w
  7165     1651  00FA               	movwf	??___flmul+1
  7166     1652  01FB               	clrf	??___flmul+2
  7167     1653  01FC               	clrf	??___flmul+3
  7168     1654  0879               	movf	??___flmul,w
  7169     1655  07A9               	addwf	___flmul@grs,f
  7170     1656  087A               	movf	??___flmul+1,w
  7171     1657  1103               	clrz
  7172     1658  1803               	skipnc
  7173     1659  3E01               	addlw	1
  7174     165A  1903               	skipnz
  7175     165B  2E5D               	goto	u3661
  7176     165C  07AA               	addwf	___flmul@grs+1,f
  7177     165D                     u3661:
  7178     165D  087B               	movf	??___flmul+2,w
  7179     165E  1103               	clrz
  7180     165F  1803               	skipnc
  7181     1660  3E01               	addlw	1
  7182     1661  1903               	skipnz
  7183     1662  2E64               	goto	u3662
  7184     1663  07AB               	addwf	___flmul@grs+2,f
  7185     1664                     u3662:
  7186     1664  087C               	movf	??___flmul+3,w
  7187     1665  1103               	clrz
  7188     1666  1803               	skipnc
  7189     1667  3E01               	addlw	1
  7190     1668  1903               	skipnz
  7191     1669  2E6B               	goto	u3663
  7192     166A  07AC               	addwf	___flmul@grs+3,f
  7193     166B                     u3663:
  7194     166B                     l2705:
  7195     166B  0821               	movf	___flmul@b+1,w
  7196     166C  00F0               	movwf	__Umul8_16@multiplicand
  7197     166D  0826               	movf	___flmul@a+2,w
  7198     166E  160A  158A  23D0  160A  118A  	fcall	__Umul8_16
  7199     1673  0871               	movf	?__Umul8_16+1,w
  7200     1674  1283               	bcf	3,5	;RP0=0, select bank0
  7201     1675  1303               	bcf	3,6	;RP1=0, select bank0
  7202     1676  00B4               	movwf	___flmul@temp+1
  7203     1677  0870               	movf	?__Umul8_16,w
  7204     1678  00B3               	movwf	___flmul@temp
  7205     1679  0833               	movf	___flmul@temp,w
  7206     167A  00F9               	movwf	??___flmul
  7207     167B  0834               	movf	___flmul@temp+1,w
  7208     167C  00FA               	movwf	??___flmul+1
  7209     167D  01FB               	clrf	??___flmul+2
  7210     167E  01FC               	clrf	??___flmul+3
  7211     167F  0879               	movf	??___flmul,w
  7212     1680  07AF               	addwf	___flmul@prod,f
  7213     1681  087A               	movf	??___flmul+1,w
  7214     1682  1103               	clrz
  7215     1683  1803               	skipnc
  7216     1684  3E01               	addlw	1
  7217     1685  1903               	skipnz
  7218     1686  2E88               	goto	u3671
  7219     1687  07B0               	addwf	___flmul@prod+1,f
  7220     1688                     u3671:
  7221     1688  087B               	movf	??___flmul+2,w
  7222     1689  1103               	clrz
  7223     168A  1803               	skipnc
  7224     168B  3E01               	addlw	1
  7225     168C  1903               	skipnz
  7226     168D  2E8F               	goto	u3672
  7227     168E  07B1               	addwf	___flmul@prod+2,f
  7228     168F                     u3672:
  7229     168F  087C               	movf	??___flmul+3,w
  7230     1690  1103               	clrz
  7231     1691  1803               	skipnc
  7232     1692  3E01               	addlw	1
  7233     1693  1903               	skipnz
  7234     1694  2E96               	goto	u3673
  7235     1695  07B2               	addwf	___flmul@prod+3,f
  7236     1696                     u3673:
  7237     1696                     l2707:
  7238     1696  0822               	movf	___flmul@b+2,w
  7239     1697  00F0               	movwf	__Umul8_16@multiplicand
  7240     1698  0825               	movf	___flmul@a+1,w
  7241     1699  160A  158A  23D0  160A  118A  	fcall	__Umul8_16
  7242     169E  0871               	movf	?__Umul8_16+1,w
  7243     169F  1283               	bcf	3,5	;RP0=0, select bank0
  7244     16A0  1303               	bcf	3,6	;RP1=0, select bank0
  7245     16A1  00B4               	movwf	___flmul@temp+1
  7246     16A2  0870               	movf	?__Umul8_16,w
  7247     16A3  00B3               	movwf	___flmul@temp
  7248     16A4                     l2709:
  7249     16A4  0833               	movf	___flmul@temp,w
  7250     16A5  00F9               	movwf	??___flmul
  7251     16A6  0834               	movf	___flmul@temp+1,w
  7252     16A7  00FA               	movwf	??___flmul+1
  7253     16A8  01FB               	clrf	??___flmul+2
  7254     16A9  01FC               	clrf	??___flmul+3
  7255     16AA  0879               	movf	??___flmul,w
  7256     16AB  07AF               	addwf	___flmul@prod,f
  7257     16AC  087A               	movf	??___flmul+1,w
  7258     16AD  1103               	clrz
  7259     16AE  1803               	skipnc
  7260     16AF  3E01               	addlw	1
  7261     16B0  1903               	skipnz
  7262     16B1  2EB3               	goto	u3681
  7263     16B2  07B0               	addwf	___flmul@prod+1,f
  7264     16B3                     u3681:
  7265     16B3  087B               	movf	??___flmul+2,w
  7266     16B4  1103               	clrz
  7267     16B5  1803               	skipnc
  7268     16B6  3E01               	addlw	1
  7269     16B7  1903               	skipnz
  7270     16B8  2EBA               	goto	u3682
  7271     16B9  07B1               	addwf	___flmul@prod+2,f
  7272     16BA                     u3682:
  7273     16BA  087C               	movf	??___flmul+3,w
  7274     16BB  1103               	clrz
  7275     16BC  1803               	skipnc
  7276     16BD  3E01               	addlw	1
  7277     16BE  1903               	skipnz
  7278     16BF  2EC1               	goto	u3683
  7279     16C0  07B2               	addwf	___flmul@prod+3,f
  7280     16C1                     u3683:
  7281     16C1  0822               	movf	___flmul@b+2,w
  7282     16C2  00F0               	movwf	__Umul8_16@multiplicand
  7283     16C3  0826               	movf	___flmul@a+2,w
  7284     16C4  160A  158A  23D0  160A  118A  	fcall	__Umul8_16
  7285     16C9  0871               	movf	?__Umul8_16+1,w
  7286     16CA  1283               	bcf	3,5	;RP0=0, select bank0
  7287     16CB  1303               	bcf	3,6	;RP1=0, select bank0
  7288     16CC  00B4               	movwf	___flmul@temp+1
  7289     16CD  0870               	movf	?__Umul8_16,w
  7290     16CE  00B3               	movwf	___flmul@temp
  7291     16CF                     l2711:
  7292     16CF  0833               	movf	___flmul@temp,w
  7293     16D0  00F9               	movwf	??___flmul
  7294     16D1  0834               	movf	___flmul@temp+1,w
  7295     16D2  00FA               	movwf	??___flmul+1
  7296     16D3  01FB               	clrf	??___flmul+2
  7297     16D4  01FC               	clrf	??___flmul+3
  7298     16D5  3008               	movlw	8
  7299     16D6                     u3695:
  7300     16D6  1003               	clrc
  7301     16D7  0DF9               	rlf	??___flmul,f
  7302     16D8  0DFA               	rlf	??___flmul+1,f
  7303     16D9  0DFB               	rlf	??___flmul+2,f
  7304     16DA  0DFC               	rlf	??___flmul+3,f
  7305     16DB                     u3690:
  7306     16DB  3EFF               	addlw	-1
  7307     16DC  1D03               	skipz
  7308     16DD  2ED6               	goto	u3695
  7309     16DE  0879               	movf	??___flmul,w
  7310     16DF  07AF               	addwf	___flmul@prod,f
  7311     16E0  087A               	movf	??___flmul+1,w
  7312     16E1  1103               	clrz
  7313     16E2  1803               	skipnc
  7314     16E3  3E01               	addlw	1
  7315     16E4  1903               	skipnz
  7316     16E5  2EE7               	goto	u3701
  7317     16E6  07B0               	addwf	___flmul@prod+1,f
  7318     16E7                     u3701:
  7319     16E7  087B               	movf	??___flmul+2,w
  7320     16E8  1103               	clrz
  7321     16E9  1803               	skipnc
  7322     16EA  3E01               	addlw	1
  7323     16EB  1903               	skipnz
  7324     16EC  2EEE               	goto	u3702
  7325     16ED  07B1               	addwf	___flmul@prod+2,f
  7326     16EE                     u3702:
  7327     16EE  087C               	movf	??___flmul+3,w
  7328     16EF  1103               	clrz
  7329     16F0  1803               	skipnc
  7330     16F1  3E01               	addlw	1
  7331     16F2  1903               	skipnz
  7332     16F3  2EF5               	goto	u3703
  7333     16F4  07B2               	addwf	___flmul@prod+3,f
  7334     16F5                     u3703:
  7335     16F5                     l2713:
  7336     16F5  0829               	movf	___flmul@grs,w
  7337     16F6  00F9               	movwf	??___flmul
  7338     16F7  082A               	movf	___flmul@grs+1,w
  7339     16F8  00FA               	movwf	??___flmul+1
  7340     16F9  082B               	movf	___flmul@grs+2,w
  7341     16FA  00FB               	movwf	??___flmul+2
  7342     16FB  082C               	movf	___flmul@grs+3,w
  7343     16FC  00FC               	movwf	??___flmul+3
  7344     16FD  3018               	movlw	24
  7345     16FE                     u3715:
  7346     16FE  1003               	clrc
  7347     16FF  0CFC               	rrf	??___flmul+3,f
  7348     1700  0CFB               	rrf	??___flmul+2,f
  7349     1701  0CFA               	rrf	??___flmul+1,f
  7350     1702  0CF9               	rrf	??___flmul,f
  7351     1703                     u3710:
  7352     1703  3EFF               	addlw	-1
  7353     1704  1D03               	skipz
  7354     1705  2EFE               	goto	u3715
  7355     1706  0879               	movf	??___flmul,w
  7356     1707  07AF               	addwf	___flmul@prod,f
  7357     1708  087A               	movf	??___flmul+1,w
  7358     1709  1103               	clrz
  7359     170A  1803               	skipnc
  7360     170B  3E01               	addlw	1
  7361     170C  1903               	skipnz
  7362     170D  2F0F               	goto	u3721
  7363     170E  07B0               	addwf	___flmul@prod+1,f
  7364     170F                     u3721:
  7365     170F  087B               	movf	??___flmul+2,w
  7366     1710  1103               	clrz
  7367     1711  1803               	skipnc
  7368     1712  3E01               	addlw	1
  7369     1713  1903               	skipnz
  7370     1714  2F16               	goto	u3722
  7371     1715  07B1               	addwf	___flmul@prod+2,f
  7372     1716                     u3722:
  7373     1716  087C               	movf	??___flmul+3,w
  7374     1717  1103               	clrz
  7375     1718  1803               	skipnc
  7376     1719  3E01               	addlw	1
  7377     171A  1903               	skipnz
  7378     171B  2F1D               	goto	u3723
  7379     171C  07B2               	addwf	___flmul@prod+3,f
  7380     171D                     u3723:
  7381     171D                     l2715:
  7382     171D  3008               	movlw	8
  7383     171E  00F9               	movwf	??___flmul
  7384     171F                     u3735:
  7385     171F  1003               	clrc
  7386     1720  0DA9               	rlf	___flmul@grs,f
  7387     1721  0DAA               	rlf	___flmul@grs+1,f
  7388     1722  0DAB               	rlf	___flmul@grs+2,f
  7389     1723  0DAC               	rlf	___flmul@grs+3,f
  7390     1724  0BF9               	decfsz	??___flmul,f
  7391     1725  2F1F               	goto	u3735
  7392     1726                     l2717:
  7393     1726  082E               	movf	___flmul@bexp,w
  7394     1727  072D               	addwf	___flmul@aexp,w
  7395     1728  00F9               	movwf	??___flmul
  7396     1729  01FA               	clrf	??___flmul+1
  7397     172A  0DFA               	rlf	??___flmul+1,f
  7398     172B  0879               	movf	??___flmul,w
  7399     172C  3E82               	addlw	130
  7400     172D  00B3               	movwf	___flmul@temp
  7401     172E  087A               	movf	??___flmul+1,w
  7402     172F  1803               	skipnc
  7403     1730  3E01               	addlw	1
  7404     1731  3EFF               	addlw	255
  7405     1732  00B4               	movwf	___flmul@temp+1
  7406     1733  2F51               	goto	l2729
  7407     1734                     l2719:
  7408     1734  3001               	movlw	1
  7409     1735  00F9               	movwf	??___flmul
  7410     1736                     u3745:
  7411     1736  1003               	clrc
  7412     1737  0DAF               	rlf	___flmul@prod,f
  7413     1738  0DB0               	rlf	___flmul@prod+1,f
  7414     1739  0DB1               	rlf	___flmul@prod+2,f
  7415     173A  0DB2               	rlf	___flmul@prod+3,f
  7416     173B  0BF9               	decfsz	??___flmul,f
  7417     173C  2F36               	goto	u3745
  7418     173D                     l2721:
  7419     173D  1FAC               	btfss	___flmul@grs+3,7
  7420     173E  2F40               	goto	u3751
  7421     173F  2F41               	goto	u3750
  7422     1740                     u3751:
  7423     1740  2F42               	goto	l2725
  7424     1741                     u3750:
  7425     1741                     l2723:
  7426     1741  142F               	bsf	___flmul@prod,0
  7427     1742                     l2725:
  7428     1742  3001               	movlw	1
  7429     1743  00F9               	movwf	??___flmul
  7430     1744                     u3765:
  7431     1744  1003               	clrc
  7432     1745  0DA9               	rlf	___flmul@grs,f
  7433     1746  0DAA               	rlf	___flmul@grs+1,f
  7434     1747  0DAB               	rlf	___flmul@grs+2,f
  7435     1748  0DAC               	rlf	___flmul@grs+3,f
  7436     1749  0BF9               	decfsz	??___flmul,f
  7437     174A  2F44               	goto	u3765
  7438     174B                     l2727:
  7439     174B  30FF               	movlw	255
  7440     174C  07B3               	addwf	___flmul@temp,f
  7441     174D  1803               	skipnc
  7442     174E  0AB4               	incf	___flmul@temp+1,f
  7443     174F  30FF               	movlw	255
  7444     1750  07B4               	addwf	___flmul@temp+1,f
  7445     1751                     l2729:
  7446     1751  1FB1               	btfss	___flmul@prod+2,7
  7447     1752  2F54               	goto	u3771
  7448     1753  2F55               	goto	u3770
  7449     1754                     u3771:
  7450     1754  2F34               	goto	l2719
  7451     1755                     u3770:
  7452     1755                     l2731:
  7453     1755  01AD               	clrf	___flmul@aexp
  7454     1756                     l2733:
  7455     1756  1FAC               	btfss	___flmul@grs+3,7
  7456     1757  2F59               	goto	u3781
  7457     1758  2F5A               	goto	u3780
  7458     1759                     u3781:
  7459     1759  2F76               	goto	l2741
  7460     175A                     u3780:
  7461     175A                     l2735:
  7462     175A  30FF               	movlw	255
  7463     175B  0529               	andwf	___flmul@grs,w
  7464     175C  00F9               	movwf	??___flmul
  7465     175D  30FF               	movlw	255
  7466     175E  052A               	andwf	___flmul@grs+1,w
  7467     175F  00FA               	movwf	??___flmul+1
  7468     1760  30FF               	movlw	255
  7469     1761  052B               	andwf	___flmul@grs+2,w
  7470     1762  00FB               	movwf	??___flmul+2
  7471     1763  307F               	movlw	127
  7472     1764  052C               	andwf	___flmul@grs+3,w
  7473     1765  00FC               	movwf	??___flmul+3
  7474     1766  087C               	movf	??___flmul+3,w
  7475     1767  047B               	iorwf	??___flmul+2,w
  7476     1768  047A               	iorwf	??___flmul+1,w
  7477     1769  0479               	iorwf	??___flmul,w
  7478     176A  1903               	skipnz
  7479     176B  2F6D               	goto	u3791
  7480     176C  2F6E               	goto	u3790
  7481     176D                     u3791:
  7482     176D  2F71               	goto	l609
  7483     176E                     u3790:
  7484     176E                     l2737:
  7485     176E  3001               	movlw	1
  7486     176F  00AD               	movwf	___flmul@aexp
  7487     1770  2F76               	goto	l2741
  7488     1771                     l609:
  7489     1771  1C2F               	btfss	___flmul@prod,0
  7490     1772  2F74               	goto	u3801
  7491     1773  2F75               	goto	u3800
  7492     1774                     u3801:
  7493     1774  2F76               	goto	l2741
  7494     1775                     u3800:
  7495     1775  2F6E               	goto	l2737
  7496     1776                     l2741:
  7497     1776  082D               	movf	___flmul@aexp,w
  7498     1777  1903               	btfsc	3,2
  7499     1778  2F7A               	goto	u3811
  7500     1779  2F7B               	goto	u3810
  7501     177A                     u3811:
  7502     177A  2FAC               	goto	l2751
  7503     177B                     u3810:
  7504     177B                     l2743:
  7505     177B  3001               	movlw	1
  7506     177C  07AF               	addwf	___flmul@prod,f
  7507     177D  3000               	movlw	0
  7508     177E  1803               	skipnc
  7509     177F  3001               	movlw	1
  7510     1780  07B0               	addwf	___flmul@prod+1,f
  7511     1781  3000               	movlw	0
  7512     1782  1803               	skipnc
  7513     1783  3001               	movlw	1
  7514     1784  07B1               	addwf	___flmul@prod+2,f
  7515     1785  3000               	movlw	0
  7516     1786  1803               	skipnc
  7517     1787  3001               	movlw	1
  7518     1788  07B2               	addwf	___flmul@prod+3,f
  7519     1789                     l2745:
  7520     1789  1C32               	btfss	___flmul@prod+3,0
  7521     178A  2F8C               	goto	u3821
  7522     178B  2F8D               	goto	u3820
  7523     178C                     u3821:
  7524     178C  2FAC               	goto	l2751
  7525     178D                     u3820:
  7526     178D                     l2747:
  7527     178D  082F               	movf	___flmul@prod,w
  7528     178E  00F9               	movwf	??___flmul
  7529     178F  0830               	movf	___flmul@prod+1,w
  7530     1790  00FA               	movwf	??___flmul+1
  7531     1791  0831               	movf	___flmul@prod+2,w
  7532     1792  00FB               	movwf	??___flmul+2
  7533     1793  0832               	movf	___flmul@prod+3,w
  7534     1794  00FC               	movwf	??___flmul+3
  7535     1795  3001               	movlw	1
  7536     1796  00FD               	movwf	??___flmul+4
  7537     1797                     u3835:
  7538     1797  0D7C               	rlf	??___flmul+3,w
  7539     1798  0CFC               	rrf	??___flmul+3,f
  7540     1799  0CFB               	rrf	??___flmul+2,f
  7541     179A  0CFA               	rrf	??___flmul+1,f
  7542     179B  0CF9               	rrf	??___flmul,f
  7543     179C                     u3830:
  7544     179C  0BFD               	decfsz	??___flmul+4,f
  7545     179D  2F97               	goto	u3835
  7546     179E  087C               	movf	??___flmul+3,w
  7547     179F  00B2               	movwf	___flmul@prod+3
  7548     17A0  087B               	movf	??___flmul+2,w
  7549     17A1  00B1               	movwf	___flmul@prod+2
  7550     17A2  087A               	movf	??___flmul+1,w
  7551     17A3  00B0               	movwf	___flmul@prod+1
  7552     17A4  0879               	movf	??___flmul,w
  7553     17A5  00AF               	movwf	___flmul@prod
  7554     17A6                     l2749:
  7555     17A6  3001               	movlw	1
  7556     17A7  07B3               	addwf	___flmul@temp,f
  7557     17A8  1803               	skipnc
  7558     17A9  0AB4               	incf	___flmul@temp+1,f
  7559     17AA  3000               	movlw	0
  7560     17AB  07B4               	addwf	___flmul@temp+1,f
  7561     17AC                     l2751:
  7562     17AC  0834               	movf	___flmul@temp+1,w
  7563     17AD  3A80               	xorlw	128
  7564     17AE  00FF               	movwf	btemp+1
  7565     17AF  3080               	movlw	128
  7566     17B0  027F               	subwf	btemp+1,w
  7567     17B1  1D03               	skipz
  7568     17B2  2FB5               	goto	u3845
  7569     17B3  30FF               	movlw	255
  7570     17B4  0233               	subwf	___flmul@temp,w
  7571     17B5                     u3845:
  7572     17B5  1C03               	skipc
  7573     17B6  2FB8               	goto	u3841
  7574     17B7  2FB9               	goto	u3840
  7575     17B8                     u3841:
  7576     17B8  2FC4               	goto	l2755
  7577     17B9                     u3840:
  7578     17B9                     l2753:
  7579     17B9  307F               	movlw	127
  7580     17BA  1283               	bcf	3,5	;RP0=0, select bank0
  7581     17BB  1303               	bcf	3,6	;RP1=0, select bank0
  7582     17BC  00B2               	movwf	___flmul@prod+3
  7583     17BD  3080               	movlw	128
  7584     17BE  00B1               	movwf	___flmul@prod+2
  7585     17BF  3000               	movlw	0
  7586     17C0  00B0               	movwf	___flmul@prod+1
  7587     17C1  3000               	movlw	0
  7588     17C2  00AF               	movwf	___flmul@prod
  7589     17C3  2FF5               	goto	l615
  7590     17C4                     l2755:
  7591     17C4  1283               	bcf	3,5	;RP0=0, select bank0
  7592     17C5  1303               	bcf	3,6	;RP1=0, select bank0
  7593     17C6  0834               	movf	___flmul@temp+1,w
  7594     17C7  3A80               	xorlw	128
  7595     17C8  00FF               	movwf	btemp+1
  7596     17C9  3080               	movlw	128
  7597     17CA  027F               	subwf	btemp+1,w
  7598     17CB  1D03               	skipz
  7599     17CC  2FCF               	goto	u3855
  7600     17CD  3001               	movlw	1
  7601     17CE  0233               	subwf	___flmul@temp,w
  7602     17CF                     u3855:
  7603     17CF  1803               	skipnc
  7604     17D0  2FD2               	goto	u3851
  7605     17D1  2FD3               	goto	u3850
  7606     17D2                     u3851:
  7607     17D2  2FDF               	goto	l2761
  7608     17D3                     u3850:
  7609     17D3                     l2757:
  7610     17D3  3000               	movlw	0
  7611     17D4  1283               	bcf	3,5	;RP0=0, select bank0
  7612     17D5  1303               	bcf	3,6	;RP1=0, select bank0
  7613     17D6  00B2               	movwf	___flmul@prod+3
  7614     17D7  3000               	movlw	0
  7615     17D8  00B1               	movwf	___flmul@prod+2
  7616     17D9  3000               	movlw	0
  7617     17DA  00B0               	movwf	___flmul@prod+1
  7618     17DB  3000               	movlw	0
  7619     17DC  00AF               	movwf	___flmul@prod
  7620     17DD                     l2759:
  7621     17DD  01A8               	clrf	___flmul@sign
  7622     17DE  2FF5               	goto	l615
  7623     17DF                     l2761:
  7624     17DF  1283               	bcf	3,5	;RP0=0, select bank0
  7625     17E0  1303               	bcf	3,6	;RP1=0, select bank0
  7626     17E1  0833               	movf	___flmul@temp,w
  7627     17E2  00AE               	movwf	___flmul@bexp
  7628     17E3  30FF               	movlw	255
  7629     17E4  05AF               	andwf	___flmul@prod,f
  7630     17E5  30FF               	movlw	255
  7631     17E6  05B0               	andwf	___flmul@prod+1,f
  7632     17E7  307F               	movlw	127
  7633     17E8  05B1               	andwf	___flmul@prod+2,f
  7634     17E9  3000               	movlw	0
  7635     17EA  05B2               	andwf	___flmul@prod+3,f
  7636     17EB                     l2763:
  7637     17EB  1C2E               	btfss	___flmul@bexp,0
  7638     17EC  2FEE               	goto	u3861
  7639     17ED  2FEF               	goto	u3860
  7640     17EE                     u3861:
  7641     17EE  2FF0               	goto	l2767
  7642     17EF                     u3860:
  7643     17EF                     l2765:
  7644     17EF  17B1               	bsf	___flmul@prod+2,7
  7645     17F0                     l2767:
  7646     17F0  082E               	movf	___flmul@bexp,w
  7647     17F1  00F9               	movwf	??___flmul
  7648     17F2  1003               	clrc
  7649     17F3  0C79               	rrf	??___flmul,w
  7650     17F4  00B2               	movwf	___flmul@prod+3
  7651     17F5                     l615:
  7652     17F5  0828               	movf	___flmul@sign,w
  7653     17F6  04B2               	iorwf	___flmul@prod+3,f
  7654     17F7                     l2769:
  7655     17F7  0832               	movf	___flmul@prod+3,w
  7656     17F8  00A3               	movwf	?___flmul+3
  7657     17F9  0831               	movf	___flmul@prod+2,w
  7658     17FA  00A2               	movwf	?___flmul+2
  7659     17FB  0830               	movf	___flmul@prod+1,w
  7660     17FC  00A1               	movwf	?___flmul+1
  7661     17FD  082F               	movf	___flmul@prod,w
  7662     17FE  00A0               	movwf	?___flmul
  7663     17FF                     l603:
  7664     17FF  0008               	return
  7665     1800                     __end_of___flmul:
  7666                           
  7667                           	psect	text23
  7668     1BD0                     __ptext23:	
  7669 ;; *************** function __Umul8_16 *****************
  7670 ;; Defined at:
  7671 ;;		line 4 in file "D:\Program Files\Microchip\xc8\v3.00\pic\sources\c99\common\Umul8_16.c"
  7672 ;; Parameters:    Size  Location     Type
  7673 ;;  multiplier      1    wreg     unsigned char 
  7674 ;;  multiplicand    1    0[COMMON] unsigned char 
  7675 ;; Auto vars:     Size  Location     Type
  7676 ;;  multiplier      1    8[COMMON] unsigned char 
  7677 ;;  word_mpld       2    6[COMMON] unsigned short 
  7678 ;;  product         2    4[COMMON] unsigned short 
  7679 ;; Return value:  Size  Location     Type
  7680 ;;                  2    0[COMMON] unsigned int 
  7681 ;; Registers used:
  7682 ;;		wreg, status,2, status,0
  7683 ;; Tracked objects:
  7684 ;;		On entry : 0/0
  7685 ;;		On exit  : 0/0
  7686 ;;		Unchanged: 0/0
  7687 ;; Data sizes:     COMMON   BANK0   BANK1   BANK3   BANK2
  7688 ;;      Params:         2       0       0       0       0
  7689 ;;      Locals:         5       0       0       0       0
  7690 ;;      Temps:          2       0       0       0       0
  7691 ;;      Totals:         9       0       0       0       0
  7692 ;;Total ram usage:        9 bytes
  7693 ;; Hardware stack levels used: 1
  7694 ;; This function calls:
  7695 ;;		Nothing
  7696 ;; This function is called by:
  7697 ;;		___flmul
  7698 ;; This function uses a non-reentrant model
  7699 ;;
  7700                           
  7701     1BD0                     __Umul8_16:	
  7702                           ;psect for function __Umul8_16
  7703                           
  7704                           
  7705                           ;incstack = 0
  7706                           ; Regs used in __Umul8_16: [wreg+status,2+status,0]
  7707                           ;__Umul8_16@multiplier stored from wreg
  7708     1BD0  00F8               	movwf	__Umul8_16@multiplier
  7709     1BD1                     l2369:
  7710     1BD1  01F4               	clrf	__Umul8_16@product
  7711     1BD2  01F5               	clrf	__Umul8_16@product+1
  7712     1BD3                     l2371:
  7713     1BD3  0870               	movf	__Umul8_16@multiplicand,w
  7714     1BD4  00F2               	movwf	??__Umul8_16
  7715     1BD5  01F3               	clrf	??__Umul8_16+1
  7716     1BD6  0872               	movf	??__Umul8_16,w
  7717     1BD7  00F6               	movwf	__Umul8_16@word_mpld
  7718     1BD8  0873               	movf	??__Umul8_16+1,w
  7719     1BD9  00F7               	movwf	__Umul8_16@word_mpld+1
  7720     1BDA                     l2373:
  7721     1BDA  1C78               	btfss	__Umul8_16@multiplier,0
  7722     1BDB  2BDD               	goto	u2911
  7723     1BDC  2BDE               	goto	u2910
  7724     1BDD                     u2911:
  7725     1BDD  2BE4               	goto	l622
  7726     1BDE                     u2910:
  7727     1BDE                     l2375:
  7728     1BDE  0876               	movf	__Umul8_16@word_mpld,w
  7729     1BDF  07F4               	addwf	__Umul8_16@product,f
  7730     1BE0  1803               	skipnc
  7731     1BE1  0AF5               	incf	__Umul8_16@product+1,f
  7732     1BE2  0877               	movf	__Umul8_16@word_mpld+1,w
  7733     1BE3  07F5               	addwf	__Umul8_16@product+1,f
  7734     1BE4                     l622:
  7735     1BE4  3001               	movlw	1
  7736     1BE5                     u2925:
  7737     1BE5  1003               	clrc
  7738     1BE6  0DF6               	rlf	__Umul8_16@word_mpld,f
  7739     1BE7  0DF7               	rlf	__Umul8_16@word_mpld+1,f
  7740     1BE8  3EFF               	addlw	-1
  7741     1BE9  1D03               	skipz
  7742     1BEA  2BE5               	goto	u2925
  7743     1BEB  1003               	clrc
  7744     1BEC  0CF8               	rrf	__Umul8_16@multiplier,f
  7745     1BED                     l2377:
  7746     1BED  0878               	movf	__Umul8_16@multiplier,w
  7747     1BEE  1D03               	btfss	3,2
  7748     1BEF  2BF1               	goto	u2931
  7749     1BF0  2BF2               	goto	u2930
  7750     1BF1                     u2931:
  7751     1BF1  2BDA               	goto	l2373
  7752     1BF2                     u2930:
  7753     1BF2                     l2379:
  7754     1BF2  0875               	movf	__Umul8_16@product+1,w
  7755     1BF3  00F1               	movwf	?__Umul8_16+1
  7756     1BF4  0874               	movf	__Umul8_16@product,w
  7757     1BF5  00F0               	movwf	?__Umul8_16
  7758     1BF6                     l624:
  7759     1BF6  0008               	return
  7760     1BF7                     __end_of__Umul8_16:
  7761                           
  7762                           	psect	text24
  7763     000C                     __ptext24:	
  7764 ;; *************** function ___flge *****************
  7765 ;; Defined at:
  7766 ;;		line 4 in file "D:\Program Files\Microchip\xc8\v3.00\pic\sources\c99\common\flge.c"
  7767 ;; Parameters:    Size  Location     Type
  7768 ;;  ff1             4   21[BANK0 ] unsigned int 
  7769 ;;  ff2             4   25[BANK0 ] unsigned int 
  7770 ;; Auto vars:     Size  Location     Type
  7771 ;;		None
  7772 ;; Return value:  Size  Location     Type
  7773 ;;		None               void
  7774 ;; Registers used:
  7775 ;;		wreg, status,2, status,0
  7776 ;; Tracked objects:
  7777 ;;		On entry : 0/0
  7778 ;;		On exit  : 0/0
  7779 ;;		Unchanged: 0/0
  7780 ;; Data sizes:     COMMON   BANK0   BANK1   BANK3   BANK2
  7781 ;;      Params:         0       8       0       0       0
  7782 ;;      Locals:         0       0       0       0       0
  7783 ;;      Temps:          0       4       0       0       0
  7784 ;;      Totals:         0      12       0       0       0
  7785 ;;Total ram usage:       12 bytes
  7786 ;; Hardware stack levels used: 1
  7787 ;; This function calls:
  7788 ;;		Nothing
  7789 ;; This function is called by:
  7790 ;;		_BatStatus
  7791 ;;		_efgtoa
  7792 ;; This function uses a non-reentrant model
  7793 ;;
  7794                           
  7795     000C                     ___flge:	
  7796                           ;psect for function ___flge
  7797                           
  7798     000C                     l2417:	
  7799                           ;incstack = 0
  7800                           ; Regs used in ___flge: [wreg+status,2+status,0]
  7801                           
  7802     000C  3000               	movlw	0
  7803     000D  1283               	bcf	3,5	;RP0=0, select bank0
  7804     000E  1303               	bcf	3,6	;RP1=0, select bank0
  7805     000F  0535               	andwf	___flge@ff1,w
  7806     0010  00BD               	movwf	??___flge
  7807     0011  3000               	movlw	0
  7808     0012  0536               	andwf	___flge@ff1+1,w
  7809     0013  00BE               	movwf	??___flge+1
  7810     0014  3080               	movlw	128
  7811     0015  0537               	andwf	___flge@ff1+2,w
  7812     0016  00BF               	movwf	??___flge+2
  7813     0017  307F               	movlw	127
  7814     0018  0538               	andwf	___flge@ff1+3,w
  7815     0019  00C0               	movwf	??___flge+3
  7816     001A  0840               	movf	??___flge+3,w
  7817     001B  043F               	iorwf	??___flge+2,w
  7818     001C  043E               	iorwf	??___flge+1,w
  7819     001D  043D               	iorwf	??___flge,w
  7820     001E  1D03               	skipz
  7821     001F  2821               	goto	u3021
  7822     0020  2822               	goto	u3020
  7823     0021                     u3021:
  7824     0021  282A               	goto	l384
  7825     0022                     u3020:
  7826     0022                     l2419:
  7827     0022  3000               	movlw	0
  7828     0023  00B8               	movwf	___flge@ff1+3
  7829     0024  3000               	movlw	0
  7830     0025  00B7               	movwf	___flge@ff1+2
  7831     0026  3000               	movlw	0
  7832     0027  00B6               	movwf	___flge@ff1+1
  7833     0028  3000               	movlw	0
  7834     0029  00B5               	movwf	___flge@ff1
  7835     002A                     l384:
  7836     002A  3000               	movlw	0
  7837     002B  0539               	andwf	___flge@ff2,w
  7838     002C  00BD               	movwf	??___flge
  7839     002D  3000               	movlw	0
  7840     002E  053A               	andwf	___flge@ff2+1,w
  7841     002F  00BE               	movwf	??___flge+1
  7842     0030  3080               	movlw	128
  7843     0031  053B               	andwf	___flge@ff2+2,w
  7844     0032  00BF               	movwf	??___flge+2
  7845     0033  307F               	movlw	127
  7846     0034  053C               	andwf	___flge@ff2+3,w
  7847     0035  00C0               	movwf	??___flge+3
  7848     0036  0840               	movf	??___flge+3,w
  7849     0037  043F               	iorwf	??___flge+2,w
  7850     0038  043E               	iorwf	??___flge+1,w
  7851     0039  043D               	iorwf	??___flge,w
  7852     003A  1D03               	skipz
  7853     003B  283D               	goto	u3031
  7854     003C  283E               	goto	u3030
  7855     003D                     u3031:
  7856     003D  2846               	goto	l2423
  7857     003E                     u3030:
  7858     003E                     l2421:
  7859     003E  3000               	movlw	0
  7860     003F  00BC               	movwf	___flge@ff2+3
  7861     0040  3000               	movlw	0
  7862     0041  00BB               	movwf	___flge@ff2+2
  7863     0042  3000               	movlw	0
  7864     0043  00BA               	movwf	___flge@ff2+1
  7865     0044  3000               	movlw	0
  7866     0045  00B9               	movwf	___flge@ff2
  7867     0046                     l2423:
  7868     0046  1FB8               	btfss	___flge@ff1+3,7
  7869     0047  2849               	goto	u3041
  7870     0048  284A               	goto	u3040
  7871     0049                     u3041:
  7872     0049  286E               	goto	l2427
  7873     004A                     u3040:
  7874     004A                     l2425:
  7875     004A  3000               	movlw	0
  7876     004B  00BD               	movwf	??___flge
  7877     004C  3000               	movlw	0
  7878     004D  00BE               	movwf	??___flge+1
  7879     004E  3000               	movlw	0
  7880     004F  00BF               	movwf	??___flge+2
  7881     0050  3080               	movlw	128
  7882     0051  00C0               	movwf	??___flge+3
  7883     0052  0835               	movf	___flge@ff1,w
  7884     0053  02BD               	subwf	??___flge,f
  7885     0054  0836               	movf	___flge@ff1+1,w
  7886     0055  1C03               	skipc
  7887     0056  0F36               	incfsz	___flge@ff1+1,w
  7888     0057  2859               	goto	u3051
  7889     0058  285A               	goto	u3052
  7890     0059                     u3051:
  7891     0059  02BE               	subwf	??___flge+1,f
  7892     005A                     u3052:
  7893     005A  0837               	movf	___flge@ff1+2,w
  7894     005B  1C03               	skipc
  7895     005C  0F37               	incfsz	___flge@ff1+2,w
  7896     005D  285F               	goto	u3053
  7897     005E  2860               	goto	u3054
  7898     005F                     u3053:
  7899     005F  02BF               	subwf	??___flge+2,f
  7900     0060                     u3054:
  7901     0060  0838               	movf	___flge@ff1+3,w
  7902     0061  1C03               	skipc
  7903     0062  0F38               	incfsz	___flge@ff1+3,w
  7904     0063  2865               	goto	u3055
  7905     0064  2866               	goto	u3056
  7906     0065                     u3055:
  7907     0065  02C0               	subwf	??___flge+3,f
  7908     0066                     u3056:
  7909     0066  0840               	movf	??___flge+3,w
  7910     0067  00B8               	movwf	___flge@ff1+3
  7911     0068  083F               	movf	??___flge+2,w
  7912     0069  00B7               	movwf	___flge@ff1+2
  7913     006A  083E               	movf	??___flge+1,w
  7914     006B  00B6               	movwf	___flge@ff1+1
  7915     006C  083D               	movf	??___flge,w
  7916     006D  00B5               	movwf	___flge@ff1
  7917     006E                     l2427:
  7918     006E  1FBC               	btfss	___flge@ff2+3,7
  7919     006F  2871               	goto	u3061
  7920     0070  2872               	goto	u3060
  7921     0071                     u3061:
  7922     0071  2896               	goto	l387
  7923     0072                     u3060:
  7924     0072                     l2429:
  7925     0072  3000               	movlw	0
  7926     0073  00BD               	movwf	??___flge
  7927     0074  3000               	movlw	0
  7928     0075  00BE               	movwf	??___flge+1
  7929     0076  3000               	movlw	0
  7930     0077  00BF               	movwf	??___flge+2
  7931     0078  3080               	movlw	128
  7932     0079  00C0               	movwf	??___flge+3
  7933     007A  0839               	movf	___flge@ff2,w
  7934     007B  02BD               	subwf	??___flge,f
  7935     007C  083A               	movf	___flge@ff2+1,w
  7936     007D  1C03               	skipc
  7937     007E  0F3A               	incfsz	___flge@ff2+1,w
  7938     007F  2881               	goto	u3071
  7939     0080  2882               	goto	u3072
  7940     0081                     u3071:
  7941     0081  02BE               	subwf	??___flge+1,f
  7942     0082                     u3072:
  7943     0082  083B               	movf	___flge@ff2+2,w
  7944     0083  1C03               	skipc
  7945     0084  0F3B               	incfsz	___flge@ff2+2,w
  7946     0085  2887               	goto	u3073
  7947     0086  2888               	goto	u3074
  7948     0087                     u3073:
  7949     0087  02BF               	subwf	??___flge+2,f
  7950     0088                     u3074:
  7951     0088  083C               	movf	___flge@ff2+3,w
  7952     0089  1C03               	skipc
  7953     008A  0F3C               	incfsz	___flge@ff2+3,w
  7954     008B  288D               	goto	u3075
  7955     008C  288E               	goto	u3076
  7956     008D                     u3075:
  7957     008D  02C0               	subwf	??___flge+3,f
  7958     008E                     u3076:
  7959     008E  0840               	movf	??___flge+3,w
  7960     008F  00BC               	movwf	___flge@ff2+3
  7961     0090  083F               	movf	??___flge+2,w
  7962     0091  00BB               	movwf	___flge@ff2+2
  7963     0092  083E               	movf	??___flge+1,w
  7964     0093  00BA               	movwf	___flge@ff2+1
  7965     0094  083D               	movf	??___flge,w
  7966     0095  00B9               	movwf	___flge@ff2
  7967     0096                     l387:
  7968     0096  3080               	movlw	128
  7969     0097  06B8               	xorwf	___flge@ff1+3,f
  7970     0098  3080               	movlw	128
  7971     0099  06BC               	xorwf	___flge@ff2+3,f
  7972     009A  083C               	movf	___flge@ff2+3,w
  7973     009B  0238               	subwf	___flge@ff1+3,w
  7974     009C  1D03               	skipz
  7975     009D  28A8               	goto	u3085
  7976     009E  083B               	movf	___flge@ff2+2,w
  7977     009F  0237               	subwf	___flge@ff1+2,w
  7978     00A0  1D03               	skipz
  7979     00A1  28A8               	goto	u3085
  7980     00A2  083A               	movf	___flge@ff2+1,w
  7981     00A3  0236               	subwf	___flge@ff1+1,w
  7982     00A4  1D03               	skipz
  7983     00A5  28A8               	goto	u3085
  7984     00A6  0839               	movf	___flge@ff2,w
  7985     00A7  0235               	subwf	___flge@ff1,w
  7986     00A8                     u3085:
  7987     00A8  1803               	skipnc
  7988     00A9  28AB               	goto	u3081
  7989     00AA  28AC               	goto	u3080
  7990     00AB                     u3081:
  7991     00AB  28AE               	goto	l2433
  7992     00AC                     u3080:
  7993     00AC                     l2431:
  7994     00AC  1003               	clrc
  7995     00AD  28AF               	goto	l392
  7996     00AE                     l2433:
  7997     00AE  1403               	setc
  7998     00AF                     l392:
  7999     00AF  0008               	return
  8000     00B0                     __end_of___flge:
  8001                           
  8002                           	psect	text25
  8003     1CC9                     __ptext25:	
  8004 ;; *************** function ___fleq *****************
  8005 ;; Defined at:
  8006 ;;		line 4 in file "D:\Program Files\Microchip\xc8\v3.00\pic\sources\c99\common\fleq.c"
  8007 ;; Parameters:    Size  Location     Type
  8008 ;;  ff1             4    0[COMMON] unsigned int 
  8009 ;;  ff2             4    4[COMMON] unsigned int 
  8010 ;; Auto vars:     Size  Location     Type
  8011 ;;		None
  8012 ;; Return value:  Size  Location     Type
  8013 ;;		None               void
  8014 ;; Registers used:
  8015 ;;		wreg, status,2, status,0
  8016 ;; Tracked objects:
  8017 ;;		On entry : 0/0
  8018 ;;		On exit  : 0/0
  8019 ;;		Unchanged: 0/0
  8020 ;; Data sizes:     COMMON   BANK0   BANK1   BANK3   BANK2
  8021 ;;      Params:         8       0       0       0       0
  8022 ;;      Locals:         0       0       0       0       0
  8023 ;;      Temps:          4       0       0       0       0
  8024 ;;      Totals:        12       0       0       0       0
  8025 ;;Total ram usage:       12 bytes
  8026 ;; Hardware stack levels used: 1
  8027 ;; This function calls:
  8028 ;;		Nothing
  8029 ;; This function is called by:
  8030 ;;		_efgtoa
  8031 ;; This function uses a non-reentrant model
  8032 ;;
  8033                           
  8034     1CC9                     ___fleq:	
  8035                           ;psect for function ___fleq
  8036                           
  8037     1CC9                     l2405:	
  8038                           ;incstack = 0
  8039                           ; Regs used in ___fleq: [wreg+status,2+status,0]
  8040                           
  8041     1CC9  3000               	movlw	0
  8042     1CCA  0570               	andwf	___fleq@ff1,w
  8043     1CCB  00F8               	movwf	??___fleq
  8044     1CCC  3000               	movlw	0
  8045     1CCD  0571               	andwf	___fleq@ff1+1,w
  8046     1CCE  00F9               	movwf	??___fleq+1
  8047     1CCF  3080               	movlw	128
  8048     1CD0  0572               	andwf	___fleq@ff1+2,w
  8049     1CD1  00FA               	movwf	??___fleq+2
  8050     1CD2  307F               	movlw	127
  8051     1CD3  0573               	andwf	___fleq@ff1+3,w
  8052     1CD4  00FB               	movwf	??___fleq+3
  8053     1CD5  087B               	movf	??___fleq+3,w
  8054     1CD6  047A               	iorwf	??___fleq+2,w
  8055     1CD7  0479               	iorwf	??___fleq+1,w
  8056     1CD8  0478               	iorwf	??___fleq,w
  8057     1CD9  1D03               	skipz
  8058     1CDA  2CDC               	goto	u2991
  8059     1CDB  2CDD               	goto	u2990
  8060     1CDC                     u2991:
  8061     1CDC  2CE5               	goto	l375
  8062     1CDD                     u2990:
  8063     1CDD                     l2407:
  8064     1CDD  3000               	movlw	0
  8065     1CDE  00F3               	movwf	___fleq@ff1+3
  8066     1CDF  3000               	movlw	0
  8067     1CE0  00F2               	movwf	___fleq@ff1+2
  8068     1CE1  3000               	movlw	0
  8069     1CE2  00F1               	movwf	___fleq@ff1+1
  8070     1CE3  3000               	movlw	0
  8071     1CE4  00F0               	movwf	___fleq@ff1
  8072     1CE5                     l375:
  8073     1CE5  3000               	movlw	0
  8074     1CE6  0574               	andwf	___fleq@ff2,w
  8075     1CE7  00F8               	movwf	??___fleq
  8076     1CE8  3000               	movlw	0
  8077     1CE9  0575               	andwf	___fleq@ff2+1,w
  8078     1CEA  00F9               	movwf	??___fleq+1
  8079     1CEB  3080               	movlw	128
  8080     1CEC  0576               	andwf	___fleq@ff2+2,w
  8081     1CED  00FA               	movwf	??___fleq+2
  8082     1CEE  307F               	movlw	127
  8083     1CEF  0577               	andwf	___fleq@ff2+3,w
  8084     1CF0  00FB               	movwf	??___fleq+3
  8085     1CF1  087B               	movf	??___fleq+3,w
  8086     1CF2  047A               	iorwf	??___fleq+2,w
  8087     1CF3  0479               	iorwf	??___fleq+1,w
  8088     1CF4  0478               	iorwf	??___fleq,w
  8089     1CF5  1D03               	skipz
  8090     1CF6  2CF8               	goto	u3001
  8091     1CF7  2CF9               	goto	u3000
  8092     1CF8                     u3001:
  8093     1CF8  2D01               	goto	l376
  8094     1CF9                     u3000:
  8095     1CF9                     l2409:
  8096     1CF9  3000               	movlw	0
  8097     1CFA  00F7               	movwf	___fleq@ff2+3
  8098     1CFB  3000               	movlw	0
  8099     1CFC  00F6               	movwf	___fleq@ff2+2
  8100     1CFD  3000               	movlw	0
  8101     1CFE  00F5               	movwf	___fleq@ff2+1
  8102     1CFF  3000               	movlw	0
  8103     1D00  00F4               	movwf	___fleq@ff2
  8104     1D01                     l376:
  8105     1D01  0877               	movf	___fleq@ff2+3,w
  8106     1D02  0673               	xorwf	___fleq@ff1+3,w
  8107     1D03  1D03               	skipz
  8108     1D04  2D0F               	goto	u3015
  8109     1D05  0876               	movf	___fleq@ff2+2,w
  8110     1D06  0672               	xorwf	___fleq@ff1+2,w
  8111     1D07  1D03               	skipz
  8112     1D08  2D0F               	goto	u3015
  8113     1D09  0875               	movf	___fleq@ff2+1,w
  8114     1D0A  0671               	xorwf	___fleq@ff1+1,w
  8115     1D0B  1D03               	skipz
  8116     1D0C  2D0F               	goto	u3015
  8117     1D0D  0874               	movf	___fleq@ff2,w
  8118     1D0E  0670               	xorwf	___fleq@ff1,w
  8119     1D0F                     u3015:
  8120     1D0F  1903               	skipnz
  8121     1D10  2D12               	goto	u3011
  8122     1D11  2D13               	goto	u3010
  8123     1D12                     u3011:
  8124     1D12  2D15               	goto	l2413
  8125     1D13                     u3010:
  8126     1D13                     l2411:
  8127     1D13  1003               	clrc
  8128     1D14  2D16               	goto	l381
  8129     1D15                     l2413:
  8130     1D15  1403               	setc
  8131     1D16                     l381:
  8132     1D16  0008               	return
  8133     1D17                     __end_of___fleq:
  8134                           
  8135                           	psect	text26
  8136     12EE                     __ptext26:	
  8137 ;; *************** function ___fldiv *****************
  8138 ;; Defined at:
  8139 ;;		line 8 in file "D:\Program Files\Microchip\xc8\v3.00\pic\sources\c99\common\sprcdiv.c"
  8140 ;; Parameters:    Size  Location     Type
  8141 ;;  a               4    0[COMMON] unsigned int 
  8142 ;;  b               4    4[COMMON] unsigned int 
  8143 ;; Auto vars:     Size  Location     Type
  8144 ;;  grs             4    7[BANK0 ] unsigned long 
  8145 ;;  rem             4    0[BANK0 ] unsigned long 
  8146 ;;  new_exp         2    5[BANK0 ] short 
  8147 ;;  aexp            1   12[BANK0 ] unsigned char 
  8148 ;;  bexp            1   11[BANK0 ] unsigned char 
  8149 ;;  sign            1    4[BANK0 ] unsigned char 
  8150 ;; Return value:  Size  Location     Type
  8151 ;;                  4    0[COMMON] unsigned char 
  8152 ;; Registers used:
  8153 ;;		wreg, status,2, status,0, btemp+1
  8154 ;; Tracked objects:
  8155 ;;		On entry : 0/0
  8156 ;;		On exit  : 0/0
  8157 ;;		Unchanged: 0/0
  8158 ;; Data sizes:     COMMON   BANK0   BANK1   BANK3   BANK2
  8159 ;;      Params:         8       0       0       0       0
  8160 ;;      Locals:         0      13       0       0       0
  8161 ;;      Temps:          5       0       0       0       0
  8162 ;;      Totals:        13      13       0       0       0
  8163 ;;Total ram usage:       26 bytes
  8164 ;; Hardware stack levels used: 1
  8165 ;; This function calls:
  8166 ;;		Nothing
  8167 ;; This function is called by:
  8168 ;;		_efgtoa
  8169 ;; This function uses a non-reentrant model
  8170 ;;
  8171                           
  8172     12EE                     ___fldiv:	
  8173                           ;psect for function ___fldiv
  8174                           
  8175     12EE                     l2487:	
  8176                           ;incstack = 0
  8177                           ; Regs used in ___fldiv: [wreg+status,2+status,0+btemp+1]
  8178                           
  8179     12EE  0877               	movf	___fldiv@b+3,w
  8180     12EF  1283               	bcf	3,5	;RP0=0, select bank0
  8181     12F0  1303               	bcf	3,6	;RP1=0, select bank0
  8182     12F1  00A4               	movwf	___fldiv@sign
  8183     12F2                     l2489:
  8184     12F2  3080               	movlw	128
  8185     12F3  05A4               	andwf	___fldiv@sign,f
  8186     12F4                     l2491:
  8187     12F4  0877               	movf	___fldiv@b+3,w
  8188     12F5  00F8               	movwf	??___fldiv
  8189     12F6  0778               	addwf	??___fldiv,w
  8190     12F7  00AB               	movwf	___fldiv@bexp
  8191     12F8                     l2493:
  8192     12F8  1FF6               	btfss	___fldiv@b+2,7
  8193     12F9  2AFB               	goto	u3201
  8194     12FA  2AFC               	goto	u3200
  8195     12FB                     u3201:
  8196     12FB  2AFD               	goto	l2497
  8197     12FC                     u3200:
  8198     12FC                     l2495:
  8199     12FC  142B               	bsf	___fldiv@bexp,0
  8200     12FD                     l2497:
  8201     12FD  082B               	movf	___fldiv@bexp,w
  8202     12FE  1903               	btfsc	3,2
  8203     12FF  2B01               	goto	u3211
  8204     1300  2B02               	goto	u3210
  8205     1301                     u3211:
  8206     1301  2B12               	goto	l2507
  8207     1302                     u3210:
  8208     1302                     l2499:
  8209     1302  0A2B               	incf	___fldiv@bexp,w
  8210     1303  1D03               	btfss	3,2
  8211     1304  2B06               	goto	u3221
  8212     1305  2B07               	goto	u3220
  8213     1306                     u3221:
  8214     1306  2B0F               	goto	l2503
  8215     1307                     u3220:
  8216     1307                     l2501:
  8217     1307  3000               	movlw	0
  8218     1308  00F7               	movwf	___fldiv@b+3
  8219     1309  3000               	movlw	0
  8220     130A  00F6               	movwf	___fldiv@b+2
  8221     130B  3000               	movlw	0
  8222     130C  00F5               	movwf	___fldiv@b+1
  8223     130D  3000               	movlw	0
  8224     130E  00F4               	movwf	___fldiv@b
  8225     130F                     l2503:
  8226     130F  17F6               	bsf	___fldiv@b+2,7
  8227     1310                     l2505:
  8228     1310  01F7               	clrf	___fldiv@b+3
  8229     1311  2B1A               	goto	l2509
  8230     1312                     l2507:
  8231     1312  3000               	movlw	0
  8232     1313  00F7               	movwf	___fldiv@b+3
  8233     1314  3000               	movlw	0
  8234     1315  00F6               	movwf	___fldiv@b+2
  8235     1316  3000               	movlw	0
  8236     1317  00F5               	movwf	___fldiv@b+1
  8237     1318  3000               	movlw	0
  8238     1319  00F4               	movwf	___fldiv@b
  8239     131A                     l2509:
  8240     131A  0873               	movf	___fldiv@a+3,w
  8241     131B  3980               	andlw	128
  8242     131C  06A4               	xorwf	___fldiv@sign,f
  8243     131D                     l2511:
  8244     131D  0873               	movf	___fldiv@a+3,w
  8245     131E  00F8               	movwf	??___fldiv
  8246     131F  0778               	addwf	??___fldiv,w
  8247     1320  00AC               	movwf	___fldiv@aexp
  8248     1321                     l2513:
  8249     1321  1FF2               	btfss	___fldiv@a+2,7
  8250     1322  2B24               	goto	u3231
  8251     1323  2B25               	goto	u3230
  8252     1324                     u3231:
  8253     1324  2B26               	goto	l2517
  8254     1325                     u3230:
  8255     1325                     l2515:
  8256     1325  142C               	bsf	___fldiv@aexp,0
  8257     1326                     l2517:
  8258     1326  082C               	movf	___fldiv@aexp,w
  8259     1327  1903               	btfsc	3,2
  8260     1328  2B2A               	goto	u3241
  8261     1329  2B2B               	goto	u3240
  8262     132A                     u3241:
  8263     132A  2B3B               	goto	l2527
  8264     132B                     u3240:
  8265     132B                     l2519:
  8266     132B  0A2C               	incf	___fldiv@aexp,w
  8267     132C  1D03               	btfss	3,2
  8268     132D  2B2F               	goto	u3251
  8269     132E  2B30               	goto	u3250
  8270     132F                     u3251:
  8271     132F  2B38               	goto	l2523
  8272     1330                     u3250:
  8273     1330                     l2521:
  8274     1330  3000               	movlw	0
  8275     1331  00F3               	movwf	___fldiv@a+3
  8276     1332  3000               	movlw	0
  8277     1333  00F2               	movwf	___fldiv@a+2
  8278     1334  3000               	movlw	0
  8279     1335  00F1               	movwf	___fldiv@a+1
  8280     1336  3000               	movlw	0
  8281     1337  00F0               	movwf	___fldiv@a
  8282     1338                     l2523:
  8283     1338  17F2               	bsf	___fldiv@a+2,7
  8284     1339                     l2525:
  8285     1339  01F3               	clrf	___fldiv@a+3
  8286     133A  2B43               	goto	l563
  8287     133B                     l2527:
  8288     133B  3000               	movlw	0
  8289     133C  00F3               	movwf	___fldiv@a+3
  8290     133D  3000               	movlw	0
  8291     133E  00F2               	movwf	___fldiv@a+2
  8292     133F  3000               	movlw	0
  8293     1340  00F1               	movwf	___fldiv@a+1
  8294     1341  3000               	movlw	0
  8295     1342  00F0               	movwf	___fldiv@a
  8296     1343                     l563:
  8297     1343  0873               	movf	___fldiv@a+3,w
  8298     1344  0472               	iorwf	___fldiv@a+2,w
  8299     1345  0471               	iorwf	___fldiv@a+1,w
  8300     1346  0470               	iorwf	___fldiv@a,w
  8301     1347  1D03               	skipz
  8302     1348  2B4A               	goto	u3261
  8303     1349  2B4B               	goto	u3260
  8304     134A                     u3261:
  8305     134A  2B62               	goto	l2537
  8306     134B                     u3260:
  8307     134B                     l2529:
  8308     134B  3000               	movlw	0
  8309     134C  00F7               	movwf	___fldiv@b+3
  8310     134D  3000               	movlw	0
  8311     134E  00F6               	movwf	___fldiv@b+2
  8312     134F  3000               	movlw	0
  8313     1350  00F5               	movwf	___fldiv@b+1
  8314     1351  3000               	movlw	0
  8315     1352  00F4               	movwf	___fldiv@b
  8316     1353  3080               	movlw	128
  8317     1354  04F6               	iorwf	___fldiv@b+2,f
  8318     1355  307F               	movlw	127
  8319     1356  04F7               	iorwf	___fldiv@b+3,f
  8320     1357                     l2531:
  8321     1357  0824               	movf	___fldiv@sign,w
  8322     1358  04F7               	iorwf	___fldiv@b+3,f
  8323     1359                     l2533:
  8324     1359  0877               	movf	___fldiv@b+3,w
  8325     135A  00F3               	movwf	?___fldiv+3
  8326     135B  0876               	movf	___fldiv@b+2,w
  8327     135C  00F2               	movwf	?___fldiv+2
  8328     135D  0875               	movf	___fldiv@b+1,w
  8329     135E  00F1               	movwf	?___fldiv+1
  8330     135F  0874               	movf	___fldiv@b,w
  8331     1360  00F0               	movwf	?___fldiv
  8332     1361  2CBD               	goto	l565
  8333     1362                     l2537:
  8334     1362  082B               	movf	___fldiv@bexp,w
  8335     1363  1D03               	btfss	3,2
  8336     1364  2B66               	goto	u3271
  8337     1365  2B67               	goto	u3270
  8338     1366                     u3271:
  8339     1366  2B70               	goto	l2543
  8340     1367                     u3270:
  8341     1367                     l2539:
  8342     1367  3000               	movlw	0
  8343     1368  00F3               	movwf	?___fldiv+3
  8344     1369  3000               	movlw	0
  8345     136A  00F2               	movwf	?___fldiv+2
  8346     136B  3000               	movlw	0
  8347     136C  00F1               	movwf	?___fldiv+1
  8348     136D  3000               	movlw	0
  8349     136E  00F0               	movwf	?___fldiv
  8350     136F  2CBD               	goto	l565
  8351     1370                     l2543:
  8352     1370  082B               	movf	___fldiv@bexp,w
  8353     1371  00F8               	movwf	??___fldiv
  8354     1372  01F9               	clrf	??___fldiv+1
  8355     1373  0879               	movf	??___fldiv+1,w
  8356     1374  00FB               	movwf	??___fldiv+3
  8357     1375  082C               	movf	___fldiv@aexp,w
  8358     1376  0278               	subwf	??___fldiv,w
  8359     1377  00FA               	movwf	??___fldiv+2
  8360     1378  1C03               	skipc
  8361     1379  03FB               	decf	??___fldiv+3,f
  8362     137A  087A               	movf	??___fldiv+2,w
  8363     137B  3E7F               	addlw	127
  8364     137C  00A5               	movwf	___fldiv@new_exp
  8365     137D  087B               	movf	??___fldiv+3,w
  8366     137E  1803               	skipnc
  8367     137F  3E01               	addlw	1
  8368     1380  3E00               	addlw	0
  8369     1381  00A6               	movwf	___fldiv@new_exp+1
  8370     1382                     l2545:
  8371     1382  0877               	movf	___fldiv@b+3,w
  8372     1383  00A3               	movwf	___fldiv@rem+3
  8373     1384  0876               	movf	___fldiv@b+2,w
  8374     1385  00A2               	movwf	___fldiv@rem+2
  8375     1386  0875               	movf	___fldiv@b+1,w
  8376     1387  00A1               	movwf	___fldiv@rem+1
  8377     1388  0874               	movf	___fldiv@b,w
  8378     1389  00A0               	movwf	___fldiv@rem
  8379     138A                     l2547:
  8380     138A  3000               	movlw	0
  8381     138B  00F7               	movwf	___fldiv@b+3
  8382     138C  3000               	movlw	0
  8383     138D  00F6               	movwf	___fldiv@b+2
  8384     138E  3000               	movlw	0
  8385     138F  00F5               	movwf	___fldiv@b+1
  8386     1390  3000               	movlw	0
  8387     1391  00F4               	movwf	___fldiv@b
  8388     1392                     l2549:
  8389     1392  3000               	movlw	0
  8390     1393  00AA               	movwf	___fldiv@grs+3
  8391     1394  3000               	movlw	0
  8392     1395  00A9               	movwf	___fldiv@grs+2
  8393     1396  3000               	movlw	0
  8394     1397  00A8               	movwf	___fldiv@grs+1
  8395     1398  3000               	movlw	0
  8396     1399  00A7               	movwf	___fldiv@grs
  8397     139A                     l2551:
  8398     139A  01AC               	clrf	___fldiv@aexp
  8399     139B  2BEA               	goto	l2571
  8400     139C                     l2553:
  8401     139C  082C               	movf	___fldiv@aexp,w
  8402     139D  1903               	btfsc	3,2
  8403     139E  2BA0               	goto	u3281
  8404     139F  2BA1               	goto	u3280
  8405     13A0                     u3281:
  8406     13A0  2BC1               	goto	l2563
  8407     13A1                     u3280:
  8408     13A1                     l2555:
  8409     13A1  3001               	movlw	1
  8410     13A2  00F8               	movwf	??___fldiv
  8411     13A3                     u3295:
  8412     13A3  1003               	clrc
  8413     13A4  0DA0               	rlf	___fldiv@rem,f
  8414     13A5  0DA1               	rlf	___fldiv@rem+1,f
  8415     13A6  0DA2               	rlf	___fldiv@rem+2,f
  8416     13A7  0DA3               	rlf	___fldiv@rem+3,f
  8417     13A8  0BF8               	decfsz	??___fldiv,f
  8418     13A9  2BA3               	goto	u3295
  8419     13AA  3001               	movlw	1
  8420     13AB  00F8               	movwf	??___fldiv
  8421     13AC                     u3305:
  8422     13AC  1003               	clrc
  8423     13AD  0DF4               	rlf	___fldiv@b,f
  8424     13AE  0DF5               	rlf	___fldiv@b+1,f
  8425     13AF  0DF6               	rlf	___fldiv@b+2,f
  8426     13B0  0DF7               	rlf	___fldiv@b+3,f
  8427     13B1  0BF8               	decfsz	??___fldiv,f
  8428     13B2  2BAC               	goto	u3305
  8429     13B3                     l2557:
  8430     13B3  1FAA               	btfss	___fldiv@grs+3,7
  8431     13B4  2BB6               	goto	u3311
  8432     13B5  2BB7               	goto	u3310
  8433     13B6                     u3311:
  8434     13B6  2BB8               	goto	l2561
  8435     13B7                     u3310:
  8436     13B7                     l2559:
  8437     13B7  1474               	bsf	___fldiv@b,0
  8438     13B8                     l2561:
  8439     13B8  3001               	movlw	1
  8440     13B9  00F8               	movwf	??___fldiv
  8441     13BA                     u3325:
  8442     13BA  1003               	clrc
  8443     13BB  0DA7               	rlf	___fldiv@grs,f
  8444     13BC  0DA8               	rlf	___fldiv@grs+1,f
  8445     13BD  0DA9               	rlf	___fldiv@grs+2,f
  8446     13BE  0DAA               	rlf	___fldiv@grs+3,f
  8447     13BF  0BF8               	decfsz	??___fldiv,f
  8448     13C0  2BBA               	goto	u3325
  8449     13C1                     l2563:
  8450     13C1  0873               	movf	___fldiv@a+3,w
  8451     13C2  0223               	subwf	___fldiv@rem+3,w
  8452     13C3  1D03               	skipz
  8453     13C4  2BCF               	goto	u3335
  8454     13C5  0872               	movf	___fldiv@a+2,w
  8455     13C6  0222               	subwf	___fldiv@rem+2,w
  8456     13C7  1D03               	skipz
  8457     13C8  2BCF               	goto	u3335
  8458     13C9  0871               	movf	___fldiv@a+1,w
  8459     13CA  0221               	subwf	___fldiv@rem+1,w
  8460     13CB  1D03               	skipz
  8461     13CC  2BCF               	goto	u3335
  8462     13CD  0870               	movf	___fldiv@a,w
  8463     13CE  0220               	subwf	___fldiv@rem,w
  8464     13CF                     u3335:
  8465     13CF  1C03               	skipc
  8466     13D0  2BD2               	goto	u3331
  8467     13D1  2BD3               	goto	u3330
  8468     13D2                     u3331:
  8469     13D2  2BE8               	goto	l2569
  8470     13D3                     u3330:
  8471     13D3                     l2565:
  8472     13D3  172A               	bsf	___fldiv@grs+3,6
  8473     13D4                     l2567:
  8474     13D4  0870               	movf	___fldiv@a,w
  8475     13D5  02A0               	subwf	___fldiv@rem,f
  8476     13D6  0871               	movf	___fldiv@a+1,w
  8477     13D7  1C03               	skipc
  8478     13D8  0F71               	incfsz	___fldiv@a+1,w
  8479     13D9  2BDB               	goto	u3345
  8480     13DA  2BDC               	goto	u3346
  8481     13DB                     u3345:
  8482     13DB  02A1               	subwf	___fldiv@rem+1,f
  8483     13DC                     u3346:
  8484     13DC  0872               	movf	___fldiv@a+2,w
  8485     13DD  1C03               	skipc
  8486     13DE  0F72               	incfsz	___fldiv@a+2,w
  8487     13DF  2BE1               	goto	u3347
  8488     13E0  2BE2               	goto	u3348
  8489     13E1                     u3347:
  8490     13E1  02A2               	subwf	___fldiv@rem+2,f
  8491     13E2                     u3348:
  8492     13E2  0873               	movf	___fldiv@a+3,w
  8493     13E3  1C03               	skipc
  8494     13E4  0F73               	incfsz	___fldiv@a+3,w
  8495     13E5  2BE7               	goto	u3349
  8496     13E6  2BE8               	goto	u3340
  8497     13E7                     u3349:
  8498     13E7  02A3               	subwf	___fldiv@rem+3,f
  8499     13E8                     u3340:
  8500     13E8                     l2569:
  8501     13E8  3001               	movlw	1
  8502     13E9  07AC               	addwf	___fldiv@aexp,f
  8503     13EA                     l2571:
  8504     13EA  301A               	movlw	26
  8505     13EB  022C               	subwf	___fldiv@aexp,w
  8506     13EC  1C03               	skipc
  8507     13ED  2BEF               	goto	u3351
  8508     13EE  2BF0               	goto	u3350
  8509     13EF                     u3351:
  8510     13EF  2B9C               	goto	l2553
  8511     13F0                     u3350:
  8512     13F0                     l2573:
  8513     13F0  0823               	movf	___fldiv@rem+3,w
  8514     13F1  0422               	iorwf	___fldiv@rem+2,w
  8515     13F2  0421               	iorwf	___fldiv@rem+1,w
  8516     13F3  0420               	iorwf	___fldiv@rem,w
  8517     13F4  1903               	skipnz
  8518     13F5  2BF7               	goto	u3361
  8519     13F6  2BF8               	goto	u3360
  8520     13F7                     u3361:
  8521     13F7  2C17               	goto	l2587
  8522     13F8                     u3360:
  8523     13F8                     l2575:
  8524     13F8  1427               	bsf	___fldiv@grs,0
  8525     13F9  2C17               	goto	l2587
  8526     13FA                     l2577:
  8527     13FA  3001               	movlw	1
  8528     13FB  00F8               	movwf	??___fldiv
  8529     13FC                     u3375:
  8530     13FC  1003               	clrc
  8531     13FD  0DF4               	rlf	___fldiv@b,f
  8532     13FE  0DF5               	rlf	___fldiv@b+1,f
  8533     13FF  0DF6               	rlf	___fldiv@b+2,f
  8534     1400  0DF7               	rlf	___fldiv@b+3,f
  8535     1401  0BF8               	decfsz	??___fldiv,f
  8536     1402  2BFC               	goto	u3375
  8537     1403                     l2579:
  8538     1403  1FAA               	btfss	___fldiv@grs+3,7
  8539     1404  2C06               	goto	u3381
  8540     1405  2C07               	goto	u3380
  8541     1406                     u3381:
  8542     1406  2C08               	goto	l2583
  8543     1407                     u3380:
  8544     1407                     l2581:
  8545     1407  1474               	bsf	___fldiv@b,0
  8546     1408                     l2583:
  8547     1408  3001               	movlw	1
  8548     1409  00F8               	movwf	??___fldiv
  8549     140A                     u3395:
  8550     140A  1003               	clrc
  8551     140B  0DA7               	rlf	___fldiv@grs,f
  8552     140C  0DA8               	rlf	___fldiv@grs+1,f
  8553     140D  0DA9               	rlf	___fldiv@grs+2,f
  8554     140E  0DAA               	rlf	___fldiv@grs+3,f
  8555     140F  0BF8               	decfsz	??___fldiv,f
  8556     1410  2C0A               	goto	u3395
  8557     1411                     l2585:
  8558     1411  30FF               	movlw	255
  8559     1412  07A5               	addwf	___fldiv@new_exp,f
  8560     1413  1803               	skipnc
  8561     1414  0AA6               	incf	___fldiv@new_exp+1,f
  8562     1415  30FF               	movlw	255
  8563     1416  07A6               	addwf	___fldiv@new_exp+1,f
  8564     1417                     l2587:
  8565     1417  1FF6               	btfss	___fldiv@b+2,7
  8566     1418  2C1A               	goto	u3401
  8567     1419  2C1B               	goto	u3400
  8568     141A                     u3401:
  8569     141A  2BFA               	goto	l2577
  8570     141B                     u3400:
  8571     141B                     l2589:
  8572     141B  01AC               	clrf	___fldiv@aexp
  8573     141C                     l2591:
  8574     141C  1FAA               	btfss	___fldiv@grs+3,7
  8575     141D  2C1F               	goto	u3411
  8576     141E  2C20               	goto	u3410
  8577     141F                     u3411:
  8578     141F  2C3C               	goto	l2599
  8579     1420                     u3410:
  8580     1420                     l2593:
  8581     1420  30FF               	movlw	255
  8582     1421  0527               	andwf	___fldiv@grs,w
  8583     1422  00F8               	movwf	??___fldiv
  8584     1423  30FF               	movlw	255
  8585     1424  0528               	andwf	___fldiv@grs+1,w
  8586     1425  00F9               	movwf	??___fldiv+1
  8587     1426  30FF               	movlw	255
  8588     1427  0529               	andwf	___fldiv@grs+2,w
  8589     1428  00FA               	movwf	??___fldiv+2
  8590     1429  307F               	movlw	127
  8591     142A  052A               	andwf	___fldiv@grs+3,w
  8592     142B  00FB               	movwf	??___fldiv+3
  8593     142C  087B               	movf	??___fldiv+3,w
  8594     142D  047A               	iorwf	??___fldiv+2,w
  8595     142E  0479               	iorwf	??___fldiv+1,w
  8596     142F  0478               	iorwf	??___fldiv,w
  8597     1430  1903               	skipnz
  8598     1431  2C33               	goto	u3421
  8599     1432  2C34               	goto	u3420
  8600     1433                     u3421:
  8601     1433  2C37               	goto	l579
  8602     1434                     u3420:
  8603     1434                     l2595:
  8604     1434  3001               	movlw	1
  8605     1435  00AC               	movwf	___fldiv@aexp
  8606     1436  2C3C               	goto	l2599
  8607     1437                     l579:
  8608     1437  1C74               	btfss	___fldiv@b,0
  8609     1438  2C3A               	goto	u3431
  8610     1439  2C3B               	goto	u3430
  8611     143A                     u3431:
  8612     143A  2C3C               	goto	l2599
  8613     143B                     u3430:
  8614     143B  2C34               	goto	l2595
  8615     143C                     l2599:
  8616     143C  082C               	movf	___fldiv@aexp,w
  8617     143D  1903               	btfsc	3,2
  8618     143E  2C40               	goto	u3441
  8619     143F  2C41               	goto	u3440
  8620     1440                     u3441:
  8621     1440  2C72               	goto	l2609
  8622     1441                     u3440:
  8623     1441                     l2601:
  8624     1441  3001               	movlw	1
  8625     1442  07F4               	addwf	___fldiv@b,f
  8626     1443  3000               	movlw	0
  8627     1444  1803               	skipnc
  8628     1445  3001               	movlw	1
  8629     1446  07F5               	addwf	___fldiv@b+1,f
  8630     1447  3000               	movlw	0
  8631     1448  1803               	skipnc
  8632     1449  3001               	movlw	1
  8633     144A  07F6               	addwf	___fldiv@b+2,f
  8634     144B  3000               	movlw	0
  8635     144C  1803               	skipnc
  8636     144D  3001               	movlw	1
  8637     144E  07F7               	addwf	___fldiv@b+3,f
  8638     144F                     l2603:
  8639     144F  1C77               	btfss	___fldiv@b+3,0
  8640     1450  2C52               	goto	u3451
  8641     1451  2C53               	goto	u3450
  8642     1452                     u3451:
  8643     1452  2C72               	goto	l2609
  8644     1453                     u3450:
  8645     1453                     l2605:
  8646     1453  0874               	movf	___fldiv@b,w
  8647     1454  00F8               	movwf	??___fldiv
  8648     1455  0875               	movf	___fldiv@b+1,w
  8649     1456  00F9               	movwf	??___fldiv+1
  8650     1457  0876               	movf	___fldiv@b+2,w
  8651     1458  00FA               	movwf	??___fldiv+2
  8652     1459  0877               	movf	___fldiv@b+3,w
  8653     145A  00FB               	movwf	??___fldiv+3
  8654     145B  3001               	movlw	1
  8655     145C  00FC               	movwf	??___fldiv+4
  8656     145D                     u3465:
  8657     145D  0D7B               	rlf	??___fldiv+3,w
  8658     145E  0CFB               	rrf	??___fldiv+3,f
  8659     145F  0CFA               	rrf	??___fldiv+2,f
  8660     1460  0CF9               	rrf	??___fldiv+1,f
  8661     1461  0CF8               	rrf	??___fldiv,f
  8662     1462                     u3460:
  8663     1462  0BFC               	decfsz	??___fldiv+4,f
  8664     1463  2C5D               	goto	u3465
  8665     1464  087B               	movf	??___fldiv+3,w
  8666     1465  00F7               	movwf	___fldiv@b+3
  8667     1466  087A               	movf	??___fldiv+2,w
  8668     1467  00F6               	movwf	___fldiv@b+2
  8669     1468  0879               	movf	??___fldiv+1,w
  8670     1469  00F5               	movwf	___fldiv@b+1
  8671     146A  0878               	movf	??___fldiv,w
  8672     146B  00F4               	movwf	___fldiv@b
  8673     146C                     l2607:
  8674     146C  3001               	movlw	1
  8675     146D  07A5               	addwf	___fldiv@new_exp,f
  8676     146E  1803               	skipnc
  8677     146F  0AA6               	incf	___fldiv@new_exp+1,f
  8678     1470  3000               	movlw	0
  8679     1471  07A6               	addwf	___fldiv@new_exp+1,f
  8680     1472                     l2609:
  8681     1472  0826               	movf	___fldiv@new_exp+1,w
  8682     1473  3A80               	xorlw	128
  8683     1474  00FF               	movwf	btemp+1
  8684     1475  3080               	movlw	128
  8685     1476  027F               	subwf	btemp+1,w
  8686     1477  1D03               	skipz
  8687     1478  2C7B               	goto	u3475
  8688     1479  30FF               	movlw	255
  8689     147A  0225               	subwf	___fldiv@new_exp,w
  8690     147B                     u3475:
  8691     147B  1C03               	skipc
  8692     147C  2C7E               	goto	u3471
  8693     147D  2C7F               	goto	u3470
  8694     147E                     u3471:
  8695     147E  2C8D               	goto	l2613
  8696     147F                     u3470:
  8697     147F                     l2611:
  8698     147F  30FF               	movlw	255
  8699     1480  1283               	bcf	3,5	;RP0=0, select bank0
  8700     1481  1303               	bcf	3,6	;RP1=0, select bank0
  8701     1482  00A5               	movwf	___fldiv@new_exp
  8702     1483  3000               	movlw	0
  8703     1484  00A6               	movwf	___fldiv@new_exp+1
  8704     1485  3000               	movlw	0
  8705     1486  00F7               	movwf	___fldiv@b+3
  8706     1487  3000               	movlw	0
  8707     1488  00F6               	movwf	___fldiv@b+2
  8708     1489  3000               	movlw	0
  8709     148A  00F5               	movwf	___fldiv@b+1
  8710     148B  3000               	movlw	0
  8711     148C  00F4               	movwf	___fldiv@b
  8712     148D                     l2613:
  8713     148D  1283               	bcf	3,5	;RP0=0, select bank0
  8714     148E  1303               	bcf	3,6	;RP1=0, select bank0
  8715     148F  0826               	movf	___fldiv@new_exp+1,w
  8716     1490  3A80               	xorlw	128
  8717     1491  00FF               	movwf	btemp+1
  8718     1492  3080               	movlw	128
  8719     1493  027F               	subwf	btemp+1,w
  8720     1494  1D03               	skipz
  8721     1495  2C98               	goto	u3485
  8722     1496  3001               	movlw	1
  8723     1497  0225               	subwf	___fldiv@new_exp,w
  8724     1498                     u3485:
  8725     1498  1803               	skipnc
  8726     1499  2C9B               	goto	u3481
  8727     149A  2C9C               	goto	u3480
  8728     149B                     u3481:
  8729     149B  2CA9               	goto	l585
  8730     149C                     u3480:
  8731     149C                     l2615:
  8732     149C  1283               	bcf	3,5	;RP0=0, select bank0
  8733     149D  1303               	bcf	3,6	;RP1=0, select bank0
  8734     149E  01A5               	clrf	___fldiv@new_exp
  8735     149F  01A6               	clrf	___fldiv@new_exp+1
  8736     14A0                     l2617:
  8737     14A0  3000               	movlw	0
  8738     14A1  00F7               	movwf	___fldiv@b+3
  8739     14A2  3000               	movlw	0
  8740     14A3  00F6               	movwf	___fldiv@b+2
  8741     14A4  3000               	movlw	0
  8742     14A5  00F5               	movwf	___fldiv@b+1
  8743     14A6  3000               	movlw	0
  8744     14A7  00F4               	movwf	___fldiv@b
  8745     14A8                     l2619:
  8746     14A8  01A4               	clrf	___fldiv@sign
  8747     14A9                     l585:
  8748     14A9  1283               	bcf	3,5	;RP0=0, select bank0
  8749     14AA  1303               	bcf	3,6	;RP1=0, select bank0
  8750     14AB  0825               	movf	___fldiv@new_exp,w
  8751     14AC  00AB               	movwf	___fldiv@bexp
  8752     14AD                     l2621:
  8753     14AD  1C2B               	btfss	___fldiv@bexp,0
  8754     14AE  2CB0               	goto	u3491
  8755     14AF  2CB1               	goto	u3490
  8756     14B0                     u3491:
  8757     14B0  2CB3               	goto	l2625
  8758     14B1                     u3490:
  8759     14B1                     l2623:
  8760     14B1  17F6               	bsf	___fldiv@b+2,7
  8761     14B2  2CB5               	goto	l587
  8762     14B3                     l2625:
  8763     14B3  307F               	movlw	127
  8764     14B4  05F6               	andwf	___fldiv@b+2,f
  8765     14B5                     l587:
  8766     14B5  082B               	movf	___fldiv@bexp,w
  8767     14B6  00F8               	movwf	??___fldiv
  8768     14B7  1003               	clrc
  8769     14B8  0C78               	rrf	??___fldiv,w
  8770     14B9  00F7               	movwf	___fldiv@b+3
  8771     14BA  0824               	movf	___fldiv@sign,w
  8772     14BB  04F7               	iorwf	___fldiv@b+3,f
  8773     14BC  2B59               	goto	l2533
  8774     14BD                     l565:
  8775     14BD  0008               	return
  8776     14BE                     __end_of___fldiv:
  8777                           
  8778                           	psect	text27
  8779     1B18                     __ptext27:	
  8780 ;; *************** function _LcdData *****************
  8781 ;; Defined at:
  8782 ;;		line 224 in file "main.c"
  8783 ;; Parameters:    Size  Location     Type
  8784 ;;  i               1    wreg     unsigned char 
  8785 ;; Auto vars:     Size  Location     Type
  8786 ;;  i               1    3[COMMON] unsigned char 
  8787 ;; Return value:  Size  Location     Type
  8788 ;;                  1    wreg      void 
  8789 ;; Registers used:
  8790 ;;		wreg, status,2, status,0
  8791 ;; Tracked objects:
  8792 ;;		On entry : 0/0
  8793 ;;		On exit  : 0/0
  8794 ;;		Unchanged: 0/0
  8795 ;; Data sizes:     COMMON   BANK0   BANK1   BANK3   BANK2
  8796 ;;      Params:         0       0       0       0       0
  8797 ;;      Locals:         1       0       0       0       0
  8798 ;;      Temps:          3       0       0       0       0
  8799 ;;      Totals:         4       0       0       0       0
  8800 ;;Total ram usage:        4 bytes
  8801 ;; Hardware stack levels used: 1
  8802 ;; This function calls:
  8803 ;;		Nothing
  8804 ;; This function is called by:
  8805 ;;		_BatStatus
  8806 ;;		_LcdOutput
  8807 ;; This function uses a non-reentrant model
  8808 ;;
  8809                           
  8810     1B18                     _LcdData:	
  8811                           ;psect for function _LcdData
  8812                           
  8813                           
  8814                           ;incstack = 0
  8815                           ; Regs used in _LcdData: [wreg+status,2+status,0]
  8816                           ;LcdData@i stored from wreg
  8817     1B18  00F3               	movwf	LcdData@i
  8818     1B19                     l3165:
  8819     1B19  1283               	bcf	3,5	;RP0=0, select bank0
  8820     1B1A  1303               	bcf	3,6	;RP1=0, select bank0
  8821     1B1B  1587               	bsf	7,3	;volatile
  8822     1B1C                     l3167:
  8823     1B1C  0873               	movf	LcdData@i,w
  8824     1B1D  0088               	movwf	8	;volatile
  8825     1B1E                     l3169:
  8826     1B1E  1407               	bsf	7,0	;volatile
  8827     1B1F  3003               	movlw	3
  8828     1B20  00F2               	movwf	??_LcdData+2
  8829     1B21  308A               	movlw	138
  8830     1B22  00F1               	movwf	??_LcdData+1
  8831     1B23  3055               	movlw	85
  8832     1B24  00F0               	movwf	??_LcdData
  8833     1B25                     u4897:
  8834     1B25  0BF0               	decfsz	??_LcdData,f
  8835     1B26  2B25               	goto	u4897
  8836     1B27  0BF1               	decfsz	??_LcdData+1,f
  8837     1B28  2B25               	goto	u4897
  8838     1B29  0BF2               	decfsz	??_LcdData+2,f
  8839     1B2A  2B25               	goto	u4897
  8840     1B2B  2B2C               	nop2
  8841     1B2C                     l3171:
  8842     1B2C  30FE               	movlw	254
  8843     1B2D  1283               	bcf	3,5	;RP0=0, select bank0
  8844     1B2E  1303               	bcf	3,6	;RP1=0, select bank0
  8845     1B2F  0587               	andwf	7,f	;volatile
  8846     1B30                     l117:
  8847     1B30  0008               	return
  8848     1B31                     __end_of_LcdData:
  8849                           
  8850                           	psect	text28
  8851     0800                     __ptext28:	
  8852 ;; *************** function _LcdCommand *****************
  8853 ;; Defined at:
  8854 ;;		line 234 in file "main.c"
  8855 ;; Parameters:    Size  Location     Type
  8856 ;;  i               1    wreg     unsigned char 
  8857 ;; Auto vars:     Size  Location     Type
  8858 ;;  i               1    3[COMMON] unsigned char 
  8859 ;; Return value:  Size  Location     Type
  8860 ;;                  1    wreg      void 
  8861 ;; Registers used:
  8862 ;;		wreg, status,2, status,0
  8863 ;; Tracked objects:
  8864 ;;		On entry : 0/0
  8865 ;;		On exit  : 0/0
  8866 ;;		Unchanged: 0/0
  8867 ;; Data sizes:     COMMON   BANK0   BANK1   BANK3   BANK2
  8868 ;;      Params:         0       0       0       0       0
  8869 ;;      Locals:         1       0       0       0       0
  8870 ;;      Temps:          3       0       0       0       0
  8871 ;;      Totals:         4       0       0       0       0
  8872 ;;Total ram usage:        4 bytes
  8873 ;; Hardware stack levels used: 1
  8874 ;; This function calls:
  8875 ;;		Nothing
  8876 ;; This function is called by:
  8877 ;;		_Lcdinit
  8878 ;;		_BatStatus
  8879 ;;		_LcdOutput
  8880 ;; This function uses a non-reentrant model
  8881 ;;
  8882                           
  8883     0800                     _LcdCommand:	
  8884                           ;psect for function _LcdCommand
  8885                           
  8886                           
  8887                           ;incstack = 0
  8888                           ; Regs used in _LcdCommand: [wreg+status,2+status,0]
  8889                           ;LcdCommand@i stored from wreg
  8890     0800  00F3               	movwf	LcdCommand@i
  8891     0801                     l3157:
  8892     0801  30F7               	movlw	247
  8893     0802  1283               	bcf	3,5	;RP0=0, select bank0
  8894     0803  1303               	bcf	3,6	;RP1=0, select bank0
  8895     0804  0587               	andwf	7,f	;volatile
  8896     0805                     l3159:
  8897     0805  0873               	movf	LcdCommand@i,w
  8898     0806  0088               	movwf	8	;volatile
  8899     0807                     l3161:
  8900     0807  1407               	bsf	7,0	;volatile
  8901     0808                     l3163:
  8902     0808  3003               	movlw	3
  8903     0809  00F2               	movwf	??_LcdCommand+2
  8904     080A  308A               	movlw	138
  8905     080B  00F1               	movwf	??_LcdCommand+1
  8906     080C  3055               	movlw	85
  8907     080D  00F0               	movwf	??_LcdCommand
  8908     080E                     u4907:
  8909     080E  0BF0               	decfsz	??_LcdCommand,f
  8910     080F  280E               	goto	u4907
  8911     0810  0BF1               	decfsz	??_LcdCommand+1,f
  8912     0811  280E               	goto	u4907
  8913     0812  0BF2               	decfsz	??_LcdCommand+2,f
  8914     0813  280E               	goto	u4907
  8915     0814  2815               	nop2
  8916     0815  30FE               	movlw	254
  8917     0816  1283               	bcf	3,5	;RP0=0, select bank0
  8918     0817  1303               	bcf	3,6	;RP1=0, select bank0
  8919     0818  0587               	andwf	7,f	;volatile
  8920     0819                     l120:
  8921     0819  0008               	return
  8922     081A                     __end_of_LcdCommand:
  8923     0002                     ___latbits      equ	2
  8924     007E                     btemp           set	126	;btemp
  8925     007E                     wtemp0          set	126
  8926                           
  8927                           	psect	config
  8928                           
  8929                           ;Config register CONFIG @ 0x2007
  8930                           ;	Oscillator Selection bits
  8931                           ;	FOSC = HS, HS oscillator
  8932                           ;	Watchdog Timer Enable bit
  8933                           ;	WDTE = OFF, WDT disabled
  8934                           ;	Power-up Timer Enable bit
  8935                           ;	PWRTE = OFF, PWRT disabled
  8936                           ;	Brown-out Reset Enable bit
  8937                           ;	BOREN = OFF, BOR disabled
  8938                           ;	Low-Voltage (Single-Supply) In-Circuit Serial Programming Enable bit
  8939                           ;	LVP = OFF, RB3 is digital I/O, HV on MCLR must be used for programming
  8940                           ;	Data EEPROM Memory Code Protection bit
  8941                           ;	CPD = OFF, Data EEPROM code protection off
  8942                           ;	Flash Program Memory Write Enable bits
  8943                           ;	WRT = OFF, Write protection off; all program memory may be written to by EECON control
  8944                           ;	In-Circuit Debugger Mode bit
  8945                           ;	DEBUG = 0x1, unprogrammed default
  8946                           ;	Flash Program Memory Code Protection bit
  8947                           ;	CP = OFF, Code protection off
  8948     2007                     	org	8199
  8949     2007  3F3A               	dw	16186
  8950                           
  8951                           	psect	text8_split_1
  8952     00B0                     l2909:
  8953                           
  8954                           ;D:\Program Files\Microchip\xc8\v3.00\pic\sources\c99\common\doprnt.c: 657:     u.f = 1.
      +                          0;
  8955     00B0  303F               	movlw	63
  8956     00B1  1683               	bsf	3,5	;RP0=1, select bank1
  8957     00B2  1303               	bcf	3,6	;RP1=0, select bank1
  8958     00B3  00CB               	movwf	(efgtoa@u+3)^(0+128)
  8959     00B4  3080               	movlw	128
  8960     00B5  00CA               	movwf	(efgtoa@u+2)^(0+128)
  8961     00B6  3000               	movlw	0
  8962     00B7  00C9               	movwf	(efgtoa@u+1)^(0+128)
  8963     00B8  3000               	movlw	0
  8964     00B9  00C8               	movwf	efgtoa@u^(0+128)
  8965     00BA                     l2911:
  8966                           
  8967                           ;D:\Program Files\Microchip\xc8\v3.00\pic\sources\c99\common\doprnt.c: 658:     e = 0;
  8968     00BA  01AF               	clrf	efgtoa@e^(0+128)
  8969     00BB  01B0               	clrf	(efgtoa@e+1)^(0+128)
  8970     00BC                     l2913:
  8971                           
  8972                           ;D:\Program Files\Microchip\xc8\v3.00\pic\sources\c99\common\doprnt.c: 659:  if (!(g.f =
      +                          = 0.0)) {
  8973     00BC  0847               	movf	(efgtoa@g+3)^(0+128),w
  8974     00BD  00F3               	movwf	___fleq@ff1+3
  8975     00BE  0846               	movf	(efgtoa@g+2)^(0+128),w
  8976     00BF  00F2               	movwf	___fleq@ff1+2
  8977     00C0  0845               	movf	(efgtoa@g+1)^(0+128),w
  8978     00C1  00F1               	movwf	___fleq@ff1+1
  8979     00C2  0844               	movf	efgtoa@g^(0+128),w
  8980     00C3  00F0               	movwf	___fleq@ff1
  8981     00C4  3000               	movlw	0
  8982     00C5  00F7               	movwf	___fleq@ff2+3
  8983     00C6  3000               	movlw	0
  8984     00C7  00F6               	movwf	___fleq@ff2+2
  8985     00C8  3000               	movlw	0
  8986     00C9  00F5               	movwf	___fleq@ff2+1
  8987     00CA  3000               	movlw	0
  8988     00CB  00F4               	movwf	___fleq@ff2
  8989     00CC  160A  158A  24C9  120A  118A  	fcall	___fleq
  8990     00D1  1803               	btfsc	3,0
  8991     00D2  28D4               	goto	u4191
  8992     00D3  28D5               	goto	u4190
  8993     00D4                     u4191:
  8994     00D4  2AE6               	goto	l2939
  8995     00D5                     u4190:
  8996     00D5  28E6               	goto	l2919
  8997     00D6                     l2917:
  8998                           
  8999                           ;D:\Program Files\Microchip\xc8\v3.00\pic\sources\c99\common\doprnt.c: 661:    u = ou;
  9000     00D6  1683               	bsf	3,5	;RP0=1, select bank1
  9001     00D7  1303               	bcf	3,6	;RP1=0, select bank1
  9002     00D8  0836               	movf	(efgtoa@ou+3)^(0+128),w
  9003     00D9  00CB               	movwf	(efgtoa@u+3)^(0+128)
  9004     00DA  0835               	movf	(efgtoa@ou+2)^(0+128),w
  9005     00DB  00CA               	movwf	(efgtoa@u+2)^(0+128)
  9006     00DC  0834               	movf	(efgtoa@ou+1)^(0+128),w
  9007     00DD  00C9               	movwf	(efgtoa@u+1)^(0+128)
  9008     00DE  0833               	movf	efgtoa@ou^(0+128),w
  9009     00DF  00C8               	movwf	efgtoa@u^(0+128)
  9010                           
  9011                           ;D:\Program Files\Microchip\xc8\v3.00\pic\sources\c99\common\doprnt.c: 662:    ++e;
  9012     00E0  3001               	movlw	1
  9013     00E1  07AF               	addwf	efgtoa@e^(0+128),f
  9014     00E2  1803               	skipnc
  9015     00E3  0AB0               	incf	(efgtoa@e+1)^(0+128),f
  9016     00E4  3000               	movlw	0
  9017     00E5  07B0               	addwf	(efgtoa@e+1)^(0+128),f
  9018     00E6                     l2919:
  9019                           
  9020                           ;D:\Program Files\Microchip\xc8\v3.00\pic\sources\c99\common\doprnt.c: 660:   while ((la
      +                          bs((g).u-((ou.f = u.f*10.0,ou)).u) <= 1) || g.f > ou.f) {
  9021     00E6  3041               	movlw	65
  9022     00E7  1283               	bcf	3,5	;RP0=0, select bank0
  9023     00E8  1303               	bcf	3,6	;RP1=0, select bank0
  9024     00E9  00A3               	movwf	___flmul@b+3
  9025     00EA  3020               	movlw	32
  9026     00EB  00A2               	movwf	___flmul@b+2
  9027     00EC  3000               	movlw	0
  9028     00ED  00A1               	movwf	___flmul@b+1
  9029     00EE  3000               	movlw	0
  9030     00EF  00A0               	movwf	___flmul@b
  9031     00F0  1683               	bsf	3,5	;RP0=1, select bank1
  9032     00F1  1303               	bcf	3,6	;RP1=0, select bank1
  9033     00F2  084B               	movf	(efgtoa@u+3)^(0+128),w
  9034     00F3  1283               	bcf	3,5	;RP0=0, select bank0
  9035     00F4  1303               	bcf	3,6	;RP1=0, select bank0
  9036     00F5  00A7               	movwf	___flmul@a+3
  9037     00F6  1683               	bsf	3,5	;RP0=1, select bank1
  9038     00F7  1303               	bcf	3,6	;RP1=0, select bank1
  9039     00F8  084A               	movf	(efgtoa@u+2)^(0+128),w
  9040     00F9  1283               	bcf	3,5	;RP0=0, select bank0
  9041     00FA  1303               	bcf	3,6	;RP1=0, select bank0
  9042     00FB  00A6               	movwf	___flmul@a+2
  9043     00FC  1683               	bsf	3,5	;RP0=1, select bank1
  9044     00FD  1303               	bcf	3,6	;RP1=0, select bank1
  9045     00FE  0849               	movf	(efgtoa@u+1)^(0+128),w
  9046     00FF  1283               	bcf	3,5	;RP0=0, select bank0
  9047     0100  1303               	bcf	3,6	;RP1=0, select bank0
  9048     0101  00A5               	movwf	___flmul@a+1
  9049     0102  1683               	bsf	3,5	;RP0=1, select bank1
  9050     0103  1303               	bcf	3,6	;RP1=0, select bank1
  9051     0104  0848               	movf	efgtoa@u^(0+128),w
  9052     0105  1283               	bcf	3,5	;RP0=0, select bank0
  9053     0106  1303               	bcf	3,6	;RP1=0, select bank0
  9054     0107  00A4               	movwf	___flmul@a
  9055     0108  160A  118A  24BE  120A  118A  	fcall	___flmul
  9056     010D  1283               	bcf	3,5	;RP0=0, select bank0
  9057     010E  1303               	bcf	3,6	;RP1=0, select bank0
  9058     010F  0823               	movf	?___flmul+3,w
  9059     0110  1683               	bsf	3,5	;RP0=1, select bank1
  9060     0111  1303               	bcf	3,6	;RP1=0, select bank1
  9061     0112  00B6               	movwf	(efgtoa@ou+3)^(0+128)
  9062     0113  1283               	bcf	3,5	;RP0=0, select bank0
  9063     0114  1303               	bcf	3,6	;RP1=0, select bank0
  9064     0115  0822               	movf	?___flmul+2,w
  9065     0116  1683               	bsf	3,5	;RP0=1, select bank1
  9066     0117  1303               	bcf	3,6	;RP1=0, select bank1
  9067     0118  00B5               	movwf	(efgtoa@ou+2)^(0+128)
  9068     0119  1283               	bcf	3,5	;RP0=0, select bank0
  9069     011A  1303               	bcf	3,6	;RP1=0, select bank0
  9070     011B  0821               	movf	?___flmul+1,w
  9071     011C  1683               	bsf	3,5	;RP0=1, select bank1
  9072     011D  1303               	bcf	3,6	;RP1=0, select bank1
  9073     011E  00B4               	movwf	(efgtoa@ou+1)^(0+128)
  9074     011F  1283               	bcf	3,5	;RP0=0, select bank0
  9075     0120  1303               	bcf	3,6	;RP1=0, select bank0
  9076     0121  0820               	movf	?___flmul,w
  9077     0122  1683               	bsf	3,5	;RP0=1, select bank1
  9078     0123  1303               	bcf	3,6	;RP1=0, select bank1
  9079     0124  00B3               	movwf	efgtoa@ou^(0+128)
  9080     0125                     l2921:
  9081     0125  0844               	movf	efgtoa@g^(0+128),w
  9082     0126  1283               	bcf	3,5	;RP0=0, select bank0
  9083     0127  1303               	bcf	3,6	;RP1=0, select bank0
  9084     0128  00C8               	movwf	??_efgtoa
  9085     0129  1683               	bsf	3,5	;RP0=1, select bank1
  9086     012A  1303               	bcf	3,6	;RP1=0, select bank1
  9087     012B  0845               	movf	(efgtoa@g+1)^(0+128),w
  9088     012C  1283               	bcf	3,5	;RP0=0, select bank0
  9089     012D  1303               	bcf	3,6	;RP1=0, select bank0
  9090     012E  00C9               	movwf	??_efgtoa+1
  9091     012F  1683               	bsf	3,5	;RP0=1, select bank1
  9092     0130  1303               	bcf	3,6	;RP1=0, select bank1
  9093     0131  0846               	movf	(efgtoa@g+2)^(0+128),w
  9094     0132  1283               	bcf	3,5	;RP0=0, select bank0
  9095     0133  1303               	bcf	3,6	;RP1=0, select bank0
  9096     0134  00CA               	movwf	??_efgtoa+2
  9097     0135  1683               	bsf	3,5	;RP0=1, select bank1
  9098     0136  1303               	bcf	3,6	;RP1=0, select bank1
  9099     0137  0847               	movf	(efgtoa@g+3)^(0+128),w
  9100     0138  1283               	bcf	3,5	;RP0=0, select bank0
  9101     0139  1303               	bcf	3,6	;RP1=0, select bank0
  9102     013A  00CB               	movwf	??_efgtoa+3
  9103     013B  1683               	bsf	3,5	;RP0=1, select bank1
  9104     013C  1303               	bcf	3,6	;RP1=0, select bank1
  9105     013D  0833               	movf	efgtoa@ou^(0+128),w
  9106     013E  1283               	bcf	3,5	;RP0=0, select bank0
  9107     013F  1303               	bcf	3,6	;RP1=0, select bank0
  9108     0140  02C8               	subwf	??_efgtoa,f
  9109     0141  1683               	bsf	3,5	;RP0=1, select bank1
  9110     0142  1303               	bcf	3,6	;RP1=0, select bank1
  9111     0143  0834               	movf	(efgtoa@ou+1)^(0+128),w
  9112     0144  1C03               	skipc
  9113     0145  0F34               	incfsz	(efgtoa@ou+1)^(0+128),w
  9114     0146  2948               	goto	u4201
  9115     0147  294B               	goto	u4202
  9116     0148                     u4201:
  9117     0148  1283               	bcf	3,5	;RP0=0, select bank0
  9118     0149  1303               	bcf	3,6	;RP1=0, select bank0
  9119     014A  02C9               	subwf	??_efgtoa+1,f
  9120     014B                     u4202:
  9121     014B  1683               	bsf	3,5	;RP0=1, select bank1
  9122     014C  1303               	bcf	3,6	;RP1=0, select bank1
  9123     014D  0835               	movf	(efgtoa@ou+2)^(0+128),w
  9124     014E  1C03               	skipc
  9125     014F  0F35               	incfsz	(efgtoa@ou+2)^(0+128),w
  9126     0150  2952               	goto	u4203
  9127     0151  2955               	goto	u4204
  9128     0152                     u4203:
  9129     0152  1283               	bcf	3,5	;RP0=0, select bank0
  9130     0153  1303               	bcf	3,6	;RP1=0, select bank0
  9131     0154  02CA               	subwf	??_efgtoa+2,f
  9132     0155                     u4204:
  9133     0155  1683               	bsf	3,5	;RP0=1, select bank1
  9134     0156  1303               	bcf	3,6	;RP1=0, select bank1
  9135     0157  0836               	movf	(efgtoa@ou+3)^(0+128),w
  9136     0158  1C03               	skipc
  9137     0159  0F36               	incfsz	(efgtoa@ou+3)^(0+128),w
  9138     015A  295C               	goto	u4205
  9139     015B  295F               	goto	u4206
  9140     015C                     u4205:
  9141     015C  1283               	bcf	3,5	;RP0=0, select bank0
  9142     015D  1303               	bcf	3,6	;RP1=0, select bank0
  9143     015E  02CB               	subwf	??_efgtoa+3,f
  9144     015F                     u4206:
  9145     015F  1683               	bsf	3,5	;RP0=1, select bank1
  9146     0160  1303               	bcf	3,6	;RP1=0, select bank1
  9147     0161  1283               	bcf	3,5	;RP0=0, select bank0
  9148     0162  1303               	bcf	3,6	;RP1=0, select bank0
  9149     0163  084B               	movf	??_efgtoa+3,w
  9150     0164  00F3               	movwf	labs@a+3
  9151     0165  084A               	movf	??_efgtoa+2,w
  9152     0166  00F2               	movwf	labs@a+2
  9153     0167  0849               	movf	??_efgtoa+1,w
  9154     0168  00F1               	movwf	labs@a+1
  9155     0169  0848               	movf	??_efgtoa,w
  9156     016A  00F0               	movwf	labs@a
  9157     016B  160A  158A  2303  120A  118A  	fcall	_labs
  9158     0170  1BF3               	btfsc	?_labs+3,7
  9159     0171  2982               	goto	u4211
  9160     0172  0873               	movf	?_labs+3,w
  9161     0173  1D03               	btfss	3,2
  9162     0174  2983               	goto	u4210
  9163     0175  0872               	movf	?_labs+2,w
  9164     0176  1D03               	btfss	3,2
  9165     0177  2983               	goto	u4210
  9166     0178  0871               	movf	?_labs+1,w
  9167     0179  1D03               	btfss	3,2
  9168     017A  2983               	goto	u4210
  9169     017B  3002               	movlw	2
  9170     017C  0270               	subwf	?_labs,w
  9171     017D  1D03               	skipz
  9172     017E  297F               	goto	u4213
  9173     017F                     u4213:
  9174     017F  1C03               	btfss	3,0
  9175     0180  2982               	goto	u4211
  9176     0181  2983               	goto	u4210
  9177     0182                     u4211:
  9178     0182  28D6               	goto	l2917
  9179     0183                     u4210:
  9180     0183                     l2923:
  9181     0183  1683               	bsf	3,5	;RP0=1, select bank1
  9182     0184  1303               	bcf	3,6	;RP1=0, select bank1
  9183     0185  0836               	movf	(efgtoa@ou+3)^(0+128),w
  9184     0186  1283               	bcf	3,5	;RP0=0, select bank0
  9185     0187  1303               	bcf	3,6	;RP1=0, select bank0
  9186     0188  00B8               	movwf	___flge@ff1+3
  9187     0189  1683               	bsf	3,5	;RP0=1, select bank1
  9188     018A  1303               	bcf	3,6	;RP1=0, select bank1
  9189     018B  0835               	movf	(efgtoa@ou+2)^(0+128),w
  9190     018C  1283               	bcf	3,5	;RP0=0, select bank0
  9191     018D  1303               	bcf	3,6	;RP1=0, select bank0
  9192     018E  00B7               	movwf	___flge@ff1+2
  9193     018F  1683               	bsf	3,5	;RP0=1, select bank1
  9194     0190  1303               	bcf	3,6	;RP1=0, select bank1
  9195     0191  0834               	movf	(efgtoa@ou+1)^(0+128),w
  9196     0192  1283               	bcf	3,5	;RP0=0, select bank0
  9197     0193  1303               	bcf	3,6	;RP1=0, select bank0
  9198     0194  00B6               	movwf	___flge@ff1+1
  9199     0195  1683               	bsf	3,5	;RP0=1, select bank1
  9200     0196  1303               	bcf	3,6	;RP1=0, select bank1
  9201     0197  0833               	movf	efgtoa@ou^(0+128),w
  9202     0198  1283               	bcf	3,5	;RP0=0, select bank0
  9203     0199  1303               	bcf	3,6	;RP1=0, select bank0
  9204     019A  00B5               	movwf	___flge@ff1
  9205     019B  1683               	bsf	3,5	;RP0=1, select bank1
  9206     019C  1303               	bcf	3,6	;RP1=0, select bank1
  9207     019D  0847               	movf	(efgtoa@g+3)^(0+128),w
  9208     019E  1283               	bcf	3,5	;RP0=0, select bank0
  9209     019F  1303               	bcf	3,6	;RP1=0, select bank0
  9210     01A0  00BC               	movwf	___flge@ff2+3
  9211     01A1  1683               	bsf	3,5	;RP0=1, select bank1
  9212     01A2  1303               	bcf	3,6	;RP1=0, select bank1
  9213     01A3  0846               	movf	(efgtoa@g+2)^(0+128),w
  9214     01A4  1283               	bcf	3,5	;RP0=0, select bank0
  9215     01A5  1303               	bcf	3,6	;RP1=0, select bank0
  9216     01A6  00BB               	movwf	___flge@ff2+2
  9217     01A7  1683               	bsf	3,5	;RP0=1, select bank1
  9218     01A8  1303               	bcf	3,6	;RP1=0, select bank1
  9219     01A9  0845               	movf	(efgtoa@g+1)^(0+128),w
  9220     01AA  1283               	bcf	3,5	;RP0=0, select bank0
  9221     01AB  1303               	bcf	3,6	;RP1=0, select bank0
  9222     01AC  00BA               	movwf	___flge@ff2+1
  9223     01AD  1683               	bsf	3,5	;RP0=1, select bank1
  9224     01AE  1303               	bcf	3,6	;RP1=0, select bank1
  9225     01AF  0844               	movf	efgtoa@g^(0+128),w
  9226     01B0  1283               	bcf	3,5	;RP0=0, select bank0
  9227     01B1  1303               	bcf	3,6	;RP1=0, select bank0
  9228     01B2  00B9               	movwf	___flge@ff2
  9229     01B3  120A  118A  200C  120A  118A  	fcall	___flge
  9230     01B8  1C03               	btfss	3,0
  9231     01B9  29BB               	goto	u4221
  9232     01BA  29BC               	goto	u4220
  9233     01BB                     u4221:
  9234     01BB  28D6               	goto	l2917
  9235     01BC                     u4220:
  9236     01BC                     l2925:
  9237                           
  9238                           ;D:\Program Files\Microchip\xc8\v3.00\pic\sources\c99\common\doprnt.c: 664:   if ((labs(
      +                          (g).u-(u).u) <= 1)) {
  9239     01BC  1683               	bsf	3,5	;RP0=1, select bank1
  9240     01BD  1303               	bcf	3,6	;RP1=0, select bank1
  9241     01BE  0844               	movf	efgtoa@g^(0+128),w
  9242     01BF  1283               	bcf	3,5	;RP0=0, select bank0
  9243     01C0  1303               	bcf	3,6	;RP1=0, select bank0
  9244     01C1  00C8               	movwf	??_efgtoa
  9245     01C2  1683               	bsf	3,5	;RP0=1, select bank1
  9246     01C3  1303               	bcf	3,6	;RP1=0, select bank1
  9247     01C4  0845               	movf	(efgtoa@g+1)^(0+128),w
  9248     01C5  1283               	bcf	3,5	;RP0=0, select bank0
  9249     01C6  1303               	bcf	3,6	;RP1=0, select bank0
  9250     01C7  00C9               	movwf	??_efgtoa+1
  9251     01C8  1683               	bsf	3,5	;RP0=1, select bank1
  9252     01C9  1303               	bcf	3,6	;RP1=0, select bank1
  9253     01CA  0846               	movf	(efgtoa@g+2)^(0+128),w
  9254     01CB  1283               	bcf	3,5	;RP0=0, select bank0
  9255     01CC  1303               	bcf	3,6	;RP1=0, select bank0
  9256     01CD  00CA               	movwf	??_efgtoa+2
  9257     01CE  1683               	bsf	3,5	;RP0=1, select bank1
  9258     01CF  1303               	bcf	3,6	;RP1=0, select bank1
  9259     01D0  0847               	movf	(efgtoa@g+3)^(0+128),w
  9260     01D1  1283               	bcf	3,5	;RP0=0, select bank0
  9261     01D2  1303               	bcf	3,6	;RP1=0, select bank0
  9262     01D3  00CB               	movwf	??_efgtoa+3
  9263     01D4  1683               	bsf	3,5	;RP0=1, select bank1
  9264     01D5  1303               	bcf	3,6	;RP1=0, select bank1
  9265     01D6  0848               	movf	efgtoa@u^(0+128),w
  9266     01D7  1283               	bcf	3,5	;RP0=0, select bank0
  9267     01D8  1303               	bcf	3,6	;RP1=0, select bank0
  9268     01D9  02C8               	subwf	??_efgtoa,f
  9269     01DA  1683               	bsf	3,5	;RP0=1, select bank1
  9270     01DB  1303               	bcf	3,6	;RP1=0, select bank1
  9271     01DC  0849               	movf	(efgtoa@u+1)^(0+128),w
  9272     01DD  1C03               	skipc
  9273     01DE  0F49               	incfsz	(efgtoa@u+1)^(0+128),w
  9274     01DF  29E1               	goto	u4231
  9275     01E0  29E4               	goto	u4232
  9276     01E1                     u4231:
  9277     01E1  1283               	bcf	3,5	;RP0=0, select bank0
  9278     01E2  1303               	bcf	3,6	;RP1=0, select bank0
  9279     01E3  02C9               	subwf	??_efgtoa+1,f
  9280     01E4                     u4232:
  9281     01E4  1683               	bsf	3,5	;RP0=1, select bank1
  9282     01E5  1303               	bcf	3,6	;RP1=0, select bank1
  9283     01E6  084A               	movf	(efgtoa@u+2)^(0+128),w
  9284     01E7  1C03               	skipc
  9285     01E8  0F4A               	incfsz	(efgtoa@u+2)^(0+128),w
  9286     01E9  29EB               	goto	u4233
  9287     01EA  29EE               	goto	u4234
  9288     01EB                     u4233:
  9289     01EB  1283               	bcf	3,5	;RP0=0, select bank0
  9290     01EC  1303               	bcf	3,6	;RP1=0, select bank0
  9291     01ED  02CA               	subwf	??_efgtoa+2,f
  9292     01EE                     u4234:
  9293     01EE  1683               	bsf	3,5	;RP0=1, select bank1
  9294     01EF  1303               	bcf	3,6	;RP1=0, select bank1
  9295     01F0  084B               	movf	(efgtoa@u+3)^(0+128),w
  9296     01F1  1C03               	skipc
  9297     01F2  0F4B               	incfsz	(efgtoa@u+3)^(0+128),w
  9298     01F3  29F5               	goto	u4235
  9299     01F4  29F8               	goto	u4236
  9300     01F5                     u4235:
  9301     01F5  1283               	bcf	3,5	;RP0=0, select bank0
  9302     01F6  1303               	bcf	3,6	;RP1=0, select bank0
  9303     01F7  02CB               	subwf	??_efgtoa+3,f
  9304     01F8                     u4236:
  9305     01F8  1683               	bsf	3,5	;RP0=1, select bank1
  9306     01F9  1303               	bcf	3,6	;RP1=0, select bank1
  9307     01FA  1283               	bcf	3,5	;RP0=0, select bank0
  9308     01FB  1303               	bcf	3,6	;RP1=0, select bank0
  9309     01FC  084B               	movf	??_efgtoa+3,w
  9310     01FD  00F3               	movwf	labs@a+3
  9311     01FE  084A               	movf	??_efgtoa+2,w
  9312     01FF  00F2               	movwf	labs@a+2
  9313     0200  0849               	movf	??_efgtoa+1,w
  9314     0201  00F1               	movwf	labs@a+1
  9315     0202  0848               	movf	??_efgtoa,w
  9316     0203  00F0               	movwf	labs@a
  9317     0204  160A  158A  2303  120A  118A  	fcall	_labs
  9318     0209  1BF3               	btfsc	?_labs+3,7
  9319     020A  2A1C               	goto	u4240
  9320     020B  0873               	movf	?_labs+3,w
  9321     020C  1D03               	btfss	3,2
  9322     020D  2A1B               	goto	u4241
  9323     020E  0872               	movf	?_labs+2,w
  9324     020F  1D03               	btfss	3,2
  9325     0210  2A1B               	goto	u4241
  9326     0211  0871               	movf	?_labs+1,w
  9327     0212  1D03               	btfss	3,2
  9328     0213  2A1B               	goto	u4241
  9329     0214  3002               	movlw	2
  9330     0215  0270               	subwf	?_labs,w
  9331     0216  1D03               	skipz
  9332     0217  2A18               	goto	u4243
  9333     0218                     u4243:
  9334     0218  1803               	btfsc	3,0
  9335     0219  2A1B               	goto	u4241
  9336     021A  2A1C               	goto	u4240
  9337     021B                     u4241:
  9338     021B  2AAD               	goto	l2937
  9339     021C                     u4240:
  9340     021C                     l2927:
  9341                           
  9342                           ;D:\Program Files\Microchip\xc8\v3.00\pic\sources\c99\common\doprnt.c: 665:    g = u;
  9343     021C  1683               	bsf	3,5	;RP0=1, select bank1
  9344     021D  1303               	bcf	3,6	;RP1=0, select bank1
  9345     021E  084B               	movf	(efgtoa@u+3)^(0+128),w
  9346     021F  00C7               	movwf	(efgtoa@g+3)^(0+128)
  9347     0220  084A               	movf	(efgtoa@u+2)^(0+128),w
  9348     0221  00C6               	movwf	(efgtoa@g+2)^(0+128)
  9349     0222  0849               	movf	(efgtoa@u+1)^(0+128),w
  9350     0223  00C5               	movwf	(efgtoa@g+1)^(0+128)
  9351     0224  0848               	movf	efgtoa@u^(0+128),w
  9352     0225  00C4               	movwf	efgtoa@g^(0+128)
  9353                           
  9354                           ;D:\Program Files\Microchip\xc8\v3.00\pic\sources\c99\common\doprnt.c: 666:   }
  9355     0226  2AE6               	goto	l2939
  9356     0227                     l2929:
  9357                           
  9358                           ;D:\Program Files\Microchip\xc8\v3.00\pic\sources\c99\common\doprnt.c: 669:     u.f = u.
      +                          f/10.0;
  9359     0227  3041               	movlw	65
  9360     0228  00F3               	movwf	___fldiv@a+3
  9361     0229  3020               	movlw	32
  9362     022A  00F2               	movwf	___fldiv@a+2
  9363     022B  3000               	movlw	0
  9364     022C  00F1               	movwf	___fldiv@a+1
  9365     022D  3000               	movlw	0
  9366     022E  00F0               	movwf	___fldiv@a
  9367     022F  1683               	bsf	3,5	;RP0=1, select bank1
  9368     0230  1303               	bcf	3,6	;RP1=0, select bank1
  9369     0231  084B               	movf	(efgtoa@u+3)^(0+128),w
  9370     0232  00F7               	movwf	___fldiv@b+3
  9371     0233  084A               	movf	(efgtoa@u+2)^(0+128),w
  9372     0234  00F6               	movwf	___fldiv@b+2
  9373     0235  0849               	movf	(efgtoa@u+1)^(0+128),w
  9374     0236  00F5               	movwf	___fldiv@b+1
  9375     0237  0848               	movf	efgtoa@u^(0+128),w
  9376     0238  00F4               	movwf	___fldiv@b
  9377     0239  160A  118A  22EE  120A  118A  	fcall	___fldiv
  9378     023E  0873               	movf	?___fldiv+3,w
  9379     023F  1683               	bsf	3,5	;RP0=1, select bank1
  9380     0240  1303               	bcf	3,6	;RP1=0, select bank1
  9381     0241  00CB               	movwf	(efgtoa@u+3)^(0+128)
  9382     0242  0872               	movf	?___fldiv+2,w
  9383     0243  00CA               	movwf	(efgtoa@u+2)^(0+128)
  9384     0244  0871               	movf	?___fldiv+1,w
  9385     0245  00C9               	movwf	(efgtoa@u+1)^(0+128)
  9386     0246  0870               	movf	?___fldiv,w
  9387     0247  00C8               	movwf	efgtoa@u^(0+128)
  9388     0248                     l2931:
  9389                           
  9390                           ;D:\Program Files\Microchip\xc8\v3.00\pic\sources\c99\common\doprnt.c: 670:     --e;
  9391     0248  30FF               	movlw	255
  9392     0249  07AF               	addwf	efgtoa@e^(0+128),f
  9393     024A  1803               	skipnc
  9394     024B  0AB0               	incf	(efgtoa@e+1)^(0+128),f
  9395     024C  30FF               	movlw	255
  9396     024D  07B0               	addwf	(efgtoa@e+1)^(0+128),f
  9397     024E                     l2933:
  9398                           
  9399                           ;D:\Program Files\Microchip\xc8\v3.00\pic\sources\c99\common\doprnt.c: 671:     if ((lab
      +                          s((g).u-(u).u) <= 1)) {
  9400     024E  0844               	movf	efgtoa@g^(0+128),w
  9401     024F  1283               	bcf	3,5	;RP0=0, select bank0
  9402     0250  1303               	bcf	3,6	;RP1=0, select bank0
  9403     0251  00C8               	movwf	??_efgtoa
  9404     0252  1683               	bsf	3,5	;RP0=1, select bank1
  9405     0253  1303               	bcf	3,6	;RP1=0, select bank1
  9406     0254  0845               	movf	(efgtoa@g+1)^(0+128),w
  9407     0255  1283               	bcf	3,5	;RP0=0, select bank0
  9408     0256  1303               	bcf	3,6	;RP1=0, select bank0
  9409     0257  00C9               	movwf	??_efgtoa+1
  9410     0258  1683               	bsf	3,5	;RP0=1, select bank1
  9411     0259  1303               	bcf	3,6	;RP1=0, select bank1
  9412     025A  0846               	movf	(efgtoa@g+2)^(0+128),w
  9413     025B  1283               	bcf	3,5	;RP0=0, select bank0
  9414     025C  1303               	bcf	3,6	;RP1=0, select bank0
  9415     025D  00CA               	movwf	??_efgtoa+2
  9416     025E  1683               	bsf	3,5	;RP0=1, select bank1
  9417     025F  1303               	bcf	3,6	;RP1=0, select bank1
  9418     0260  0847               	movf	(efgtoa@g+3)^(0+128),w
  9419     0261  1283               	bcf	3,5	;RP0=0, select bank0
  9420     0262  1303               	bcf	3,6	;RP1=0, select bank0
  9421     0263  00CB               	movwf	??_efgtoa+3
  9422     0264  1683               	bsf	3,5	;RP0=1, select bank1
  9423     0265  1303               	bcf	3,6	;RP1=0, select bank1
  9424     0266  0848               	movf	efgtoa@u^(0+128),w
  9425     0267  1283               	bcf	3,5	;RP0=0, select bank0
  9426     0268  1303               	bcf	3,6	;RP1=0, select bank0
  9427     0269  02C8               	subwf	??_efgtoa,f
  9428     026A  1683               	bsf	3,5	;RP0=1, select bank1
  9429     026B  1303               	bcf	3,6	;RP1=0, select bank1
  9430     026C  0849               	movf	(efgtoa@u+1)^(0+128),w
  9431     026D  1C03               	skipc
  9432     026E  0F49               	incfsz	(efgtoa@u+1)^(0+128),w
  9433     026F  2A71               	goto	u4251
  9434     0270  2A74               	goto	u4252
  9435     0271                     u4251:
  9436     0271  1283               	bcf	3,5	;RP0=0, select bank0
  9437     0272  1303               	bcf	3,6	;RP1=0, select bank0
  9438     0273  02C9               	subwf	??_efgtoa+1,f
  9439     0274                     u4252:
  9440     0274  1683               	bsf	3,5	;RP0=1, select bank1
  9441     0275  1303               	bcf	3,6	;RP1=0, select bank1
  9442     0276  084A               	movf	(efgtoa@u+2)^(0+128),w
  9443     0277  1C03               	skipc
  9444     0278  0F4A               	incfsz	(efgtoa@u+2)^(0+128),w
  9445     0279  2A7B               	goto	u4253
  9446     027A  2A7E               	goto	u4254
  9447     027B                     u4253:
  9448     027B  1283               	bcf	3,5	;RP0=0, select bank0
  9449     027C  1303               	bcf	3,6	;RP1=0, select bank0
  9450     027D  02CA               	subwf	??_efgtoa+2,f
  9451     027E                     u4254:
  9452     027E  1683               	bsf	3,5	;RP0=1, select bank1
  9453     027F  1303               	bcf	3,6	;RP1=0, select bank1
  9454     0280  084B               	movf	(efgtoa@u+3)^(0+128),w
  9455     0281  1C03               	skipc
  9456     0282  0F4B               	incfsz	(efgtoa@u+3)^(0+128),w
  9457     0283  2A85               	goto	u4255
  9458     0284  2A88               	goto	u4256
  9459     0285                     u4255:
  9460     0285  1283               	bcf	3,5	;RP0=0, select bank0
  9461     0286  1303               	bcf	3,6	;RP1=0, select bank0
  9462     0287  02CB               	subwf	??_efgtoa+3,f
  9463     0288                     u4256:
  9464     0288  1683               	bsf	3,5	;RP0=1, select bank1
  9465     0289  1303               	bcf	3,6	;RP1=0, select bank1
  9466     028A  1283               	bcf	3,5	;RP0=0, select bank0
  9467     028B  1303               	bcf	3,6	;RP1=0, select bank0
  9468     028C  084B               	movf	??_efgtoa+3,w
  9469     028D  00F3               	movwf	labs@a+3
  9470     028E  084A               	movf	??_efgtoa+2,w
  9471     028F  00F2               	movwf	labs@a+2
  9472     0290  0849               	movf	??_efgtoa+1,w
  9473     0291  00F1               	movwf	labs@a+1
  9474     0292  0848               	movf	??_efgtoa,w
  9475     0293  00F0               	movwf	labs@a
  9476     0294  160A  158A  2303  120A  118A  	fcall	_labs
  9477     0299  1BF3               	btfsc	?_labs+3,7
  9478     029A  2AAC               	goto	u4260
  9479     029B  0873               	movf	?_labs+3,w
  9480     029C  1D03               	btfss	3,2
  9481     029D  2AAB               	goto	u4261
  9482     029E  0872               	movf	?_labs+2,w
  9483     029F  1D03               	btfss	3,2
  9484     02A0  2AAB               	goto	u4261
  9485     02A1  0871               	movf	?_labs+1,w
  9486     02A2  1D03               	btfss	3,2
  9487     02A3  2AAB               	goto	u4261
  9488     02A4  3002               	movlw	2
  9489     02A5  0270               	subwf	?_labs,w
  9490     02A6  1D03               	skipz
  9491     02A7  2AA8               	goto	u4263
  9492     02A8                     u4263:
  9493     02A8  1803               	btfsc	3,0
  9494     02A9  2AAB               	goto	u4261
  9495     02AA  2AAC               	goto	u4260
  9496     02AB                     u4261:
  9497     02AB  2AAD               	goto	l2937
  9498     02AC                     u4260:
  9499     02AC  2A1C               	goto	l2927
  9500     02AD                     l2937:
  9501                           
  9502                           ;D:\Program Files\Microchip\xc8\v3.00\pic\sources\c99\common\doprnt.c: 668:    while (g.
      +                          f < u.f) {
  9503     02AD  1683               	bsf	3,5	;RP0=1, select bank1
  9504     02AE  1303               	bcf	3,6	;RP1=0, select bank1
  9505     02AF  0847               	movf	(efgtoa@g+3)^(0+128),w
  9506     02B0  1283               	bcf	3,5	;RP0=0, select bank0
  9507     02B1  1303               	bcf	3,6	;RP1=0, select bank0
  9508     02B2  00B8               	movwf	___flge@ff1+3
  9509     02B3  1683               	bsf	3,5	;RP0=1, select bank1
  9510     02B4  1303               	bcf	3,6	;RP1=0, select bank1
  9511     02B5  0846               	movf	(efgtoa@g+2)^(0+128),w
  9512     02B6  1283               	bcf	3,5	;RP0=0, select bank0
  9513     02B7  1303               	bcf	3,6	;RP1=0, select bank0
  9514     02B8  00B7               	movwf	___flge@ff1+2
  9515     02B9  1683               	bsf	3,5	;RP0=1, select bank1
  9516     02BA  1303               	bcf	3,6	;RP1=0, select bank1
  9517     02BB  0845               	movf	(efgtoa@g+1)^(0+128),w
  9518     02BC  1283               	bcf	3,5	;RP0=0, select bank0
  9519     02BD  1303               	bcf	3,6	;RP1=0, select bank0
  9520     02BE  00B6               	movwf	___flge@ff1+1
  9521     02BF  1683               	bsf	3,5	;RP0=1, select bank1
  9522     02C0  1303               	bcf	3,6	;RP1=0, select bank1
  9523     02C1  0844               	movf	efgtoa@g^(0+128),w
  9524     02C2  1283               	bcf	3,5	;RP0=0, select bank0
  9525     02C3  1303               	bcf	3,6	;RP1=0, select bank0
  9526     02C4  00B5               	movwf	___flge@ff1
  9527     02C5  1683               	bsf	3,5	;RP0=1, select bank1
  9528     02C6  1303               	bcf	3,6	;RP1=0, select bank1
  9529     02C7  084B               	movf	(efgtoa@u+3)^(0+128),w
  9530     02C8  1283               	bcf	3,5	;RP0=0, select bank0
  9531     02C9  1303               	bcf	3,6	;RP1=0, select bank0
  9532     02CA  00BC               	movwf	___flge@ff2+3
  9533     02CB  1683               	bsf	3,5	;RP0=1, select bank1
  9534     02CC  1303               	bcf	3,6	;RP1=0, select bank1
  9535     02CD  084A               	movf	(efgtoa@u+2)^(0+128),w
  9536     02CE  1283               	bcf	3,5	;RP0=0, select bank0
  9537     02CF  1303               	bcf	3,6	;RP1=0, select bank0
  9538     02D0  00BB               	movwf	___flge@ff2+2
  9539     02D1  1683               	bsf	3,5	;RP0=1, select bank1
  9540     02D2  1303               	bcf	3,6	;RP1=0, select bank1
  9541     02D3  0849               	movf	(efgtoa@u+1)^(0+128),w
  9542     02D4  1283               	bcf	3,5	;RP0=0, select bank0
  9543     02D5  1303               	bcf	3,6	;RP1=0, select bank0
  9544     02D6  00BA               	movwf	___flge@ff2+1
  9545     02D7  1683               	bsf	3,5	;RP0=1, select bank1
  9546     02D8  1303               	bcf	3,6	;RP1=0, select bank1
  9547     02D9  0848               	movf	efgtoa@u^(0+128),w
  9548     02DA  1283               	bcf	3,5	;RP0=0, select bank0
  9549     02DB  1303               	bcf	3,6	;RP1=0, select bank0
  9550     02DC  00B9               	movwf	___flge@ff2
  9551     02DD  120A  118A  200C  120A  118A  	fcall	___flge
  9552     02E2  1C03               	btfss	3,0
  9553     02E3  2AE5               	goto	u4271
  9554     02E4  2AE6               	goto	u4270
  9555     02E5                     u4271:
  9556     02E5  2A27               	goto	l2929
  9557     02E6                     u4270:
  9558     02E6                     l2939:
  9559                           
  9560                           ;D:\Program Files\Microchip\xc8\v3.00\pic\sources\c99\common\doprnt.c: 683:  mode = c;
  9561     02E6  1283               	bcf	3,5	;RP0=0, select bank0
  9562     02E7  1303               	bcf	3,6	;RP1=0, select bank0
  9563     02E8  0847               	movf	efgtoa@c,w
  9564     02E9  1683               	bsf	3,5	;RP0=1, select bank1
  9565     02EA  1303               	bcf	3,6	;RP1=0, select bank1
  9566     02EB  00A9               	movwf	efgtoa@mode^(0+128)
  9567                           
  9568                           ;D:\Program Files\Microchip\xc8\v3.00\pic\sources\c99\common\doprnt.c: 685:     nmode = 
      +                          mode;
  9569     02EC  0829               	movf	efgtoa@mode^(0+128),w
  9570     02ED  00AA               	movwf	efgtoa@nmode^(0+128)
  9571     02EE                     l2941:
  9572                           
  9573                           ;D:\Program Files\Microchip\xc8\v3.00\pic\sources\c99\common\doprnt.c: 695:  {;D:\Progra
      +                          m Files\Microchip\xc8\v3.00\pic\sources\c99\common\doprnt.c: 696:         p = (prec < 0)
      +                           ? 6 : prec;
  9574     02EE  1283               	bcf	3,5	;RP0=0, select bank0
  9575     02EF  1303               	bcf	3,6	;RP1=0, select bank0
  9576     02F0  1BE9               	btfsc	_prec+1,7
  9577     02F1  2AF3               	goto	u4281
  9578     02F2  2AF4               	goto	u4280
  9579     02F3                     u4281:
  9580     02F3  2AFF               	goto	l2945
  9581     02F4                     u4280:
  9582     02F4                     l2943:
  9583     02F4  0869               	movf	_prec+1,w
  9584     02F5  1683               	bsf	3,5	;RP0=1, select bank1
  9585     02F6  1303               	bcf	3,6	;RP1=0, select bank1
  9586     02F7  00A3               	movwf	(efgtoa@p+1)^(0+128)
  9587     02F8  1283               	bcf	3,5	;RP0=0, select bank0
  9588     02F9  1303               	bcf	3,6	;RP1=0, select bank0
  9589     02FA  0868               	movf	_prec,w
  9590     02FB  1683               	bsf	3,5	;RP0=1, select bank1
  9591     02FC  1303               	bcf	3,6	;RP1=0, select bank1
  9592     02FD  00A2               	movwf	efgtoa@p^(0+128)
  9593     02FE  2B05               	goto	l727
  9594     02FF                     l2945:
  9595     02FF  3006               	movlw	6
  9596     0300  1683               	bsf	3,5	;RP0=1, select bank1
  9597     0301  1303               	bcf	3,6	;RP1=0, select bank1
  9598     0302  00A2               	movwf	efgtoa@p^(0+128)
  9599     0303  3000               	movlw	0
  9600     0304  00A3               	movwf	(efgtoa@p^(0+128)+1)
  9601     0305                     l727:
  9602                           
  9603                           ;D:\Program Files\Microchip\xc8\v3.00\pic\sources\c99\common\doprnt.c: 697:     };D:\Pro
      +                          gram Files\Microchip\xc8\v3.00\pic\sources\c99\common\doprnt.c: 711:     m = p;
  9604     0305  0823               	movf	(efgtoa@p+1)^(0+128),w
  9605     0306  00AE               	movwf	(efgtoa@m+1)^(0+128)
  9606     0307  0822               	movf	efgtoa@p^(0+128),w
  9607     0308  00AD               	movwf	efgtoa@m^(0+128)
  9608                           
  9609                           ;D:\Program Files\Microchip\xc8\v3.00\pic\sources\c99\common\doprnt.c: 715:  {;D:\Progra
      +                          m Files\Microchip\xc8\v3.00\pic\sources\c99\common\doprnt.c: 716:         ++m;
  9610     0309  3001               	movlw	1
  9611     030A  07AD               	addwf	efgtoa@m^(0+128),f
  9612     030B  1803               	skipnc
  9613     030C  0AAE               	incf	(efgtoa@m+1)^(0+128),f
  9614     030D  3000               	movlw	0
  9615     030E  07AE               	addwf	(efgtoa@m+1)^(0+128),f
  9616     030F                     l2947:
  9617                           
  9618                           ;D:\Program Files\Microchip\xc8\v3.00\pic\sources\c99\common\doprnt.c: 717:     };D:\Pro
      +                          gram Files\Microchip\xc8\v3.00\pic\sources\c99\common\doprnt.c: 721:     if (nmode == 'f
      +                          ') {
  9619     030F  3066               	movlw	102
  9620     0310  062A               	xorwf	efgtoa@nmode^(0+128),w
  9621     0311  1D03               	btfss	3,2
  9622     0312  2B14               	goto	u4291
  9623     0313  2B15               	goto	u4290
  9624     0314                     u4291:
  9625     0314  2B2F               	goto	l2959
  9626     0315                     u4290:
  9627     0315                     l2949:
  9628                           
  9629                           ;D:\Program Files\Microchip\xc8\v3.00\pic\sources\c99\common\doprnt.c: 722:         if (
      +                          e < 0) {
  9630     0315  1FB0               	btfss	(efgtoa@e+1)^(0+128),7
  9631     0316  2B18               	goto	u4301
  9632     0317  2B19               	goto	u4300
  9633     0318                     u4301:
  9634     0318  2B23               	goto	l2955
  9635     0319                     u4300:
  9636     0319                     l2951:
  9637                           
  9638                           ;D:\Program Files\Microchip\xc8\v3.00\pic\sources\c99\common\doprnt.c: 723:             
      +                          u.f = 1.0;
  9639     0319  303F               	movlw	63
  9640     031A  00CB               	movwf	(efgtoa@u+3)^(0+128)
  9641     031B  3080               	movlw	128
  9642     031C  00CA               	movwf	(efgtoa@u+2)^(0+128)
  9643     031D  3000               	movlw	0
  9644     031E  00C9               	movwf	(efgtoa@u+1)^(0+128)
  9645     031F  3000               	movlw	0
  9646     0320  00C8               	movwf	efgtoa@u^(0+128)
  9647     0321                     l2953:
  9648                           
  9649                           ;D:\Program Files\Microchip\xc8\v3.00\pic\sources\c99\common\doprnt.c: 724:             
      +                          e = 0;
  9650     0321  01AF               	clrf	efgtoa@e^(0+128)
  9651     0322  01B0               	clrf	(efgtoa@e+1)^(0+128)
  9652     0323                     l2955:
  9653                           
  9654                           ;D:\Program Files\Microchip\xc8\v3.00\pic\sources\c99\common\doprnt.c: 726:         if (
      +                          !(mode == 'g')) {
  9655     0323  3067               	movlw	103
  9656     0324  0629               	xorwf	efgtoa@mode^(0+128),w
  9657     0325  1903               	btfsc	3,2
  9658     0326  2B28               	goto	u4311
  9659     0327  2B29               	goto	u4310
  9660     0328                     u4311:
  9661     0328  2B2F               	goto	l2959
  9662     0329                     u4310:
  9663     0329                     l2957:
  9664                           
  9665                           ;D:\Program Files\Microchip\xc8\v3.00\pic\sources\c99\common\doprnt.c: 727:             
      +                          m += e;
  9666     0329  082F               	movf	efgtoa@e^(0+128),w
  9667     032A  07AD               	addwf	efgtoa@m^(0+128),f
  9668     032B  1803               	skipnc
  9669     032C  0AAE               	incf	(efgtoa@m+1)^(0+128),f
  9670     032D  0830               	movf	(efgtoa@e+1)^(0+128),w
  9671     032E  07AE               	addwf	(efgtoa@m+1)^(0+128),f
  9672     032F                     l2959:
  9673                           
  9674                           ;D:\Program Files\Microchip\xc8\v3.00\pic\sources\c99\common\doprnt.c: 733:     i = 0;
  9675     032F  01B7               	clrf	efgtoa@i^(0+128)
  9676     0330  01B8               	clrf	(efgtoa@i+1)^(0+128)
  9677     0331                     l2961:
  9678                           
  9679                           ;D:\Program Files\Microchip\xc8\v3.00\pic\sources\c99\common\doprnt.c: 734:     h = g.f;
  9680     0331  0847               	movf	(efgtoa@g+3)^(0+128),w
  9681     0332  00BC               	movwf	(efgtoa@h+3)^(0+128)
  9682     0333  0846               	movf	(efgtoa@g+2)^(0+128),w
  9683     0334  00BB               	movwf	(efgtoa@h+2)^(0+128)
  9684     0335  0845               	movf	(efgtoa@g+1)^(0+128),w
  9685     0336  00BA               	movwf	(efgtoa@h+1)^(0+128)
  9686     0337  0844               	movf	efgtoa@g^(0+128),w
  9687     0338  00B9               	movwf	efgtoa@h^(0+128)
  9688     0339                     l2963:
  9689                           
  9690                           ;D:\Program Files\Microchip\xc8\v3.00\pic\sources\c99\common\doprnt.c: 735:     ou = u;
  9691     0339  084B               	movf	(efgtoa@u+3)^(0+128),w
  9692     033A  00B6               	movwf	(efgtoa@ou+3)^(0+128)
  9693     033B  084A               	movf	(efgtoa@u+2)^(0+128),w
  9694     033C  00B5               	movwf	(efgtoa@ou+2)^(0+128)
  9695     033D  0849               	movf	(efgtoa@u+1)^(0+128),w
  9696     033E  00B4               	movwf	(efgtoa@ou+1)^(0+128)
  9697     033F  0848               	movf	efgtoa@u^(0+128),w
  9698     0340  00B3               	movwf	efgtoa@ou^(0+128)
  9699                           
  9700                           ;D:\Program Files\Microchip\xc8\v3.00\pic\sources\c99\common\doprnt.c: 736:     while (i
      +                           < m) {
  9701     0341  2C2A               	goto	l2975
  9702     0342                     l2965:
  9703                           
  9704                           ;D:\Program Files\Microchip\xc8\v3.00\pic\sources\c99\common\doprnt.c: 737:         l = 
      +                          floorf(h/u.f);
  9705     0342  1683               	bsf	3,5	;RP0=1, select bank1
  9706     0343  1303               	bcf	3,6	;RP1=0, select bank1
  9707     0344  084B               	movf	(efgtoa@u+3)^(0+128),w
  9708     0345  00F3               	movwf	___fldiv@a+3
  9709     0346  084A               	movf	(efgtoa@u+2)^(0+128),w
  9710     0347  00F2               	movwf	___fldiv@a+2
  9711     0348  0849               	movf	(efgtoa@u+1)^(0+128),w
  9712     0349  00F1               	movwf	___fldiv@a+1
  9713     034A  0848               	movf	efgtoa@u^(0+128),w
  9714     034B  00F0               	movwf	___fldiv@a
  9715     034C  083C               	movf	(efgtoa@h+3)^(0+128),w
  9716     034D  00F7               	movwf	___fldiv@b+3
  9717     034E  083B               	movf	(efgtoa@h+2)^(0+128),w
  9718     034F  00F6               	movwf	___fldiv@b+2
  9719     0350  083A               	movf	(efgtoa@h+1)^(0+128),w
  9720     0351  00F5               	movwf	___fldiv@b+1
  9721     0352  0839               	movf	efgtoa@h^(0+128),w
  9722     0353  00F4               	movwf	___fldiv@b
  9723     0354  160A  118A  22EE  120A  118A  	fcall	___fldiv
  9724     0359  0873               	movf	?___fldiv+3,w
  9725     035A  1283               	bcf	3,5	;RP0=0, select bank0
  9726     035B  1303               	bcf	3,6	;RP1=0, select bank0
  9727     035C  00B0               	movwf	floorf@x+3
  9728     035D  0872               	movf	?___fldiv+2,w
  9729     035E  00AF               	movwf	floorf@x+2
  9730     035F  0871               	movf	?___fldiv+1,w
  9731     0360  00AE               	movwf	floorf@x+1
  9732     0361  0870               	movf	?___fldiv,w
  9733     0362  00AD               	movwf	floorf@x
  9734     0363  160A  118A  20CC  120A  118A  	fcall	_floorf
  9735     0368  1283               	bcf	3,5	;RP0=0, select bank0
  9736     0369  1303               	bcf	3,6	;RP1=0, select bank0
  9737     036A  0830               	movf	?_floorf+3,w
  9738     036B  1683               	bsf	3,5	;RP0=1, select bank1
  9739     036C  1303               	bcf	3,6	;RP1=0, select bank1
  9740     036D  00C0               	movwf	(efgtoa@l+3)^(0+128)
  9741     036E  1283               	bcf	3,5	;RP0=0, select bank0
  9742     036F  1303               	bcf	3,6	;RP1=0, select bank0
  9743     0370  082F               	movf	?_floorf+2,w
  9744     0371  1683               	bsf	3,5	;RP0=1, select bank1
  9745     0372  1303               	bcf	3,6	;RP1=0, select bank1
  9746     0373  00BF               	movwf	(efgtoa@l+2)^(0+128)
  9747     0374  1283               	bcf	3,5	;RP0=0, select bank0
  9748     0375  1303               	bcf	3,6	;RP1=0, select bank0
  9749     0376  082E               	movf	?_floorf+1,w
  9750     0377  1683               	bsf	3,5	;RP0=1, select bank1
  9751     0378  1303               	bcf	3,6	;RP1=0, select bank1
  9752     0379  00BE               	movwf	(efgtoa@l+1)^(0+128)
  9753     037A  1283               	bcf	3,5	;RP0=0, select bank0
  9754     037B  1303               	bcf	3,6	;RP1=0, select bank0
  9755     037C  082D               	movf	?_floorf,w
  9756     037D  1683               	bsf	3,5	;RP0=1, select bank1
  9757     037E  1303               	bcf	3,6	;RP1=0, select bank1
  9758     037F  00BD               	movwf	efgtoa@l^(0+128)
  9759     0380                     l2967:
  9760                           
  9761                           ;D:\Program Files\Microchip\xc8\v3.00\pic\sources\c99\common\doprnt.c: 738:         d = 
      +                          (int)l;
  9762     0380  0840               	movf	(efgtoa@l+3)^(0+128),w
  9763     0381  00F3               	movwf	___fltol@f1+3
  9764     0382  083F               	movf	(efgtoa@l+2)^(0+128),w
  9765     0383  00F2               	movwf	___fltol@f1+2
  9766     0384  083E               	movf	(efgtoa@l+1)^(0+128),w
  9767     0385  00F1               	movwf	___fltol@f1+1
  9768     0386  083D               	movf	efgtoa@l^(0+128),w
  9769     0387  00F0               	movwf	___fltol@f1
  9770     0388  160A  158A  256A  120A  118A  	fcall	___fltol
  9771     038D  0871               	movf	?___fltol+1,w
  9772     038E  1683               	bsf	3,5	;RP0=1, select bank1
  9773     038F  1303               	bcf	3,6	;RP1=0, select bank1
  9774     0390  00AC               	movwf	(efgtoa@d+1)^(0+128)
  9775     0391  0870               	movf	?___fltol,w
  9776     0392  00AB               	movwf	efgtoa@d^(0+128)
  9777     0393                     l2969:
  9778                           
  9779                           ;D:\Program Files\Microchip\xc8\v3.00\pic\sources\c99\common\doprnt.c: 739:         h -=
      +                           l*u.f;
  9780     0393  084B               	movf	(efgtoa@u+3)^(0+128),w
  9781     0394  1283               	bcf	3,5	;RP0=0, select bank0
  9782     0395  1303               	bcf	3,6	;RP1=0, select bank0
  9783     0396  00A7               	movwf	___flmul@a+3
  9784     0397  1683               	bsf	3,5	;RP0=1, select bank1
  9785     0398  1303               	bcf	3,6	;RP1=0, select bank1
  9786     0399  084A               	movf	(efgtoa@u+2)^(0+128),w
  9787     039A  1283               	bcf	3,5	;RP0=0, select bank0
  9788     039B  1303               	bcf	3,6	;RP1=0, select bank0
  9789     039C  00A6               	movwf	___flmul@a+2
  9790     039D  1683               	bsf	3,5	;RP0=1, select bank1
  9791     039E  1303               	bcf	3,6	;RP1=0, select bank1
  9792     039F  0849               	movf	(efgtoa@u+1)^(0+128),w
  9793     03A0  1283               	bcf	3,5	;RP0=0, select bank0
  9794     03A1  1303               	bcf	3,6	;RP1=0, select bank0
  9795     03A2  00A5               	movwf	___flmul@a+1
  9796     03A3  1683               	bsf	3,5	;RP0=1, select bank1
  9797     03A4  1303               	bcf	3,6	;RP1=0, select bank1
  9798     03A5  0848               	movf	efgtoa@u^(0+128),w
  9799     03A6  1283               	bcf	3,5	;RP0=0, select bank0
  9800     03A7  1303               	bcf	3,6	;RP1=0, select bank0
  9801     03A8  00A4               	movwf	___flmul@a
  9802     03A9  1683               	bsf	3,5	;RP0=1, select bank1
  9803     03AA  1303               	bcf	3,6	;RP1=0, select bank1
  9804     03AB  0840               	movf	(efgtoa@l+3)^(0+128),w
  9805     03AC  1283               	bcf	3,5	;RP0=0, select bank0
  9806     03AD  1303               	bcf	3,6	;RP1=0, select bank0
  9807     03AE  00A3               	movwf	___flmul@b+3
  9808     03AF  1683               	bsf	3,5	;RP0=1, select bank1
  9809     03B0  1303               	bcf	3,6	;RP1=0, select bank1
  9810     03B1  083F               	movf	(efgtoa@l+2)^(0+128),w
  9811     03B2  1283               	bcf	3,5	;RP0=0, select bank0
  9812     03B3  1303               	bcf	3,6	;RP1=0, select bank0
  9813     03B4  00A2               	movwf	___flmul@b+2
  9814     03B5  1683               	bsf	3,5	;RP0=1, select bank1
  9815     03B6  1303               	bcf	3,6	;RP1=0, select bank1
  9816     03B7  083E               	movf	(efgtoa@l+1)^(0+128),w
  9817     03B8  1283               	bcf	3,5	;RP0=0, select bank0
  9818     03B9  1303               	bcf	3,6	;RP1=0, select bank0
  9819     03BA  00A1               	movwf	___flmul@b+1
  9820     03BB  1683               	bsf	3,5	;RP0=1, select bank1
  9821     03BC  1303               	bcf	3,6	;RP1=0, select bank1
  9822     03BD  083D               	movf	efgtoa@l^(0+128),w
  9823     03BE  1283               	bcf	3,5	;RP0=0, select bank0
  9824     03BF  1303               	bcf	3,6	;RP1=0, select bank0
  9825     03C0  00A0               	movwf	___flmul@b
  9826     03C1  160A  118A  24BE  120A  118A  	fcall	___flmul
  9827     03C6  1283               	bcf	3,5	;RP0=0, select bank0
  9828     03C7  1303               	bcf	3,6	;RP1=0, select bank0
  9829     03C8  0823               	movf	?___flmul+3,w
  9830     03C9  00B8               	movwf	___flsub@a+3
  9831     03CA  0822               	movf	?___flmul+2,w
  9832     03CB  00B7               	movwf	___flsub@a+2
  9833     03CC  0821               	movf	?___flmul+1,w
  9834     03CD  00B6               	movwf	___flsub@a+1
  9835     03CE  0820               	movf	?___flmul,w
  9836     03CF  00B5               	movwf	___flsub@a
  9837     03D0  1683               	bsf	3,5	;RP0=1, select bank1
  9838     03D1  1303               	bcf	3,6	;RP1=0, select bank1
  9839     03D2  083C               	movf	(efgtoa@h+3)^(0+128),w
  9840     03D3  1283               	bcf	3,5	;RP0=0, select bank0
  9841     03D4  1303               	bcf	3,6	;RP1=0, select bank0
  9842     03D5  00BC               	movwf	___flsub@b+3
  9843     03D6  1683               	bsf	3,5	;RP0=1, select bank1
  9844     03D7  1303               	bcf	3,6	;RP1=0, select bank1
  9845     03D8  083B               	movf	(efgtoa@h+2)^(0+128),w
  9846     03D9  1283               	bcf	3,5	;RP0=0, select bank0
  9847     03DA  1303               	bcf	3,6	;RP1=0, select bank0
  9848     03DB  00BB               	movwf	___flsub@b+2
  9849     03DC  1683               	bsf	3,5	;RP0=1, select bank1
  9850     03DD  1303               	bcf	3,6	;RP1=0, select bank1
  9851     03DE  083A               	movf	(efgtoa@h+1)^(0+128),w
  9852     03DF  1283               	bcf	3,5	;RP0=0, select bank0
  9853     03E0  1303               	bcf	3,6	;RP1=0, select bank0
  9854     03E1  00BA               	movwf	___flsub@b+1
  9855     03E2  1683               	bsf	3,5	;RP0=1, select bank1
  9856     03E3  1303               	bcf	3,6	;RP1=0, select bank1
  9857     03E4  0839               	movf	efgtoa@h^(0+128),w
  9858     03E5  1283               	bcf	3,5	;RP0=0, select bank0
  9859     03E6  1303               	bcf	3,6	;RP1=0, select bank0
  9860     03E7  00B9               	movwf	___flsub@b
  9861     03E8  160A  158A  2387  120A  118A  	fcall	___flsub
  9862     03ED  1283               	bcf	3,5	;RP0=0, select bank0
  9863     03EE  1303               	bcf	3,6	;RP1=0, select bank0
  9864     03EF  0838               	movf	?___flsub+3,w
  9865     03F0  1683               	bsf	3,5	;RP0=1, select bank1
  9866     03F1  1303               	bcf	3,6	;RP1=0, select bank1
  9867     03F2  00BC               	movwf	(efgtoa@h+3)^(0+128)
  9868     03F3  1283               	bcf	3,5	;RP0=0, select bank0
  9869     03F4  1303               	bcf	3,6	;RP1=0, select bank0
  9870     03F5  0837               	movf	?___flsub+2,w
  9871     03F6  1683               	bsf	3,5	;RP0=1, select bank1
  9872     03F7  1303               	bcf	3,6	;RP1=0, select bank1
  9873     03F8  00BB               	movwf	(efgtoa@h+2)^(0+128)
  9874     03F9  1283               	bcf	3,5	;RP0=0, select bank0
  9875     03FA  1303               	bcf	3,6	;RP1=0, select bank0
  9876     03FB  0836               	movf	?___flsub+1,w
  9877     03FC  1683               	bsf	3,5	;RP0=1, select bank1
  9878     03FD  1303               	bcf	3,6	;RP1=0, select bank1
  9879     03FE  00BA               	movwf	(efgtoa@h+1)^(0+128)
  9880     03FF  1283               	bcf	3,5	;RP0=0, select bank0
  9881     0400  1303               	bcf	3,6	;RP1=0, select bank0
  9882     0401  0835               	movf	?___flsub,w
  9883     0402  1683               	bsf	3,5	;RP0=1, select bank1
  9884     0403  1303               	bcf	3,6	;RP1=0, select bank1
  9885     0404  00B9               	movwf	efgtoa@h^(0+128)
  9886     0405                     l2971:
  9887                           
  9888                           ;D:\Program Files\Microchip\xc8\v3.00\pic\sources\c99\common\doprnt.c: 740:         u.f 
      +                          = u.f/10.0;
  9889     0405  3041               	movlw	65
  9890     0406  00F3               	movwf	___fldiv@a+3
  9891     0407  3020               	movlw	32
  9892     0408  00F2               	movwf	___fldiv@a+2
  9893     0409  3000               	movlw	0
  9894     040A  00F1               	movwf	___fldiv@a+1
  9895     040B  3000               	movlw	0
  9896     040C  00F0               	movwf	___fldiv@a
  9897     040D  084B               	movf	(efgtoa@u+3)^(0+128),w
  9898     040E  00F7               	movwf	___fldiv@b+3
  9899     040F  084A               	movf	(efgtoa@u+2)^(0+128),w
  9900     0410  00F6               	movwf	___fldiv@b+2
  9901     0411  0849               	movf	(efgtoa@u+1)^(0+128),w
  9902     0412  00F5               	movwf	___fldiv@b+1
  9903     0413  0848               	movf	efgtoa@u^(0+128),w
  9904     0414  00F4               	movwf	___fldiv@b
  9905     0415  160A  118A  22EE  120A  118A  	fcall	___fldiv
  9906     041A  0873               	movf	?___fldiv+3,w
  9907     041B  1683               	bsf	3,5	;RP0=1, select bank1
  9908     041C  1303               	bcf	3,6	;RP1=0, select bank1
  9909     041D  00CB               	movwf	(efgtoa@u+3)^(0+128)
  9910     041E  0872               	movf	?___fldiv+2,w
  9911     041F  00CA               	movwf	(efgtoa@u+2)^(0+128)
  9912     0420  0871               	movf	?___fldiv+1,w
  9913     0421  00C9               	movwf	(efgtoa@u+1)^(0+128)
  9914     0422  0870               	movf	?___fldiv,w
  9915     0423  00C8               	movwf	efgtoa@u^(0+128)
  9916     0424                     l2973:
  9917                           
  9918                           ;D:\Program Files\Microchip\xc8\v3.00\pic\sources\c99\common\doprnt.c: 741:         ++i;
  9919     0424  3001               	movlw	1
  9920     0425  07B7               	addwf	efgtoa@i^(0+128),f
  9921     0426  1803               	skipnc
  9922     0427  0AB8               	incf	(efgtoa@i+1)^(0+128),f
  9923     0428  3000               	movlw	0
  9924     0429  07B8               	addwf	(efgtoa@i+1)^(0+128),f
  9925     042A                     l2975:
  9926                           
  9927                           ;D:\Program Files\Microchip\xc8\v3.00\pic\sources\c99\common\doprnt.c: 736:     while (i
      +                           < m) {
  9928     042A  0838               	movf	(efgtoa@i+1)^(0+128),w
  9929     042B  3A80               	xorlw	128
  9930     042C  1283               	bcf	3,5	;RP0=0, select bank0
  9931     042D  1303               	bcf	3,6	;RP1=0, select bank0
  9932     042E  00C8               	movwf	??_efgtoa
  9933     042F  1683               	bsf	3,5	;RP0=1, select bank1
  9934     0430  1303               	bcf	3,6	;RP1=0, select bank1
  9935     0431  082E               	movf	(efgtoa@m+1)^(0+128),w
  9936     0432  3A80               	xorlw	128
  9937     0433  1283               	bcf	3,5	;RP0=0, select bank0
  9938     0434  1303               	bcf	3,6	;RP1=0, select bank0
  9939     0435  0248               	subwf	??_efgtoa,w
  9940     0436  1D03               	skipz
  9941     0437  2C3C               	goto	u4325
  9942     0438  1683               	bsf	3,5	;RP0=1, select bank1
  9943     0439  1303               	bcf	3,6	;RP1=0, select bank1
  9944     043A  082D               	movf	efgtoa@m^(0+128),w
  9945     043B  0237               	subwf	efgtoa@i^(0+128),w
  9946     043C                     u4325:
  9947     043C  1C03               	skipc
  9948     043D  2C3F               	goto	u4321
  9949     043E  2C40               	goto	u4320
  9950     043F                     u4321:
  9951     043F  2B42               	goto	l2965
  9952     0440                     u4320:
  9953     0440                     l2977:
  9954                           
  9955                           ;D:\Program Files\Microchip\xc8\v3.00\pic\sources\c99\common\doprnt.c: 745:     l = u.f*
      +                          5.0;
  9956     0440  3040               	movlw	64
  9957     0441  1283               	bcf	3,5	;RP0=0, select bank0
  9958     0442  1303               	bcf	3,6	;RP1=0, select bank0
  9959     0443  00A3               	movwf	___flmul@b+3
  9960     0444  30A0               	movlw	160
  9961     0445  00A2               	movwf	___flmul@b+2
  9962     0446  3000               	movlw	0
  9963     0447  00A1               	movwf	___flmul@b+1
  9964     0448  3000               	movlw	0
  9965     0449  00A0               	movwf	___flmul@b
  9966     044A  1683               	bsf	3,5	;RP0=1, select bank1
  9967     044B  1303               	bcf	3,6	;RP1=0, select bank1
  9968     044C  084B               	movf	(efgtoa@u+3)^(0+128),w
  9969     044D  1283               	bcf	3,5	;RP0=0, select bank0
  9970     044E  1303               	bcf	3,6	;RP1=0, select bank0
  9971     044F  00A7               	movwf	___flmul@a+3
  9972     0450  1683               	bsf	3,5	;RP0=1, select bank1
  9973     0451  1303               	bcf	3,6	;RP1=0, select bank1
  9974     0452  084A               	movf	(efgtoa@u+2)^(0+128),w
  9975     0453  1283               	bcf	3,5	;RP0=0, select bank0
  9976     0454  1303               	bcf	3,6	;RP1=0, select bank0
  9977     0455  00A6               	movwf	___flmul@a+2
  9978     0456  1683               	bsf	3,5	;RP0=1, select bank1
  9979     0457  1303               	bcf	3,6	;RP1=0, select bank1
  9980     0458  0849               	movf	(efgtoa@u+1)^(0+128),w
  9981     0459  1283               	bcf	3,5	;RP0=0, select bank0
  9982     045A  1303               	bcf	3,6	;RP1=0, select bank0
  9983     045B  00A5               	movwf	___flmul@a+1
  9984     045C  1683               	bsf	3,5	;RP0=1, select bank1
  9985     045D  1303               	bcf	3,6	;RP1=0, select bank1
  9986     045E  0848               	movf	efgtoa@u^(0+128),w
  9987     045F  1283               	bcf	3,5	;RP0=0, select bank0
  9988     0460  1303               	bcf	3,6	;RP1=0, select bank0
  9989     0461  00A4               	movwf	___flmul@a
  9990     0462  160A  118A  24BE  120A  118A  	fcall	___flmul
  9991     0467  1283               	bcf	3,5	;RP0=0, select bank0
  9992     0468  1303               	bcf	3,6	;RP1=0, select bank0
  9993     0469  0823               	movf	?___flmul+3,w
  9994     046A  1683               	bsf	3,5	;RP0=1, select bank1
  9995     046B  1303               	bcf	3,6	;RP1=0, select bank1
  9996     046C  00C0               	movwf	(efgtoa@l+3)^(0+128)
  9997     046D  1283               	bcf	3,5	;RP0=0, select bank0
  9998     046E  1303               	bcf	3,6	;RP1=0, select bank0
  9999     046F  0822               	movf	?___flmul+2,w
 10000     0470  1683               	bsf	3,5	;RP0=1, select bank1
 10001     0471  1303               	bcf	3,6	;RP1=0, select bank1
 10002     0472  00BF               	movwf	(efgtoa@l+2)^(0+128)
 10003     0473  1283               	bcf	3,5	;RP0=0, select bank0
 10004     0474  1303               	bcf	3,6	;RP1=0, select bank0
 10005     0475  0821               	movf	?___flmul+1,w
 10006     0476  1683               	bsf	3,5	;RP0=1, select bank1
 10007     0477  1303               	bcf	3,6	;RP1=0, select bank1
 10008     0478  00BE               	movwf	(efgtoa@l+1)^(0+128)
 10009     0479  1283               	bcf	3,5	;RP0=0, select bank0
 10010     047A  1303               	bcf	3,6	;RP1=0, select bank0
 10011     047B  0820               	movf	?___flmul,w
 10012     047C  1683               	bsf	3,5	;RP0=1, select bank1
 10013     047D  1303               	bcf	3,6	;RP1=0, select bank1
 10014     047E  00BD               	movwf	efgtoa@l^(0+128)
 10015     047F                     l2979:
 10016                           
 10017                           ;D:\Program Files\Microchip\xc8\v3.00\pic\sources\c99\common\doprnt.c: 746:     if (h < 
      +                          l) {
 10018     047F  083C               	movf	(efgtoa@h+3)^(0+128),w
 10019     0480  1283               	bcf	3,5	;RP0=0, select bank0
 10020     0481  1303               	bcf	3,6	;RP1=0, select bank0
 10021     0482  00B8               	movwf	___flge@ff1+3
 10022     0483  1683               	bsf	3,5	;RP0=1, select bank1
 10023     0484  1303               	bcf	3,6	;RP1=0, select bank1
 10024     0485  083B               	movf	(efgtoa@h+2)^(0+128),w
 10025     0486  1283               	bcf	3,5	;RP0=0, select bank0
 10026     0487  1303               	bcf	3,6	;RP1=0, select bank0
 10027     0488  00B7               	movwf	___flge@ff1+2
 10028     0489  1683               	bsf	3,5	;RP0=1, select bank1
 10029     048A  1303               	bcf	3,6	;RP1=0, select bank1
 10030     048B  083A               	movf	(efgtoa@h+1)^(0+128),w
 10031     048C  1283               	bcf	3,5	;RP0=0, select bank0
 10032     048D  1303               	bcf	3,6	;RP1=0, select bank0
 10033     048E  00B6               	movwf	___flge@ff1+1
 10034     048F  1683               	bsf	3,5	;RP0=1, select bank1
 10035     0490  1303               	bcf	3,6	;RP1=0, select bank1
 10036     0491  0839               	movf	efgtoa@h^(0+128),w
 10037     0492  1283               	bcf	3,5	;RP0=0, select bank0
 10038     0493  1303               	bcf	3,6	;RP1=0, select bank0
 10039     0494  00B5               	movwf	___flge@ff1
 10040     0495  1683               	bsf	3,5	;RP0=1, select bank1
 10041     0496  1303               	bcf	3,6	;RP1=0, select bank1
 10042     0497  0840               	movf	(efgtoa@l+3)^(0+128),w
 10043     0498  1283               	bcf	3,5	;RP0=0, select bank0
 10044     0499  1303               	bcf	3,6	;RP1=0, select bank0
 10045     049A  00BC               	movwf	___flge@ff2+3
 10046     049B  1683               	bsf	3,5	;RP0=1, select bank1
 10047     049C  1303               	bcf	3,6	;RP1=0, select bank1
 10048     049D  083F               	movf	(efgtoa@l+2)^(0+128),w
 10049     049E  1283               	bcf	3,5	;RP0=0, select bank0
 10050     049F  1303               	bcf	3,6	;RP1=0, select bank0
 10051     04A0  00BB               	movwf	___flge@ff2+2
 10052     04A1  1683               	bsf	3,5	;RP0=1, select bank1
 10053     04A2  1303               	bcf	3,6	;RP1=0, select bank1
 10054     04A3  083E               	movf	(efgtoa@l+1)^(0+128),w
 10055     04A4  1283               	bcf	3,5	;RP0=0, select bank0
 10056     04A5  1303               	bcf	3,6	;RP1=0, select bank0
 10057     04A6  00BA               	movwf	___flge@ff2+1
 10058     04A7  1683               	bsf	3,5	;RP0=1, select bank1
 10059     04A8  1303               	bcf	3,6	;RP1=0, select bank1
 10060     04A9  083D               	movf	efgtoa@l^(0+128),w
 10061     04AA  1283               	bcf	3,5	;RP0=0, select bank0
 10062     04AB  1303               	bcf	3,6	;RP1=0, select bank0
 10063     04AC  00B9               	movwf	___flge@ff2
 10064     04AD  120A  118A  200C  120A  118A  	fcall	___flge
 10065     04B2  1803               	btfsc	3,0
 10066     04B3  2CB5               	goto	u4331
 10067     04B4  2CB6               	goto	u4330
 10068     04B5                     u4331:
 10069     04B5  2CC1               	goto	l2983
 10070     04B6                     u4330:
 10071     04B6                     l2981:
 10072                           
 10073                           ;D:\Program Files\Microchip\xc8\v3.00\pic\sources\c99\common\doprnt.c: 747:         l = 
      +                          0.0;
 10074     04B6  3000               	movlw	0
 10075     04B7  1683               	bsf	3,5	;RP0=1, select bank1
 10076     04B8  1303               	bcf	3,6	;RP1=0, select bank1
 10077     04B9  00C0               	movwf	(efgtoa@l+3)^(0+128)
 10078     04BA  3000               	movlw	0
 10079     04BB  00BF               	movwf	(efgtoa@l+2)^(0+128)
 10080     04BC  3000               	movlw	0
 10081     04BD  00BE               	movwf	(efgtoa@l+1)^(0+128)
 10082     04BE  3000               	movlw	0
 10083     04BF  00BD               	movwf	efgtoa@l^(0+128)
 10084                           
 10085                           ;D:\Program Files\Microchip\xc8\v3.00\pic\sources\c99\common\doprnt.c: 748:     } else {
 10086     04C0  2CEA               	goto	l2989
 10087     04C1                     l2983:
 10088                           
 10089                           ;D:\Program Files\Microchip\xc8\v3.00\pic\sources\c99\common\doprnt.c: 750:         if (
      +                          (h == l) && !(d % 2)) {
 10090     04C1  1683               	bsf	3,5	;RP0=1, select bank1
 10091     04C2  1303               	bcf	3,6	;RP1=0, select bank1
 10092     04C3  083C               	movf	(efgtoa@h+3)^(0+128),w
 10093     04C4  00F3               	movwf	___fleq@ff1+3
 10094     04C5  083B               	movf	(efgtoa@h+2)^(0+128),w
 10095     04C6  00F2               	movwf	___fleq@ff1+2
 10096     04C7  083A               	movf	(efgtoa@h+1)^(0+128),w
 10097     04C8  00F1               	movwf	___fleq@ff1+1
 10098     04C9  0839               	movf	efgtoa@h^(0+128),w
 10099     04CA  00F0               	movwf	___fleq@ff1
 10100     04CB  0840               	movf	(efgtoa@l+3)^(0+128),w
 10101     04CC  00F7               	movwf	___fleq@ff2+3
 10102     04CD  083F               	movf	(efgtoa@l+2)^(0+128),w
 10103     04CE  00F6               	movwf	___fleq@ff2+2
 10104     04CF  083E               	movf	(efgtoa@l+1)^(0+128),w
 10105     04D0  00F5               	movwf	___fleq@ff2+1
 10106     04D1  083D               	movf	efgtoa@l^(0+128),w
 10107     04D2  00F4               	movwf	___fleq@ff2
 10108     04D3  160A  158A  24C9  120A  118A  	fcall	___fleq
 10109     04D8  1C03               	btfss	3,0
 10110     04D9  2CDB               	goto	u4341
 10111     04DA  2CDC               	goto	u4340
 10112     04DB                     u4341:
 10113     04DB  2CEA               	goto	l2989
 10114     04DC                     u4340:
 10115     04DC                     l2985:
 10116     04DC  1683               	bsf	3,5	;RP0=1, select bank1
 10117     04DD  1303               	bcf	3,6	;RP1=0, select bank1
 10118     04DE  182B               	btfsc	efgtoa@d^(0+128),0
 10119     04DF  2CE1               	goto	u4351
 10120     04E0  2CE2               	goto	u4350
 10121     04E1                     u4351:
 10122     04E1  2CEA               	goto	l2989
 10123     04E2                     u4350:
 10124     04E2                     l2987:
 10125                           
 10126                           ;D:\Program Files\Microchip\xc8\v3.00\pic\sources\c99\common\doprnt.c: 751:             
      +                          l = 0.0;
 10127     04E2  3000               	movlw	0
 10128     04E3  00C0               	movwf	(efgtoa@l+3)^(0+128)
 10129     04E4  3000               	movlw	0
 10130     04E5  00BF               	movwf	(efgtoa@l+2)^(0+128)
 10131     04E6  3000               	movlw	0
 10132     04E7  00BE               	movwf	(efgtoa@l+1)^(0+128)
 10133     04E8  3000               	movlw	0
 10134     04E9  00BD               	movwf	efgtoa@l^(0+128)
 10135     04EA                     l2989:
 10136                           
 10137                           ;D:\Program Files\Microchip\xc8\v3.00\pic\sources\c99\common\doprnt.c: 756:     h = g.f 
      +                          + l;
 10138     04EA  1683               	bsf	3,5	;RP0=1, select bank1
 10139     04EB  1303               	bcf	3,6	;RP1=0, select bank1
 10140     04EC  0840               	movf	(efgtoa@l+3)^(0+128),w
 10141     04ED  00F3               	movwf	___fladd@b+3
 10142     04EE  083F               	movf	(efgtoa@l+2)^(0+128),w
 10143     04EF  00F2               	movwf	___fladd@b+2
 10144     04F0  083E               	movf	(efgtoa@l+1)^(0+128),w
 10145     04F1  00F1               	movwf	___fladd@b+1
 10146     04F2  083D               	movf	efgtoa@l^(0+128),w
 10147     04F3  00F0               	movwf	___fladd@b
 10148     04F4  0847               	movf	(efgtoa@g+3)^(0+128),w
 10149     04F5  00F7               	movwf	___fladd@a+3
 10150     04F6  0846               	movf	(efgtoa@g+2)^(0+128),w
 10151     04F7  00F6               	movwf	___fladd@a+2
 10152     04F8  0845               	movf	(efgtoa@g+1)^(0+128),w
 10153     04F9  00F5               	movwf	___fladd@a+1
 10154     04FA  0844               	movf	efgtoa@g^(0+128),w
 10155     04FB  00F4               	movwf	___fladd@a
 10156     04FC  120A  158A  201A  120A  118A  	fcall	___fladd
 10157     0501  0873               	movf	?___fladd+3,w
 10158     0502  1683               	bsf	3,5	;RP0=1, select bank1
 10159     0503  1303               	bcf	3,6	;RP1=0, select bank1
 10160     0504  00BC               	movwf	(efgtoa@h+3)^(0+128)
 10161     0505  0872               	movf	?___fladd+2,w
 10162     0506  00BB               	movwf	(efgtoa@h+2)^(0+128)
 10163     0507  0871               	movf	?___fladd+1,w
 10164     0508  00BA               	movwf	(efgtoa@h+1)^(0+128)
 10165     0509  0870               	movf	?___fladd,w
 10166     050A  00B9               	movwf	efgtoa@h^(0+128)
 10167     050B                     l2991:
 10168                           
 10169                           ;D:\Program Files\Microchip\xc8\v3.00\pic\sources\c99\common\doprnt.c: 758:  if (h >= (o
      +                          u.f*10.0)) {
 10170     050B  083C               	movf	(efgtoa@h+3)^(0+128),w
 10171     050C  1283               	bcf	3,5	;RP0=0, select bank0
 10172     050D  1303               	bcf	3,6	;RP1=0, select bank0
 10173     050E  00B8               	movwf	___flge@ff1+3
 10174     050F  1683               	bsf	3,5	;RP0=1, select bank1
 10175     0510  1303               	bcf	3,6	;RP1=0, select bank1
 10176     0511  083B               	movf	(efgtoa@h+2)^(0+128),w
 10177     0512  1283               	bcf	3,5	;RP0=0, select bank0
 10178     0513  1303               	bcf	3,6	;RP1=0, select bank0
 10179     0514  00B7               	movwf	___flge@ff1+2
 10180     0515  1683               	bsf	3,5	;RP0=1, select bank1
 10181     0516  1303               	bcf	3,6	;RP1=0, select bank1
 10182     0517  083A               	movf	(efgtoa@h+1)^(0+128),w
 10183     0518  1283               	bcf	3,5	;RP0=0, select bank0
 10184     0519  1303               	bcf	3,6	;RP1=0, select bank0
 10185     051A  00B6               	movwf	___flge@ff1+1
 10186     051B  1683               	bsf	3,5	;RP0=1, select bank1
 10187     051C  1303               	bcf	3,6	;RP1=0, select bank1
 10188     051D  0839               	movf	efgtoa@h^(0+128),w
 10189     051E  1283               	bcf	3,5	;RP0=0, select bank0
 10190     051F  1303               	bcf	3,6	;RP1=0, select bank0
 10191     0520  00B5               	movwf	___flge@ff1
 10192     0521  3041               	movlw	65
 10193     0522  00A3               	movwf	___flmul@b+3
 10194     0523  3020               	movlw	32
 10195     0524  00A2               	movwf	___flmul@b+2
 10196     0525  3000               	movlw	0
 10197     0526  00A1               	movwf	___flmul@b+1
 10198     0527  3000               	movlw	0
 10199     0528  00A0               	movwf	___flmul@b
 10200     0529  1683               	bsf	3,5	;RP0=1, select bank1
 10201     052A  1303               	bcf	3,6	;RP1=0, select bank1
 10202     052B  0836               	movf	(efgtoa@ou+3)^(0+128),w
 10203     052C  1283               	bcf	3,5	;RP0=0, select bank0
 10204     052D  1303               	bcf	3,6	;RP1=0, select bank0
 10205     052E  00A7               	movwf	___flmul@a+3
 10206     052F  1683               	bsf	3,5	;RP0=1, select bank1
 10207     0530  1303               	bcf	3,6	;RP1=0, select bank1
 10208     0531  0835               	movf	(efgtoa@ou+2)^(0+128),w
 10209     0532  1283               	bcf	3,5	;RP0=0, select bank0
 10210     0533  1303               	bcf	3,6	;RP1=0, select bank0
 10211     0534  00A6               	movwf	___flmul@a+2
 10212     0535  1683               	bsf	3,5	;RP0=1, select bank1
 10213     0536  1303               	bcf	3,6	;RP1=0, select bank1
 10214     0537  0834               	movf	(efgtoa@ou+1)^(0+128),w
 10215     0538  1283               	bcf	3,5	;RP0=0, select bank0
 10216     0539  1303               	bcf	3,6	;RP1=0, select bank0
 10217     053A  00A5               	movwf	___flmul@a+1
 10218     053B  1683               	bsf	3,5	;RP0=1, select bank1
 10219     053C  1303               	bcf	3,6	;RP1=0, select bank1
 10220     053D  0833               	movf	efgtoa@ou^(0+128),w
 10221     053E  1283               	bcf	3,5	;RP0=0, select bank0
 10222     053F  1303               	bcf	3,6	;RP1=0, select bank0
 10223     0540  00A4               	movwf	___flmul@a
 10224     0541  160A  118A  24BE  120A  118A  	fcall	___flmul
 10225     0546  1283               	bcf	3,5	;RP0=0, select bank0
 10226     0547  1303               	bcf	3,6	;RP1=0, select bank0
 10227     0548  0823               	movf	?___flmul+3,w
 10228     0549  00BC               	movwf	___flge@ff2+3
 10229     054A  0822               	movf	?___flmul+2,w
 10230     054B  00BB               	movwf	___flge@ff2+2
 10231     054C  0821               	movf	?___flmul+1,w
 10232     054D  00BA               	movwf	___flge@ff2+1
 10233     054E  0820               	movf	?___flmul,w
 10234     054F  00B9               	movwf	___flge@ff2
 10235     0550  120A  118A  200C  120A  118A  	fcall	___flge
 10236     0555  1C03               	btfss	3,0
 10237     0556  2D58               	goto	u4361
 10238     0557  2D59               	goto	u4360
 10239     0558                     u4361:
 10240     0558  2DAC               	goto	l737
 10241     0559                     u4360:
 10242     0559                     l2993:
 10243                           
 10244                           ;D:\Program Files\Microchip\xc8\v3.00\pic\sources\c99\common\doprnt.c: 759:   e++;
 10245     0559  3001               	movlw	1
 10246     055A  1683               	bsf	3,5	;RP0=1, select bank1
 10247     055B  1303               	bcf	3,6	;RP1=0, select bank1
 10248     055C  07AF               	addwf	efgtoa@e^(0+128),f
 10249     055D  1803               	skipnc
 10250     055E  0AB0               	incf	(efgtoa@e+1)^(0+128),f
 10251     055F  3000               	movlw	0
 10252     0560  07B0               	addwf	(efgtoa@e+1)^(0+128),f
 10253     0561                     l2995:
 10254                           
 10255                           ;D:\Program Files\Microchip\xc8\v3.00\pic\sources\c99\common\doprnt.c: 760:   ou.f *= 10
      +                          .0;
 10256     0561  3041               	movlw	65
 10257     0562  1283               	bcf	3,5	;RP0=0, select bank0
 10258     0563  1303               	bcf	3,6	;RP1=0, select bank0
 10259     0564  00A3               	movwf	___flmul@b+3
 10260     0565  3020               	movlw	32
 10261     0566  00A2               	movwf	___flmul@b+2
 10262     0567  3000               	movlw	0
 10263     0568  00A1               	movwf	___flmul@b+1
 10264     0569  3000               	movlw	0
 10265     056A  00A0               	movwf	___flmul@b
 10266     056B  1683               	bsf	3,5	;RP0=1, select bank1
 10267     056C  1303               	bcf	3,6	;RP1=0, select bank1
 10268     056D  0836               	movf	(efgtoa@ou+3)^(0+128),w
 10269     056E  1283               	bcf	3,5	;RP0=0, select bank0
 10270     056F  1303               	bcf	3,6	;RP1=0, select bank0
 10271     0570  00A7               	movwf	___flmul@a+3
 10272     0571  1683               	bsf	3,5	;RP0=1, select bank1
 10273     0572  1303               	bcf	3,6	;RP1=0, select bank1
 10274     0573  0835               	movf	(efgtoa@ou+2)^(0+128),w
 10275     0574  1283               	bcf	3,5	;RP0=0, select bank0
 10276     0575  1303               	bcf	3,6	;RP1=0, select bank0
 10277     0576  00A6               	movwf	___flmul@a+2
 10278     0577  1683               	bsf	3,5	;RP0=1, select bank1
 10279     0578  1303               	bcf	3,6	;RP1=0, select bank1
 10280     0579  0834               	movf	(efgtoa@ou+1)^(0+128),w
 10281     057A  1283               	bcf	3,5	;RP0=0, select bank0
 10282     057B  1303               	bcf	3,6	;RP1=0, select bank0
 10283     057C  00A5               	movwf	___flmul@a+1
 10284     057D  1683               	bsf	3,5	;RP0=1, select bank1
 10285     057E  1303               	bcf	3,6	;RP1=0, select bank1
 10286     057F  0833               	movf	efgtoa@ou^(0+128),w
 10287     0580  1283               	bcf	3,5	;RP0=0, select bank0
 10288     0581  1303               	bcf	3,6	;RP1=0, select bank0
 10289     0582  00A4               	movwf	___flmul@a
 10290     0583  160A  118A  24BE  120A  118A  	fcall	___flmul
 10291     0588  1283               	bcf	3,5	;RP0=0, select bank0
 10292     0589  1303               	bcf	3,6	;RP1=0, select bank0
 10293     058A  0823               	movf	?___flmul+3,w
 10294     058B  1683               	bsf	3,5	;RP0=1, select bank1
 10295     058C  1303               	bcf	3,6	;RP1=0, select bank1
 10296     058D  00B6               	movwf	(efgtoa@ou+3)^(0+128)
 10297     058E  1283               	bcf	3,5	;RP0=0, select bank0
 10298     058F  1303               	bcf	3,6	;RP1=0, select bank0
 10299     0590  0822               	movf	?___flmul+2,w
 10300     0591  1683               	bsf	3,5	;RP0=1, select bank1
 10301     0592  1303               	bcf	3,6	;RP1=0, select bank1
 10302     0593  00B5               	movwf	(efgtoa@ou+2)^(0+128)
 10303     0594  1283               	bcf	3,5	;RP0=0, select bank0
 10304     0595  1303               	bcf	3,6	;RP1=0, select bank0
 10305     0596  0821               	movf	?___flmul+1,w
 10306     0597  1683               	bsf	3,5	;RP0=1, select bank1
 10307     0598  1303               	bcf	3,6	;RP1=0, select bank1
 10308     0599  00B4               	movwf	(efgtoa@ou+1)^(0+128)
 10309     059A  1283               	bcf	3,5	;RP0=0, select bank0
 10310     059B  1303               	bcf	3,6	;RP1=0, select bank0
 10311     059C  0820               	movf	?___flmul,w
 10312     059D  1683               	bsf	3,5	;RP0=1, select bank1
 10313     059E  1303               	bcf	3,6	;RP1=0, select bank1
 10314     059F  00B3               	movwf	efgtoa@ou^(0+128)
 10315     05A0                     l2997:
 10316                           
 10317                           ;D:\Program Files\Microchip\xc8\v3.00\pic\sources\c99\common\doprnt.c: 762:   if (nmode 
      +                          == 'f') {
 10318     05A0  3066               	movlw	102
 10319     05A1  062A               	xorwf	efgtoa@nmode^(0+128),w
 10320     05A2  1D03               	btfss	3,2
 10321     05A3  2DA5               	goto	u4371
 10322     05A4  2DA6               	goto	u4370
 10323     05A5                     u4371:
 10324     05A5  2DAC               	goto	l737
 10325     05A6                     u4370:
 10326     05A6                     l2999:
 10327                           
 10328                           ;D:\Program Files\Microchip\xc8\v3.00\pic\sources\c99\common\doprnt.c: 764:    m++;
 10329     05A6  3001               	movlw	1
 10330     05A7  07AD               	addwf	efgtoa@m^(0+128),f
 10331     05A8  1803               	skipnc
 10332     05A9  0AAE               	incf	(efgtoa@m+1)^(0+128),f
 10333     05AA  3000               	movlw	0
 10334     05AB  07AE               	addwf	(efgtoa@m+1)^(0+128),f
 10335     05AC                     l737:	
 10336                           ;D:\Program Files\Microchip\xc8\v3.00\pic\sources\c99\common\doprnt.c: 767:  }
 10337                           
 10338                           
 10339                           ;D:\Program Files\Microchip\xc8\v3.00\pic\sources\c99\common\doprnt.c: 770:     u = ou;
 10340     05AC  1683               	bsf	3,5	;RP0=1, select bank1
 10341     05AD  1303               	bcf	3,6	;RP1=0, select bank1
 10342     05AE  0836               	movf	(efgtoa@ou+3)^(0+128),w
 10343     05AF  00CB               	movwf	(efgtoa@u+3)^(0+128)
 10344     05B0  0835               	movf	(efgtoa@ou+2)^(0+128),w
 10345     05B1  00CA               	movwf	(efgtoa@u+2)^(0+128)
 10346     05B2  0834               	movf	(efgtoa@ou+1)^(0+128),w
 10347     05B3  00C9               	movwf	(efgtoa@u+1)^(0+128)
 10348     05B4  0833               	movf	efgtoa@ou^(0+128),w
 10349     05B5  00C8               	movwf	efgtoa@u^(0+128)
 10350                           
 10351                           ;D:\Program Files\Microchip\xc8\v3.00\pic\sources\c99\common\doprnt.c: 774:  ne = e;
 10352     05B6  0830               	movf	(efgtoa@e+1)^(0+128),w
 10353     05B7  00A1               	movwf	(efgtoa@ne+1)^(0+128)
 10354     05B8  082F               	movf	efgtoa@e^(0+128),w
 10355     05B9  00A0               	movwf	efgtoa@ne^(0+128)
 10356     05BA                     l3001:
 10357                           
 10358                           ;D:\Program Files\Microchip\xc8\v3.00\pic\sources\c99\common\doprnt.c: 776:     pp = 0;
 10359     05BA  01A8               	clrf	efgtoa@pp^(0+128)
 10360     05BB                     l3003:
 10361                           
 10362                           ;D:\Program Files\Microchip\xc8\v3.00\pic\sources\c99\common\doprnt.c: 777:     t = 0;
 10363     05BB  01A4               	clrf	efgtoa@t^(0+128)
 10364     05BC  01A5               	clrf	(efgtoa@t+1)^(0+128)
 10365     05BD                     l3005:
 10366                           
 10367                           ;D:\Program Files\Microchip\xc8\v3.00\pic\sources\c99\common\doprnt.c: 778:     i = 0;
 10368     05BD  01B7               	clrf	efgtoa@i^(0+128)
 10369     05BE  01B8               	clrf	(efgtoa@i+1)^(0+128)
 10370                           
 10371                           ;D:\Program Files\Microchip\xc8\v3.00\pic\sources\c99\common\doprnt.c: 779:     while ((
      +                          i < m) && (n < (80 - 5))) {
 10372     05BF  2F20               	goto	l3049
 10373     05C0                     l3007:
 10374                           
 10375                           ;D:\Program Files\Microchip\xc8\v3.00\pic\sources\c99\common\doprnt.c: 780:         l = 
      +                          floorf(h/u.f);
 10376     05C0  1683               	bsf	3,5	;RP0=1, select bank1
 10377     05C1  1303               	bcf	3,6	;RP1=0, select bank1
 10378     05C2  084B               	movf	(efgtoa@u+3)^(0+128),w
 10379     05C3  00F3               	movwf	___fldiv@a+3
 10380     05C4  084A               	movf	(efgtoa@u+2)^(0+128),w
 10381     05C5  00F2               	movwf	___fldiv@a+2
 10382     05C6  0849               	movf	(efgtoa@u+1)^(0+128),w
 10383     05C7  00F1               	movwf	___fldiv@a+1
 10384     05C8  0848               	movf	efgtoa@u^(0+128),w
 10385     05C9  00F0               	movwf	___fldiv@a
 10386     05CA  083C               	movf	(efgtoa@h+3)^(0+128),w
 10387     05CB  00F7               	movwf	___fldiv@b+3
 10388     05CC  083B               	movf	(efgtoa@h+2)^(0+128),w
 10389     05CD  00F6               	movwf	___fldiv@b+2
 10390     05CE  083A               	movf	(efgtoa@h+1)^(0+128),w
 10391     05CF  00F5               	movwf	___fldiv@b+1
 10392     05D0  0839               	movf	efgtoa@h^(0+128),w
 10393     05D1  00F4               	movwf	___fldiv@b
 10394     05D2  160A  118A  22EE  120A  118A  	fcall	___fldiv
 10395     05D7  0873               	movf	?___fldiv+3,w
 10396     05D8  1283               	bcf	3,5	;RP0=0, select bank0
 10397     05D9  1303               	bcf	3,6	;RP1=0, select bank0
 10398     05DA  00B0               	movwf	floorf@x+3
 10399     05DB  0872               	movf	?___fldiv+2,w
 10400     05DC  00AF               	movwf	floorf@x+2
 10401     05DD  0871               	movf	?___fldiv+1,w
 10402     05DE  00AE               	movwf	floorf@x+1
 10403     05DF  0870               	movf	?___fldiv,w
 10404     05E0  00AD               	movwf	floorf@x
 10405     05E1  160A  118A  20CC  120A  118A  	fcall	_floorf
 10406     05E6  1283               	bcf	3,5	;RP0=0, select bank0
 10407     05E7  1303               	bcf	3,6	;RP1=0, select bank0
 10408     05E8  0830               	movf	?_floorf+3,w
 10409     05E9  1683               	bsf	3,5	;RP0=1, select bank1
 10410     05EA  1303               	bcf	3,6	;RP1=0, select bank1
 10411     05EB  00C0               	movwf	(efgtoa@l+3)^(0+128)
 10412     05EC  1283               	bcf	3,5	;RP0=0, select bank0
 10413     05ED  1303               	bcf	3,6	;RP1=0, select bank0
 10414     05EE  082F               	movf	?_floorf+2,w
 10415     05EF  1683               	bsf	3,5	;RP0=1, select bank1
 10416     05F0  1303               	bcf	3,6	;RP1=0, select bank1
 10417     05F1  00BF               	movwf	(efgtoa@l+2)^(0+128)
 10418     05F2  1283               	bcf	3,5	;RP0=0, select bank0
 10419     05F3  1303               	bcf	3,6	;RP1=0, select bank0
 10420     05F4  082E               	movf	?_floorf+1,w
 10421     05F5  1683               	bsf	3,5	;RP0=1, select bank1
 10422     05F6  1303               	bcf	3,6	;RP1=0, select bank1
 10423     05F7  00BE               	movwf	(efgtoa@l+1)^(0+128)
 10424     05F8  1283               	bcf	3,5	;RP0=0, select bank0
 10425     05F9  1303               	bcf	3,6	;RP1=0, select bank0
 10426     05FA  082D               	movf	?_floorf,w
 10427     05FB  1683               	bsf	3,5	;RP0=1, select bank1
 10428     05FC  1303               	bcf	3,6	;RP1=0, select bank1
 10429     05FD  00BD               	movwf	efgtoa@l^(0+128)
 10430                           
 10431                           ;D:\Program Files\Microchip\xc8\v3.00\pic\sources\c99\common\doprnt.c: 781:         d = 
      +                          (int)l > 9 ? 9 : (int)l;
 10432     05FE  0840               	movf	(efgtoa@l+3)^(0+128),w
 10433     05FF  00F3               	movwf	___fltol@f1+3
 10434     0600  083F               	movf	(efgtoa@l+2)^(0+128),w
 10435     0601  00F2               	movwf	___fltol@f1+2
 10436     0602  083E               	movf	(efgtoa@l+1)^(0+128),w
 10437     0603  00F1               	movwf	___fltol@f1+1
 10438     0604  083D               	movf	efgtoa@l^(0+128),w
 10439     0605  00F0               	movwf	___fltol@f1
 10440     0606  160A  158A  256A  120A  118A  	fcall	___fltol
 10441     060B  0871               	movf	?___fltol+1,w
 10442     060C  3A80               	xorlw	128
 10443     060D  00FF               	movwf	btemp+1
 10444     060E  3080               	movlw	128
 10445     060F  027F               	subwf	btemp+1,w
 10446     0610  1D03               	skipz
 10447     0611  2E14               	goto	u4385
 10448     0612  300A               	movlw	10
 10449     0613  0270               	subwf	?___fltol,w
 10450     0614                     u4385:
 10451     0614  1803               	skipnc
 10452     0615  2E17               	goto	u4381
 10453     0616  2E18               	goto	u4380
 10454     0617                     u4381:
 10455     0617  2E2E               	goto	l3011
 10456     0618                     u4380:
 10457     0618                     l3009:
 10458     0618  1683               	bsf	3,5	;RP0=1, select bank1
 10459     0619  1303               	bcf	3,6	;RP1=0, select bank1
 10460     061A  0840               	movf	(efgtoa@l+3)^(0+128),w
 10461     061B  00F3               	movwf	___fltol@f1+3
 10462     061C  083F               	movf	(efgtoa@l+2)^(0+128),w
 10463     061D  00F2               	movwf	___fltol@f1+2
 10464     061E  083E               	movf	(efgtoa@l+1)^(0+128),w
 10465     061F  00F1               	movwf	___fltol@f1+1
 10466     0620  083D               	movf	efgtoa@l^(0+128),w
 10467     0621  00F0               	movwf	___fltol@f1
 10468     0622  160A  158A  256A  120A  118A  	fcall	___fltol
 10469     0627  0871               	movf	?___fltol+1,w
 10470     0628  1683               	bsf	3,5	;RP0=1, select bank1
 10471     0629  1303               	bcf	3,6	;RP1=0, select bank1
 10472     062A  00AC               	movwf	(efgtoa@d+1)^(0+128)
 10473     062B  0870               	movf	?___fltol,w
 10474     062C  00AB               	movwf	efgtoa@d^(0+128)
 10475     062D  2E34               	goto	l3013
 10476     062E                     l3011:
 10477     062E  3009               	movlw	9
 10478     062F  1683               	bsf	3,5	;RP0=1, select bank1
 10479     0630  1303               	bcf	3,6	;RP1=0, select bank1
 10480     0631  00AB               	movwf	efgtoa@d^(0+128)
 10481     0632  3000               	movlw	0
 10482     0633  00AC               	movwf	(efgtoa@d^(0+128)+1)
 10483     0634                     l3013:
 10484                           
 10485                           ;D:\Program Files\Microchip\xc8\v3.00\pic\sources\c99\common\doprnt.c: 792:   {;D:\Progr
      +                          am Files\Microchip\xc8\v3.00\pic\sources\c99\common\doprnt.c: 793:             if (!pp &
      +                          & (ne < 0)) {
 10486     0634  0828               	movf	efgtoa@pp^(0+128),w
 10487     0635  1D03               	btfss	3,2
 10488     0636  2E38               	goto	u4391
 10489     0637  2E39               	goto	u4390
 10490     0638                     u4391:
 10491     0638  2E6A               	goto	l3033
 10492     0639                     u4390:
 10493     0639                     l3015:
 10494     0639  1FA1               	btfss	(efgtoa@ne+1)^(0+128),7
 10495     063A  2E3C               	goto	u4401
 10496     063B  2E3D               	goto	u4400
 10497     063C                     u4401:
 10498     063C  2E6A               	goto	l3033
 10499     063D                     u4400:
 10500     063D                     l3017:
 10501                           
 10502                           ;D:\Program Files\Microchip\xc8\v3.00\pic\sources\c99\common\doprnt.c: 794:             
      +                              dbuf[n++] = '.';
 10503     063D  0842               	movf	efgtoa@n^(0+128),w
 10504     063E  3E10               	addlw	(low (_dbuf| (0+256)))& (0+255)
 10505     063F  0084               	movwf	4
 10506     0640  302E               	movlw	46
 10507     0641  1783               	bsf	3,7	;select IRP bank2
 10508     0642  0080               	movwf	0
 10509     0643                     l3019:
 10510     0643  3001               	movlw	1
 10511     0644  07C2               	addwf	efgtoa@n^(0+128),f
 10512     0645  1803               	skipnc
 10513     0646  0AC3               	incf	(efgtoa@n+1)^(0+128),f
 10514     0647  3000               	movlw	0
 10515     0648  07C3               	addwf	(efgtoa@n+1)^(0+128),f
 10516     0649                     l3021:
 10517                           
 10518                           ;D:\Program Files\Microchip\xc8\v3.00\pic\sources\c99\common\doprnt.c: 795:             
      +                              --w;
 10519     0649  30FF               	movlw	255
 10520     064A  07B1               	addwf	efgtoa@w^(0+128),f
 10521     064B  1803               	skipnc
 10522     064C  0AB2               	incf	(efgtoa@w+1)^(0+128),f
 10523     064D  30FF               	movlw	255
 10524     064E  07B2               	addwf	(efgtoa@w+1)^(0+128),f
 10525     064F                     l3023:
 10526                           
 10527                           ;D:\Program Files\Microchip\xc8\v3.00\pic\sources\c99\common\doprnt.c: 796:             
      +                              pp = 1;
 10528     064F  3001               	movlw	1
 10529     0650  00A8               	movwf	efgtoa@pp^(0+128)
 10530     0651  2E6A               	goto	l3033
 10531     0652                     l3025:
 10532                           
 10533                           ;D:\Program Files\Microchip\xc8\v3.00\pic\sources\c99\common\doprnt.c: 799:             
      +                              dbuf[n++] = '0';
 10534     0652  0842               	movf	efgtoa@n^(0+128),w
 10535     0653  3E10               	addlw	(low (_dbuf| (0+256)))& (0+255)
 10536     0654  0084               	movwf	4
 10537     0655  3030               	movlw	48
 10538     0656  1783               	bsf	3,7	;select IRP bank2
 10539     0657  0080               	movwf	0
 10540     0658                     l3027:
 10541     0658  3001               	movlw	1
 10542     0659  07C2               	addwf	efgtoa@n^(0+128),f
 10543     065A  1803               	skipnc
 10544     065B  0AC3               	incf	(efgtoa@n+1)^(0+128),f
 10545     065C  3000               	movlw	0
 10546     065D  07C3               	addwf	(efgtoa@n+1)^(0+128),f
 10547     065E                     l3029:
 10548                           
 10549                           ;D:\Program Files\Microchip\xc8\v3.00\pic\sources\c99\common\doprnt.c: 800:             
      +                              --w;
 10550     065E  30FF               	movlw	255
 10551     065F  07B1               	addwf	efgtoa@w^(0+128),f
 10552     0660  1803               	skipnc
 10553     0661  0AB2               	incf	(efgtoa@w+1)^(0+128),f
 10554     0662  30FF               	movlw	255
 10555     0663  07B2               	addwf	(efgtoa@w+1)^(0+128),f
 10556     0664                     l3031:
 10557                           
 10558                           ;D:\Program Files\Microchip\xc8\v3.00\pic\sources\c99\common\doprnt.c: 801:             
      +                              --t;
 10559     0664  30FF               	movlw	255
 10560     0665  07A4               	addwf	efgtoa@t^(0+128),f
 10561     0666  1803               	skipnc
 10562     0667  0AA5               	incf	(efgtoa@t+1)^(0+128),f
 10563     0668  30FF               	movlw	255
 10564     0669  07A5               	addwf	(efgtoa@t+1)^(0+128),f
 10565     066A                     l3033:
 10566                           
 10567                           ;D:\Program Files\Microchip\xc8\v3.00\pic\sources\c99\common\doprnt.c: 798:             
      +                          while (t) {
 10568     066A  0824               	movf	efgtoa@t^(0+128),w
 10569     066B  0425               	iorwf	(efgtoa@t+1)^(0+128),w
 10570     066C  1D03               	btfss	3,2
 10571     066D  2E6F               	goto	u4411
 10572     066E  2E70               	goto	u4410
 10573     066F                     u4411:
 10574     066F  2E52               	goto	l3025
 10575     0670                     u4410:
 10576     0670                     l3035:
 10577                           
 10578                           ;D:\Program Files\Microchip\xc8\v3.00\pic\sources\c99\common\doprnt.c: 803:             
      +                          dbuf[n++] = (char)((int)'0' + d);
 10579     0670  0842               	movf	efgtoa@n^(0+128),w
 10580     0671  3E10               	addlw	(low (_dbuf| (0+256)))& (0+255)
 10581     0672  0084               	movwf	4
 10582     0673  082B               	movf	efgtoa@d^(0+128),w
 10583     0674  3E30               	addlw	48
 10584     0675  1783               	bsf	3,7	;select IRP bank2
 10585     0676  0080               	movwf	0
 10586     0677                     l3037:
 10587     0677  3001               	movlw	1
 10588     0678  07C2               	addwf	efgtoa@n^(0+128),f
 10589     0679  1803               	skipnc
 10590     067A  0AC3               	incf	(efgtoa@n+1)^(0+128),f
 10591     067B  3000               	movlw	0
 10592     067C  07C3               	addwf	(efgtoa@n+1)^(0+128),f
 10593     067D                     l3039:
 10594                           
 10595                           ;D:\Program Files\Microchip\xc8\v3.00\pic\sources\c99\common\doprnt.c: 804:             
      +                          --w;
 10596     067D  30FF               	movlw	255
 10597     067E  07B1               	addwf	efgtoa@w^(0+128),f
 10598     067F  1803               	skipnc
 10599     0680  0AB2               	incf	(efgtoa@w+1)^(0+128),f
 10600     0681  30FF               	movlw	255
 10601     0682  07B2               	addwf	(efgtoa@w+1)^(0+128),f
 10602     0683                     l3041:
 10603                           
 10604                           ;D:\Program Files\Microchip\xc8\v3.00\pic\sources\c99\common\doprnt.c: 805:         };D:
      +                          \Program Files\Microchip\xc8\v3.00\pic\sources\c99\common\doprnt.c: 806:         h -= l*
      +                          u.f;
 10605     0683  084B               	movf	(efgtoa@u+3)^(0+128),w
 10606     0684  1283               	bcf	3,5	;RP0=0, select bank0
 10607     0685  1303               	bcf	3,6	;RP1=0, select bank0
 10608     0686  00A7               	movwf	___flmul@a+3
 10609     0687  1683               	bsf	3,5	;RP0=1, select bank1
 10610     0688  1303               	bcf	3,6	;RP1=0, select bank1
 10611     0689  084A               	movf	(efgtoa@u+2)^(0+128),w
 10612     068A  1283               	bcf	3,5	;RP0=0, select bank0
 10613     068B  1303               	bcf	3,6	;RP1=0, select bank0
 10614     068C  00A6               	movwf	___flmul@a+2
 10615     068D  1683               	bsf	3,5	;RP0=1, select bank1
 10616     068E  1303               	bcf	3,6	;RP1=0, select bank1
 10617     068F  0849               	movf	(efgtoa@u+1)^(0+128),w
 10618     0690  1283               	bcf	3,5	;RP0=0, select bank0
 10619     0691  1303               	bcf	3,6	;RP1=0, select bank0
 10620     0692  00A5               	movwf	___flmul@a+1
 10621     0693  1683               	bsf	3,5	;RP0=1, select bank1
 10622     0694  1303               	bcf	3,6	;RP1=0, select bank1
 10623     0695  0848               	movf	efgtoa@u^(0+128),w
 10624     0696  1283               	bcf	3,5	;RP0=0, select bank0
 10625     0697  1303               	bcf	3,6	;RP1=0, select bank0
 10626     0698  00A4               	movwf	___flmul@a
 10627     0699  1683               	bsf	3,5	;RP0=1, select bank1
 10628     069A  1303               	bcf	3,6	;RP1=0, select bank1
 10629     069B  0840               	movf	(efgtoa@l+3)^(0+128),w
 10630     069C  1283               	bcf	3,5	;RP0=0, select bank0
 10631     069D  1303               	bcf	3,6	;RP1=0, select bank0
 10632     069E  00A3               	movwf	___flmul@b+3
 10633     069F  1683               	bsf	3,5	;RP0=1, select bank1
 10634     06A0  1303               	bcf	3,6	;RP1=0, select bank1
 10635     06A1  083F               	movf	(efgtoa@l+2)^(0+128),w
 10636     06A2  1283               	bcf	3,5	;RP0=0, select bank0
 10637     06A3  1303               	bcf	3,6	;RP1=0, select bank0
 10638     06A4  00A2               	movwf	___flmul@b+2
 10639     06A5  1683               	bsf	3,5	;RP0=1, select bank1
 10640     06A6  1303               	bcf	3,6	;RP1=0, select bank1
 10641     06A7  083E               	movf	(efgtoa@l+1)^(0+128),w
 10642     06A8  1283               	bcf	3,5	;RP0=0, select bank0
 10643     06A9  1303               	bcf	3,6	;RP1=0, select bank0
 10644     06AA  00A1               	movwf	___flmul@b+1
 10645     06AB  1683               	bsf	3,5	;RP0=1, select bank1
 10646     06AC  1303               	bcf	3,6	;RP1=0, select bank1
 10647     06AD  083D               	movf	efgtoa@l^(0+128),w
 10648     06AE  1283               	bcf	3,5	;RP0=0, select bank0
 10649     06AF  1303               	bcf	3,6	;RP1=0, select bank0
 10650     06B0  00A0               	movwf	___flmul@b
 10651     06B1  160A  118A  24BE  120A  118A  	fcall	___flmul
 10652     06B6  1283               	bcf	3,5	;RP0=0, select bank0
 10653     06B7  1303               	bcf	3,6	;RP1=0, select bank0
 10654     06B8  0823               	movf	?___flmul+3,w
 10655     06B9  00B8               	movwf	___flsub@a+3
 10656     06BA  0822               	movf	?___flmul+2,w
 10657     06BB  00B7               	movwf	___flsub@a+2
 10658     06BC  0821               	movf	?___flmul+1,w
 10659     06BD  00B6               	movwf	___flsub@a+1
 10660     06BE  0820               	movf	?___flmul,w
 10661     06BF  00B5               	movwf	___flsub@a
 10662     06C0  1683               	bsf	3,5	;RP0=1, select bank1
 10663     06C1  1303               	bcf	3,6	;RP1=0, select bank1
 10664     06C2  083C               	movf	(efgtoa@h+3)^(0+128),w
 10665     06C3  1283               	bcf	3,5	;RP0=0, select bank0
 10666     06C4  1303               	bcf	3,6	;RP1=0, select bank0
 10667     06C5  00BC               	movwf	___flsub@b+3
 10668     06C6  1683               	bsf	3,5	;RP0=1, select bank1
 10669     06C7  1303               	bcf	3,6	;RP1=0, select bank1
 10670     06C8  083B               	movf	(efgtoa@h+2)^(0+128),w
 10671     06C9  1283               	bcf	3,5	;RP0=0, select bank0
 10672     06CA  1303               	bcf	3,6	;RP1=0, select bank0
 10673     06CB  00BB               	movwf	___flsub@b+2
 10674     06CC  1683               	bsf	3,5	;RP0=1, select bank1
 10675     06CD  1303               	bcf	3,6	;RP1=0, select bank1
 10676     06CE  083A               	movf	(efgtoa@h+1)^(0+128),w
 10677     06CF  1283               	bcf	3,5	;RP0=0, select bank0
 10678     06D0  1303               	bcf	3,6	;RP1=0, select bank0
 10679     06D1  00BA               	movwf	___flsub@b+1
 10680     06D2  1683               	bsf	3,5	;RP0=1, select bank1
 10681     06D3  1303               	bcf	3,6	;RP1=0, select bank1
 10682     06D4  0839               	movf	efgtoa@h^(0+128),w
 10683     06D5  1283               	bcf	3,5	;RP0=0, select bank0
 10684     06D6  1303               	bcf	3,6	;RP1=0, select bank0
 10685     06D7  00B9               	movwf	___flsub@b
 10686     06D8  160A  158A  2387  120A  118A  	fcall	___flsub
 10687     06DD  1283               	bcf	3,5	;RP0=0, select bank0
 10688     06DE  1303               	bcf	3,6	;RP1=0, select bank0
 10689     06DF  0838               	movf	?___flsub+3,w
 10690     06E0  1683               	bsf	3,5	;RP0=1, select bank1
 10691     06E1  1303               	bcf	3,6	;RP1=0, select bank1
 10692     06E2  00BC               	movwf	(efgtoa@h+3)^(0+128)
 10693     06E3  1283               	bcf	3,5	;RP0=0, select bank0
 10694     06E4  1303               	bcf	3,6	;RP1=0, select bank0
 10695     06E5  0837               	movf	?___flsub+2,w
 10696     06E6  1683               	bsf	3,5	;RP0=1, select bank1
 10697     06E7  1303               	bcf	3,6	;RP1=0, select bank1
 10698     06E8  00BB               	movwf	(efgtoa@h+2)^(0+128)
 10699     06E9  1283               	bcf	3,5	;RP0=0, select bank0
 10700     06EA  1303               	bcf	3,6	;RP1=0, select bank0
 10701     06EB  0836               	movf	?___flsub+1,w
 10702     06EC  1683               	bsf	3,5	;RP0=1, select bank1
 10703     06ED  1303               	bcf	3,6	;RP1=0, select bank1
 10704     06EE  00BA               	movwf	(efgtoa@h+1)^(0+128)
 10705     06EF  1283               	bcf	3,5	;RP0=0, select bank0
 10706     06F0  1303               	bcf	3,6	;RP1=0, select bank0
 10707     06F1  0835               	movf	?___flsub,w
 10708     06F2  1683               	bsf	3,5	;RP0=1, select bank1
 10709     06F3  1303               	bcf	3,6	;RP1=0, select bank1
 10710     06F4  00B9               	movwf	efgtoa@h^(0+128)
 10711     06F5                     l3043:
 10712                           
 10713                           ;D:\Program Files\Microchip\xc8\v3.00\pic\sources\c99\common\doprnt.c: 807:         u.f 
      +                          = u.f/10.0;
 10714     06F5  3041               	movlw	65
 10715     06F6  00F3               	movwf	___fldiv@a+3
 10716     06F7  3020               	movlw	32
 10717     06F8  00F2               	movwf	___fldiv@a+2
 10718     06F9  3000               	movlw	0
 10719     06FA  00F1               	movwf	___fldiv@a+1
 10720     06FB  3000               	movlw	0
 10721     06FC  00F0               	movwf	___fldiv@a
 10722     06FD  084B               	movf	(efgtoa@u+3)^(0+128),w
 10723     06FE  00F7               	movwf	___fldiv@b+3
 10724     06FF  084A               	movf	(efgtoa@u+2)^(0+128),w
 10725     0700  00F6               	movwf	___fldiv@b+2
 10726     0701  0849               	movf	(efgtoa@u+1)^(0+128),w
 10727     0702  00F5               	movwf	___fldiv@b+1
 10728     0703  0848               	movf	efgtoa@u^(0+128),w
 10729     0704  00F4               	movwf	___fldiv@b
 10730     0705  160A  118A  22EE  120A  118A  	fcall	___fldiv
 10731     070A  0873               	movf	?___fldiv+3,w
 10732     070B  1683               	bsf	3,5	;RP0=1, select bank1
 10733     070C  1303               	bcf	3,6	;RP1=0, select bank1
 10734     070D  00CB               	movwf	(efgtoa@u+3)^(0+128)
 10735     070E  0872               	movf	?___fldiv+2,w
 10736     070F  00CA               	movwf	(efgtoa@u+2)^(0+128)
 10737     0710  0871               	movf	?___fldiv+1,w
 10738     0711  00C9               	movwf	(efgtoa@u+1)^(0+128)
 10739     0712  0870               	movf	?___fldiv,w
 10740     0713  00C8               	movwf	efgtoa@u^(0+128)
 10741     0714                     l3045:
 10742                           
 10743                           ;D:\Program Files\Microchip\xc8\v3.00\pic\sources\c99\common\doprnt.c: 808:         --ne
      +                          ;
 10744     0714  30FF               	movlw	255
 10745     0715  07A0               	addwf	efgtoa@ne^(0+128),f
 10746     0716  1803               	skipnc
 10747     0717  0AA1               	incf	(efgtoa@ne+1)^(0+128),f
 10748     0718  30FF               	movlw	255
 10749     0719  07A1               	addwf	(efgtoa@ne+1)^(0+128),f
 10750     071A                     l3047:
 10751                           
 10752                           ;D:\Program Files\Microchip\xc8\v3.00\pic\sources\c99\common\doprnt.c: 809:         ++i;
 10753     071A  3001               	movlw	1
 10754     071B  07B7               	addwf	efgtoa@i^(0+128),f
 10755     071C  1803               	skipnc
 10756     071D  0AB8               	incf	(efgtoa@i+1)^(0+128),f
 10757     071E  3000               	movlw	0
 10758     071F  07B8               	addwf	(efgtoa@i+1)^(0+128),f
 10759     0720                     l3049:
 10760                           
 10761                           ;D:\Program Files\Microchip\xc8\v3.00\pic\sources\c99\common\doprnt.c: 779:     while ((
      +                          i < m) && (n < (80 - 5))) {
 10762     0720  0838               	movf	(efgtoa@i+1)^(0+128),w
 10763     0721  3A80               	xorlw	128
 10764     0722  1283               	bcf	3,5	;RP0=0, select bank0
 10765     0723  1303               	bcf	3,6	;RP1=0, select bank0
 10766     0724  00C8               	movwf	??_efgtoa
 10767     0725  1683               	bsf	3,5	;RP0=1, select bank1
 10768     0726  1303               	bcf	3,6	;RP1=0, select bank1
 10769     0727  082E               	movf	(efgtoa@m+1)^(0+128),w
 10770     0728  3A80               	xorlw	128
 10771     0729  1283               	bcf	3,5	;RP0=0, select bank0
 10772     072A  1303               	bcf	3,6	;RP1=0, select bank0
 10773     072B  0248               	subwf	??_efgtoa,w
 10774     072C  1D03               	skipz
 10775     072D  2F32               	goto	u4425
 10776     072E  1683               	bsf	3,5	;RP0=1, select bank1
 10777     072F  1303               	bcf	3,6	;RP1=0, select bank1
 10778     0730  082D               	movf	efgtoa@m^(0+128),w
 10779     0731  0237               	subwf	efgtoa@i^(0+128),w
 10780     0732                     u4425:
 10781     0732  1803               	skipnc
 10782     0733  2F35               	goto	u4421
 10783     0734  2F36               	goto	u4420
 10784     0735                     u4421:
 10785     0735  2F45               	goto	l3053
 10786     0736                     u4420:
 10787     0736                     l3051:
 10788     0736  1683               	bsf	3,5	;RP0=1, select bank1
 10789     0737  1303               	bcf	3,6	;RP1=0, select bank1
 10790     0738  0843               	movf	(efgtoa@n+1)^(0+128),w
 10791     0739  3A80               	xorlw	128
 10792     073A  00FF               	movwf	btemp+1
 10793     073B  3080               	movlw	128
 10794     073C  027F               	subwf	btemp+1,w
 10795     073D  1D03               	skipz
 10796     073E  2F41               	goto	u4435
 10797     073F  304B               	movlw	75
 10798     0740  0242               	subwf	efgtoa@n^(0+128),w
 10799     0741                     u4435:
 10800     0741  1C03               	skipc
 10801     0742  2F44               	goto	u4431
 10802     0743  2F45               	goto	u4430
 10803     0744                     u4431:
 10804     0744  2DC0               	goto	l3007
 10805     0745                     u4430:
 10806     0745                     l3053:
 10807                           
 10808                           ;D:\Program Files\Microchip\xc8\v3.00\pic\sources\c99\common\doprnt.c: 816:  i = sizeof(
      +                          dbuf) - 1;
 10809     0745  304F               	movlw	79
 10810     0746  1683               	bsf	3,5	;RP0=1, select bank1
 10811     0747  1303               	bcf	3,6	;RP1=0, select bank1
 10812     0748  00B7               	movwf	efgtoa@i^(0+128)
 10813     0749  3000               	movlw	0
 10814     074A  00B8               	movwf	(efgtoa@i^(0+128)+1)
 10815     074B                     l3055:
 10816                           
 10817                           ;D:\Program Files\Microchip\xc8\v3.00\pic\sources\c99\common\doprnt.c: 817:     dbuf[i] 
      +                          = '\0';
 10818     074B  0837               	movf	efgtoa@i^(0+128),w
 10819     074C  3E10               	addlw	(low (_dbuf| (0+256)))& (0+255)
 10820     074D  0084               	movwf	4
 10821     074E  1783               	bsf	3,7	;select IRP bank2
 10822     074F  0180               	clrf	0
 10823     0750                     l3057:
 10824                           
 10825                           ;D:\Program Files\Microchip\xc8\v3.00\pic\sources\c99\common\doprnt.c: 848:  memcpy(&dbu
      +                          f[i-n], &dbuf[0], (size_t)n);
 10826     0750  3010               	movlw	(low (_dbuf| (0+256)))& (0+255)
 10827     0751  1283               	bcf	3,5	;RP0=0, select bank0
 10828     0752  1303               	bcf	3,6	;RP1=0, select bank0
 10829     0753  00C8               	movwf	??_efgtoa
 10830     0754  1683               	bsf	3,5	;RP0=1, select bank1
 10831     0755  1303               	bcf	3,6	;RP1=0, select bank1
 10832     0756  0842               	movf	efgtoa@n^(0+128),w
 10833     0757  1283               	bcf	3,5	;RP0=0, select bank0
 10834     0758  1303               	bcf	3,6	;RP1=0, select bank0
 10835     0759  02C8               	subwf	??_efgtoa,f
 10836     075A  1683               	bsf	3,5	;RP0=1, select bank1
 10837     075B  1303               	bcf	3,6	;RP1=0, select bank1
 10838     075C  0837               	movf	efgtoa@i^(0+128),w
 10839     075D  1283               	bcf	3,5	;RP0=0, select bank0
 10840     075E  1303               	bcf	3,6	;RP1=0, select bank0
 10841     075F  0748               	addwf	??_efgtoa,w
 10842     0760  00F0               	movwf	memcpy@d1
 10843     0761  3010               	movlw	(low (_dbuf| (0+256)))& (0+255)
 10844     0762  00F1               	movwf	memcpy@s1
 10845     0763  1683               	bsf	3,5	;RP0=1, select bank1
 10846     0764  1303               	bcf	3,6	;RP1=0, select bank1
 10847     0765  0843               	movf	(efgtoa@n+1)^(0+128),w
 10848     0766  00F3               	movwf	memcpy@n+1
 10849     0767  0842               	movf	efgtoa@n^(0+128),w
 10850     0768  00F2               	movwf	memcpy@n
 10851     0769  160A  158A  2366  120A  118A  	fcall	_memcpy
 10852     076E                     l3059:
 10853                           
 10854                           ;D:\Program Files\Microchip\xc8\v3.00\pic\sources\c99\common\doprnt.c: 849:  n = i-n;
 10855     076E  1683               	bsf	3,5	;RP0=1, select bank1
 10856     076F  1303               	bcf	3,6	;RP1=0, select bank1
 10857     0770  0842               	movf	efgtoa@n^(0+128),w
 10858     0771  0237               	subwf	efgtoa@i^(0+128),w
 10859     0772  00C2               	movwf	efgtoa@n^(0+128)
 10860     0773  0843               	movf	(efgtoa@n+1)^(0+128),w
 10861     0774  1C03               	skipc
 10862     0775  0A43               	incf	(efgtoa@n+1)^(0+128),w
 10863     0776  0238               	subwf	(efgtoa@i+1)^(0+128),w
 10864     0777  00C3               	movwf	(efgtoa@n+1)^(0+128)
 10865     0778                     l3061:
 10866                           
 10867                           ;D:\Program Files\Microchip\xc8\v3.00\pic\sources\c99\common\doprnt.c: 850:  i = sign ==
      +                           0 ? 0 : 1;
 10868     0778  0841               	movf	efgtoa@sign^(0+128),w
 10869     0779  1D03               	btfss	3,2
 10870     077A  2F7C               	goto	u4441
 10871     077B  2F7E               	goto	u4440
 10872     077C                     u4441:
 10873     077C  3001               	movlw	1
 10874     077D  2F7F               	goto	u4450
 10875     077E                     u4440:
 10876     077E  3000               	movlw	0
 10877     077F                     u4450:
 10878     077F  1283               	bcf	3,5	;RP0=0, select bank0
 10879     0780  1303               	bcf	3,6	;RP1=0, select bank0
 10880     0781  00C8               	movwf	??_efgtoa
 10881     0782  01C9               	clrf	??_efgtoa+1
 10882     0783  0848               	movf	??_efgtoa,w
 10883     0784  1683               	bsf	3,5	;RP0=1, select bank1
 10884     0785  1303               	bcf	3,6	;RP1=0, select bank1
 10885     0786  00B7               	movwf	efgtoa@i^(0+128)
 10886     0787  1283               	bcf	3,5	;RP0=0, select bank0
 10887     0788  1303               	bcf	3,6	;RP1=0, select bank0
 10888     0789  0849               	movf	??_efgtoa+1,w
 10889     078A  1683               	bsf	3,5	;RP0=1, select bank1
 10890     078B  1303               	bcf	3,6	;RP1=0, select bank1
 10891     078C  00B8               	movwf	(efgtoa@i+1)^(0+128)
 10892     078D                     l3063:
 10893                           
 10894                           ;D:\Program Files\Microchip\xc8\v3.00\pic\sources\c99\common\doprnt.c: 861:  if (sign) {
 10895     078D  0841               	movf	efgtoa@sign^(0+128),w
 10896     078E  1903               	btfsc	3,2
 10897     078F  2F91               	goto	u4461
 10898     0790  2F92               	goto	u4460
 10899     0791                     u4461:
 10900     0791  2F9E               	goto	l3067
 10901     0792                     u4460:
 10902     0792                     l3065:
 10903                           
 10904                           ;D:\Program Files\Microchip\xc8\v3.00\pic\sources\c99\common\doprnt.c: 862:   dbuf[--n] 
      +                          = sign;
 10905     0792  30FF               	movlw	255
 10906     0793  07C2               	addwf	efgtoa@n^(0+128),f
 10907     0794  1803               	skipnc
 10908     0795  0AC3               	incf	(efgtoa@n+1)^(0+128),f
 10909     0796  30FF               	movlw	255
 10910     0797  07C3               	addwf	(efgtoa@n+1)^(0+128),f
 10911     0798  0842               	movf	efgtoa@n^(0+128),w
 10912     0799  3E10               	addlw	(low (_dbuf| (0+256)))& (0+255)
 10913     079A  0084               	movwf	4
 10914     079B  0841               	movf	efgtoa@sign^(0+128),w
 10915     079C  1783               	bsf	3,7	;select IRP bank2
 10916     079D  0080               	movwf	0
 10917     079E                     l3067:
 10918                           
 10919                           ;D:\Program Files\Microchip\xc8\v3.00\pic\sources\c99\common\doprnt.c: 864:  w -= i;
 10920     079E  0837               	movf	efgtoa@i^(0+128),w
 10921     079F  02B1               	subwf	efgtoa@w^(0+128),f
 10922     07A0  0838               	movf	(efgtoa@i+1)^(0+128),w
 10923     07A1  1C03               	skipc
 10924     07A2  03B2               	decf	(efgtoa@w+1)^(0+128),f
 10925     07A3  02B2               	subwf	(efgtoa@w+1)^(0+128),f
 10926     07A4                     l3069:
 10927                           
 10928                           ;D:\Program Files\Microchip\xc8\v3.00\pic\sources\c99\common\doprnt.c: 867:     return (
      +                          void) pad(fp, &dbuf[n], w);
 10929     07A4  1283               	bcf	3,5	;RP0=0, select bank0
 10930     07A5  1303               	bcf	3,6	;RP1=0, select bank0
 10931     07A6  0841               	movf	efgtoa@fp,w
 10932     07A7  00A8               	movwf	pad@fp
 10933     07A8  0842               	movf	efgtoa@fp+1,w
 10934     07A9  00A9               	movwf	pad@fp+1
 10935     07AA  1683               	bsf	3,5	;RP0=1, select bank1
 10936     07AB  1303               	bcf	3,6	;RP1=0, select bank1
 10937     07AC  0842               	movf	efgtoa@n^(0+128),w
 10938     07AD  3E10               	addlw	(low (_dbuf| (0+256)))& (0+255)
 10939     07AE  1283               	bcf	3,5	;RP0=0, select bank0
 10940     07AF  1303               	bcf	3,6	;RP1=0, select bank0
 10941     07B0  00AA               	movwf	pad@buf
 10942     07B1  1683               	bsf	3,5	;RP0=1, select bank1
 10943     07B2  1303               	bcf	3,6	;RP1=0, select bank1
 10944     07B3  0832               	movf	(efgtoa@w+1)^(0+128),w
 10945     07B4  1283               	bcf	3,5	;RP0=0, select bank0
 10946     07B5  1303               	bcf	3,6	;RP1=0, select bank0
 10947     07B6  00AC               	movwf	pad@p+1
 10948     07B7  1683               	bsf	3,5	;RP0=1, select bank1
 10949     07B8  1303               	bcf	3,6	;RP1=0, select bank1
 10950     07B9  0831               	movf	efgtoa@w^(0+128),w
 10951     07BA  1283               	bcf	3,5	;RP0=0, select bank0
 10952     07BB  1303               	bcf	3,6	;RP1=0, select bank0
 10953     07BC  00AB               	movwf	pad@p
 10954     07BD  160A  158A  244B  120A  118A  	fcall	_pad
 10955     07C2                     l711:
 10956     07C2  0008               	return
 10957     07C3                     __end_of_efgtoa:

Data Sizes:
    Strings     13
    Constant    0
    Data        68
    BSS         107
    Persistent  0
    Stack       0

Auto Spaces:
    Space          Size  Autos    Used
    COMMON           14     14      14
    BANK0            80     66      78
    BANK1            80     61      79
    BANK3            96     26      91
    BANK2            96      0      80

Pointer List with Targets:

    efgtoa@fp	PTR struct _IO_FILE size(2) Largest target is 11
		 -> sprintf@f(BANK0[11]), 

    f$.$buffer	PTR unsigned char  size(2) Largest target is 10
		 -> buffer(BANK1[10]), 

    f$.$source	PTR const unsigned char  size(1) Largest target is 0

    fputc@fp	PTR struct _IO_FILE size(2) Largest target is 11
		 -> sprintf@f(BANK0[11]), 

    fputc@fp$.$buffer	PTR unsigned char  size(2) Largest target is 10
		 -> buffer(BANK1[10]), 

    fputc@fp$.$source	PTR const unsigned char  size(1) Largest target is 0

    fputs@fp	PTR struct _IO_FILE size(2) Largest target is 11
		 -> sprintf@f(BANK0[11]), 

    fputs@s	PTR const unsigned char  size(1) Largest target is 80
		 -> dbuf(BANK2[80]), 

    memcpy@d	PTR unsigned char  size(1) Largest target is 80
		 -> dbuf(BANK2[80]), 

    memcpy@d1	PTR void  size(1) Largest target is 80
		 -> dbuf(BANK2[80]), 

    memcpy@s	PTR const unsigned char  size(1) Largest target is 80
		 -> dbuf(BANK2[80]), 

    memcpy@s1	PTR const void  size(1) Largest target is 80
		 -> dbuf(BANK2[80]), 

    pad@buf	PTR unsigned char  size(1) Largest target is 80
		 -> dbuf(BANK2[80]), 

    pad@fp	PTR struct _IO_FILE size(2) Largest target is 11
		 -> sprintf@f(BANK0[11]), 

    read_prec_or_width@ap	PTR PTR void [1] size(1) Largest target is 1
		 -> sprintf@ap(BANK0[1]), 

    read_prec_or_width@fmt	PTR PTR const unsigned char  size(1) Largest target is 1
		 -> vfprintf@cfmt(BANK0[1]), 

    S545$buffer	PTR unsigned char  size(2) Largest target is 10
		 -> buffer(BANK1[10]), 

    S545$source	PTR const unsigned char  size(1) Largest target is 0

    sp__memcpy	PTR void  size(1) Largest target is 80
		 -> dbuf(BANK2[80]), 

    sp__strcpy	PTR unsigned char  size(1) Largest target is 80
		 -> dbuf(BANK2[80]), 

    sprintf@ap	PTR void [1] size(1) Largest target is 2
		 -> ?_sprintf(BANK1[2]), 

    sprintf@fmt	PTR const unsigned char  size(1) Largest target is 5
		 -> STR_1(CODE[5]), STR_2(CODE[5]), STR_3(CODE[5]), STR_4(CODE[5]), 

    sprintf@s	PTR unsigned char  size(1) Largest target is 10
		 -> buffer(BANK1[10]), 

    strcpy@d	PTR unsigned char  size(1) Largest target is 80
		 -> dbuf(BANK2[80]), 

    strcpy@dest	PTR unsigned char  size(1) Largest target is 80
		 -> dbuf(BANK2[80]), 

    strcpy@src	PTR const unsigned char  size(1) Largest target is 4
		 -> STR_5(CODE[4]), STR_8(CODE[4]), 

    vfpfcnvrt@ap	PTR PTR void  size(1) Largest target is 1
		 -> sprintf@ap(BANK0[1]), 

    vfpfcnvrt@cp	PTR unsigned char  size(1) Largest target is 5
		 -> STR_1(CODE[5]), STR_2(CODE[5]), STR_3(CODE[5]), STR_4(CODE[5]), 

    vfpfcnvrt@fmt	PTR PTR unsigned char  size(1) Largest target is 1
		 -> vfprintf@cfmt(BANK0[1]), 

    vfpfcnvrt@fp	PTR struct _IO_FILE size(2) Largest target is 11
		 -> sprintf@f(BANK0[11]), 

    vfprintf@ap	PTR PTR void  size(1) Largest target is 1
		 -> sprintf@ap(BANK0[1]), 

    vfprintf@cfmt	PTR unsigned char  size(1) Largest target is 5
		 -> STR_1(CODE[5]), STR_2(CODE[5]), STR_3(CODE[5]), STR_4(CODE[5]), 

    vfprintf@fmt	PTR const unsigned char  size(1) Largest target is 5
		 -> STR_1(CODE[5]), STR_2(CODE[5]), STR_3(CODE[5]), STR_4(CODE[5]), 

    vfprintf@fp	PTR struct _IO_FILE size(2) Largest target is 11
		 -> sprintf@f(BANK0[11]), 


Critical Paths under _main in COMMON

    _Lcdinit->_LcdCommand
    _read_prec_or_width->___wmul
    _efgtoa->___flmul
    _efgtoa->_pad
    _pad->_fputc
    _fputs->_fputc
    _floorf->___fldiv
    ___flsub->___flmul
    ___flmul->__Umul8_16
    ___flge->___flmul

Critical Paths under _main in BANK0

    _BatStatus->_sprintf
    _sprintf->_vfprintf
    _vfprintf->_vfpfcnvrt
    _vfpfcnvrt->_efgtoa
    _efgtoa->___flge
    _efgtoa->_floorf
    _pad->_fputs
    _floorf->___fldiv
    ___flsub->___flmul
    ___flge->___flmul

Critical Paths under _main in BANK1

    _BatStatus->_sprintf
    _sprintf->_vfprintf
    _vfprintf->_vfpfcnvrt
    _vfpfcnvrt->_efgtoa

Critical Paths under _main in BANK3

    _main->_BatStatus

Critical Paths under _main in BANK2

    None.

Call Graph Tables:

 ---------------------------------------------------------------------------------
 (Depth) Function   	        Calls       Base Space   Used Autos Params    Refs
 ---------------------------------------------------------------------------------
 (0) _main                                                 3     3      0   17591
                                             58 BANK1      3     3      0
                          _BatStatus
                            _Lcdinit
 ---------------------------------------------------------------------------------
 (1) _Lcdinit                                              3     3      0      29
                                              4 COMMON     3     3      0
                         _LcdCommand
 ---------------------------------------------------------------------------------
 (1) _BatStatus                                           26    26      0   17562
                                              0 BANK3     26    26      0
                         _LcdCommand
                            _LcdData
                            ___fladd
                             ___flge
                            ___flsub
                            _sprintf
 ---------------------------------------------------------------------------------
 (2) _sprintf                                             21    15      6   12453
                                             53 BANK0     13    13      0
                                             52 BANK1      6     0      6
                           _vfprintf
 ---------------------------------------------------------------------------------
 (3) _vfprintf                                             5     1      4   12242
                                             52 BANK0      1     1      0
                                             48 BANK1      4     0      4
                          _vfpfcnvrt
 ---------------------------------------------------------------------------------
 (4) _vfpfcnvrt                                           13     9      4   12108
                                             44 BANK0      8     8      0
                                             44 BANK1      4     0      4
                             _efgtoa
                              _fputc
                 _read_prec_or_width
 ---------------------------------------------------------------------------------
 (5) _read_prec_or_width                                   5     3      2     276
                                              6 COMMON     5     3      2
                             ___wmul
 ---------------------------------------------------------------------------------
 (6) ___wmul                                               6     2      4      94
                                              0 COMMON     6     2      4
 ---------------------------------------------------------------------------------
 (5) _efgtoa                                              56    49      7   11084
                                             33 BANK0     11     4      7
                                              0 BANK1     44    44      0
                            ___fladd
                            ___fldiv
                             ___fleq
                             ___flge
                            ___flmul
                            ___flneg
                            ___flsub
                            ___fltol
                      ___fpclassifyf
                             _floorf
                               _labs
                             _memcpy
                                _pad
                             _strcpy
 ---------------------------------------------------------------------------------
 (7) _strcpy                                               3     1      2      77
                                              0 COMMON     3     1      2
 ---------------------------------------------------------------------------------
 (6) _pad                                                  8     3      5     707
                                             13 COMMON     1     1      0
                                              8 BANK0      7     2      5
                              _fputc
                              _fputs
 ---------------------------------------------------------------------------------
 (7) _fputs                                                8     5      3     331
                                              0 BANK0      8     5      3
                              _fputc
 ---------------------------------------------------------------------------------
 (5) _fputc                                               13     9      4     232
                                              0 COMMON    13     9      4
                              _putch
 ---------------------------------------------------------------------------------
 (6) _putch                                                1     1      0       0
 ---------------------------------------------------------------------------------
 (6) _memcpy                                               7     3      4     146
                                              0 COMMON     7     3      4
 ---------------------------------------------------------------------------------
 (6) _labs                                                 4     0      4      69
                                              0 COMMON     4     0      4
 ---------------------------------------------------------------------------------
 (6) _floorf                                              20    16      4     340
                                             13 BANK0     20    16      4
                            ___fldiv (ARG)
 ---------------------------------------------------------------------------------
 (6) ___fpclassifyf                                       16    12      4     137
                                              0 COMMON    10     6      4
                                              0 BANK0      6     6      0
 ---------------------------------------------------------------------------------
 (6) ___fltol                                             10     6      4     232
                                              0 COMMON    10     6      4
 ---------------------------------------------------------------------------------
 (6) ___flsub                                              8     0      8    2043
                                             21 BANK0      8     0      8
                            ___fladd
                            ___flmul (ARG)
 ---------------------------------------------------------------------------------
 (7) ___fladd                                             20    12      8    1992
                                              0 COMMON    12     4      8
                                              0 BANK0      8     8      0
 ---------------------------------------------------------------------------------
 (6) ___flneg                                              4     0      4      46
                                              0 COMMON     4     0      4
 ---------------------------------------------------------------------------------
 (6) ___flmul                                             26    18      8    1618
                                              9 COMMON     5     5      0
                                              0 BANK0     21    13      8
                          __Umul8_16
 ---------------------------------------------------------------------------------
 (7) __Umul8_16                                            9     7      2     139
                                              0 COMMON     9     7      2
 ---------------------------------------------------------------------------------
 (6) ___flge                                              12     4      8     220
                                             21 BANK0     12     4      8
                            ___flmul (ARG)
 ---------------------------------------------------------------------------------
 (6) ___fleq                                              12     4      8      94
                                              0 COMMON    12     4      8
 ---------------------------------------------------------------------------------
 (6) ___fldiv                                             26    18      8    1132
                                              0 COMMON    13     5      8
                                              0 BANK0     13    13      0
 ---------------------------------------------------------------------------------
 (2) _LcdData                                              4     4      0      29
                                              0 COMMON     4     4      0
 ---------------------------------------------------------------------------------
 (2) _LcdCommand                                           4     4      0      29
                                              0 COMMON     4     4      0
 ---------------------------------------------------------------------------------
 Estimated maximum stack depth 7
 ---------------------------------------------------------------------------------

 Call Graph Graphs:

 _main (ROOT)
   _BatStatus
     _LcdCommand
     _LcdData
     ___fladd
     ___flge
       ___flmul (ARG)
         __Umul8_16
     ___flsub
       ___fladd
       ___flmul (ARG)
     _sprintf
       _vfprintf
         _vfpfcnvrt
           _efgtoa
             ___fladd
             ___fldiv
             ___fleq
             ___flge
             ___flmul
             ___flneg
             ___flsub
             ___fltol
             ___fpclassifyf
             _floorf
               ___fldiv (ARG)
             _labs
             _memcpy
             _pad
               _fputc
                 _putch
               _fputs
                 _fputc
             _strcpy
           _fputc
           _read_prec_or_width
             ___wmul
   _Lcdinit
     _LcdCommand

Address spaces:
Name               Size   Autos  Total    Usage
BANK3               96     26      91     94.8%
BITBANK3            96      0       0      0.0%
BANK2               96      0      80     83.3%
BITBANK2            96      0       0      0.0%
BANK1               80     61      79     98.8%
BITBANK1            80      0       0      0.0%
BANK0               80     66      78     97.5%
BITBANK0            80      0       0      0.0%
COMMON              14     14      14    100.0%
BITCOMMON           14      0       0      0.0%
DATA                 0      0     341      0.0%
STACK                0      0       0      0.0%


Microchip Technology PIC Macro Assembler V3.00 build 20241204225717 
Symbol Table                                                                                   Wed Mar 19 22:11:14 2025

              ___fldiv@aexp 002C                ___fldiv@bexp 002B                           _j 01CC  
                         _k 00EB                           _m 006C                           _n 006B  
                         _x 006D                           pc 0002                ___fldiv@sign 0024  
                        l59 10CB                          fsr 0004         ___wmul@multiplicand 0072  
       __Umul8_16@word_mpld 0076                         l111 0FFF                         l120 0819  
                       l117 1B30                         l206 1BB7                         l400 1DDD  
                       l208 1BCF                         l410 1DDD                         l502 0846  
                       l511 08F6                         l407 1DC8                         l520 0A75  
                       l513 08CF                         l603 17FF                         l507 0877  
                       l532 09E8                         l700 1C88                         l381 1D16  
                       l541 0A49                         l622 1BE4                         l550 0A75  
                       l375 1CE5                         l615 17F5                         l711 07C2  
                       l376 1D01                         l392 00AF                         l384 002A  
                       l624 1BF6                         l528 09C2                         l609 1771  
                       l553 1BAA                         l538 0A0B                         l563 1343  
                       l387 0096                         l803 1119                         l396 1AEF  
                       l804 11DA                         l708 125B                         l565 14BD  
                       l549 0A69                         l821 1B78                         l727 0305  
                       l808 11D2                         l824 1B86                         l760 1D69  
                       l585 14A9                         l737 05AC                         l818 1B17  
                       l587 14B5                         l579 1437                         l836 1EF6  
                       l844 1C4A                         l780 1FFF                         l853 1B49  
                       l669 1030                         l847 0003                         l696 1C53  
                       l769 1F4E                         l787 1C1F                         l797 1E5C  
                       _pad 1C4B                         fsr0 0004                         indf 0000  
              _BatHighArray 0190                ___flmul@aexp 002D                ___flmul@bexp 002E  
               _BatLowArray 01AE                ___flmul@sign 0028                ___flmul@temp 0033  
              ___flmul@prod 002F                ___fltol@exp1 0079                        l2201 0855  
                      l3001 05BA                        l2211 086C                        l2203 0859  
                      l3011 062E                        l3003 05BB                        l2301 099D  
                      l2221 0883                        l2213 086D                        l2205 085A  
                      l3021 0649                        l3013 0634                        l3005 05BD  
                      l3101 1F26                        l2311 09CF                        l2303 09A0  
                      l2231 088D                        l2223 0885                        l2207 085F  
                      l2215 086F                        l3031 0664                        l3023 064F  
                      l3015 0639                        l3007 05C0                        l3111 1F51  
                      l3103 1F2A                        l2321 09EC                        l2305 09A5  
                      l2241 0897                        l2233 088F                        l2225 0887  
                      l2217 087D                        l2209 0864                        l2161 1E69  
                      l3041 0683                        l3025 0652                        l3017 063D  
                      l3033 066A                        l3009 0618                        l2401 1BCB  
                      l3121 1F83                        l3105 1F39                        l3201 105F  
                      l2411 1D13                        l2323 09F0                        l2315 09D8  
                      l2307 09B4                        l2331 09FD                        l2243 0899  
                      l2235 0891                        l2227 0889                        l2219 0881  
                      l2251 08A1                        l2171 081A                        l2163 1E70  
                      l3051 0736                        l3043 06F5                        l3035 0670  
                      l3027 0658                        l3019 0643                        l3115 1F53  
                      l3107 1F42                        l3211 1092                        l3203 106C  
                      l2501 1307                        l2413 1D15                        l2405 1CC9  
                      l2421 003E                        l2341 0A10                        l2333 09FE  
                      l2325 09F2                        l2317 09E3                        l2309 09CA  
                      l2261 08DE                        l2253 08A2                        l2245 089B  
                      l2237 0893                        l2229 088B                        l2181 0829  
                      l2173 081C                        l2165 1E88                        l2157 1E5D  
                      l3061 0778                        l3053 0745                        l3045 0714  
                      l3037 0677                        l3029 065E                        l3125 1F9B  
                      l3117 1F5E                        l3109 1F4B                        l3141 1FE2  
                      l3221 10BE                        l3213 1098                        l3205 1072  
                      l2511 131D                        l2503 130F                        l2407 1CDD  
                      l2431 00AC                        l2423 0046                        l2351 0A4E  
                      l2343 0A15                        l2335 0A02                        l2327 09F7  
                      l2319 09E7                        l2271 08FA                        l2263 08E2  
                      l2255 08B9                        l2247 089D                        l2239 0895  
                      l2183 082E                        l2191 083E                        l2175 081E  
                      l2167 1EBA                        l2159 1E63                        l3063 078D  
                      l3055 074B                        l3047 071A                        l3039 067D  
                      l3135 1FCF                        l3127 1FA3                        l3119 1F6B  
                      l3151 1C0D                        l3311 0C97                        l3303 0C39  
                      l3223 0A76                        l3215 10A5                        l3207 107F  
                      l3161 0807                        l2601 1441                        l2521 1330  
                      l2513 1321                        l2505 1310                        l2409 1CF9  
                      l2433 00AE                        l2425 004A                        l2417 000C  
                      l2441 1AEF                        l2361 0A65                        l2353 0A53  
                      l2345 0A23                        l2337 0A08                        l2329 09F9  
                      l2281 0923                        l2273 08FF                        l2265 08E3  
                      l2257 08D3                        l2249 089F                        l2193 0848  
                      l2185 0833                        l2177 0824                        l3065 0792  
                      l3057 0750                        l3049 0720                        l3081 1D3A  
                      l3073 1D17                        l3129 1FAD                        l3137 1FDA  
                      l3153 1C1B                        l3401 0F51                        l3305 0C62  
                      l3321 0CBA                        l3241 0AAA                        l3225 0A7C  
                      l3217 10AB                        l3209 1085                        l3163 0808  
                      l3171 1B2C                        l2611 147F                        l2603 144F  
                      l2531 1357                        l2523 1338                        l2515 1325  
                      l2507 1312                        l2427 006E                        l2419 0022  
                      l2371 1BD3                        l2363 0A67                        l2355 0A5B  
                      l2347 0A27                        l2291 0937                        l2283 0927  
                      l2267 08EE                        l2259 08DC                        l2195 084A  
                      l2187 083B                        l2179 0828                        l2451 1D7C  
                      l3067 079E                        l3059 076E                        l3083 1D4F  
                      l3075 1D19                        l3091 1EF7                        l3147 1BF7  
                      l3411 0F74                        l3323 0CE3                        l3315 0CA5  
                      l3307 0C8D                        l3251 0AE9                        l3243 0AB0  
                      l3235 0A89                        l3227 0A7F                        l3219 10B8  
                      l3157 0801                        l3165 1B19                        l2621 14AD  
                      l2613 148D                        l2605 1453                        l2533 1359  
                      l2525 1339                        l2517 1326                        l2509 131A  
                      l2429 0072                        l2373 1BDA                        l2701 1637  
                      l2437 1AE5                        l2365 0A70                        l2357 0A60  
                      l2349 0A47                        l2293 0942                        l2285 0930  
                      l2277 0908                        l2269 08F0                        l2197 0850  
                      l2189 083C                        l2461 1D9E                        l2453 1D8F  
                      l2445 1D6A                        l3069 07A4                        l3077 1D28  
                      l3085 1D54                        l3093 1F08                        l3149 1BFE  
                      l3181 1014                        l3173 1004                        l3421 0FB3  
                      l3413 0F7C                        l3405 0F5F                        l3341 0D7A  
                      l3333 0D26                        l3325 0D0E                        l3317 0CB1  
                      l3309 0C93                        l3261 0AFC                        l3253 0AF2  
                      l3245 0AD3                        l3237 0A95                        l3229 0A85  
                      l3159 0805                        l3167 1B1C                        l2623 14B1  
                      l2615 149C                        l2607 146C                        l2551 139A  
                      l2543 1370                        l2519 132B                        l2527 133B  
                      l2375 1BDE                        l2711 16CF                        l2703 164E  
                      l2631 14BE                        l2439 1AED                        l2367 0A74  
                      l2359 0A61                        l2287 0932                        l2279 091F  
                      l2295 0945                        l2199 0851                        l2455 1D90  
                      l2447 1D73                        l2383 1C20                        l2391 1BAB  
                      l3087 1D65                        l3079 1D2C                        l3095 1F0C  
                      l3183 1023                        l3175 1008                        l3423 0FBB  
                      l3415 0F82                        l3407 0F6B                        l3351 0DD9  
                      l3343 0DA1                        l3335 0D32                        l3327 0D14  
                      l3271 0B68                        l3263 0B08                        l3255 0AF8  
                      l3247 0AD8                        l3239 0A9D                        l3191 1037  
                      l3169 1B1E                        l2625 14B3                        l2617 14A0  
                      l2609 1472                        l2561 13B8                        l2553 139C  
                      l2545 1382                        l2529 134B                        l2537 1362  
                      l2377 1BED                        l2369 1BD1                        l2721 173D  
                      l2713 16F5                        l2705 166B                        l2641 14CD  
                      l2633 14C2                        l2297 095B                        l2289 0936  
                      l2481 1B87                        l2457 1D98                        l2801 1E36  
                      l2385 1C25                        l2393 1BAD                        l3097 1F12  
                      l3177 1010                        l3433 0FDC                        l3425 0FC4  
                      l3417 0FA5                        l3361 0E45                        l3353 0DE2  
                      l3345 0DAB                        l3329 0D18                        l3281 0BA9  
                      l3273 0B72                        l3265 0B10                        l3249 0AE1  
                      l3441 0FF1                        l3193 1039                        l2619 14A8  
                      l2555 13A1                        l2563 13C1                        l2571 13EA  
                      l2547 138A                        l2539 1367                        l2491 12F4  
                      l2379 1BF2                        l2731 1755                        l2723 1741  
                      l2715 171D                        l2707 1696                        l2651 14E9  
                      l2643 14D2                        l2635 14C4                        l2299 099B  
                      l2483 1B8B                        l2475 1DBD                        l2467 1DA6  
                      l2459 1D9A                        l2387 1C35                        l2811 1B33  
                      l2395 1BB1                        l3099 1F16                        l3179 1012  
                      l3435 0FE8                        l3427 0FCA                        l3419 0FAA  
                      l3371 0E69                        l3363 0E4B                        l3355 0DEA  
                      l3347 0DB1                        l3339 0D3B                        l3291 0C12  
                      l3283 0BB1                        l3275 0B78                        l3267 0B1E  
                      l3195 1046                        l3187 1031                        l2581 1407  
                      l2573 13F0                        l2565 13D3                        l2557 13B3  
                      l2549 1392                        l2493 12F8                        l2741 1776  
                      l2733 1756                        l2725 1742                        l2717 1726  
                      l2709 16A4                        l2661 14FA                        l2653 14EC  
                      l2645 14D7                        l2637 14C8                        l2477 1DCD  
                      l2469 1DB6                        l2805 1E58                        l2821 10CC  
                      l2813 1B03                        l2389 1C3D                        l2901 12E3  
                      l2397 1BBE                        l3429 0FCE                        l3381 0ECC  
                      l3365 0E4F                        l3357 0DF3                        l3349 0DD4  
                      l3293 0C16                        l3285 0BBA                        l3277 0B9B  
                      l3269 0B3D                        l3197 104C                        l3189 1035  
                      l3461 1B4A                        l2591 141C                        l2583 1408  
                      l2575 13F8                        l2567 13D4                        l2559 13B7  
                      l2495 12FC                        l2487 12EE                        l2743 177B  
                      l2751 17AC                        l2735 175A                        l2727 174B  
                      l2719 1734                        l2671 1516                        l2663 14FF  
                      l2655 14F0                        l2647 14DF                        l2639 14CC  
                      l2479 1DD2                        l2831 1139                        l2823 10EC  
                      l2815 1B07                        l2911 00BA                        l2399 1BC5  
                      l3383 0ED0                        l3359 0E1A                        l3375 0E72  
                      l3287 0BE1                        l3279 0BA0                        l3199 1059  
                      l3463 1B4F                        l2593 1420                        l2585 1411  
                      l2577 13FA                        l2569 13E8                        l2497 12FD  
                      l2489 12F2                        l2761 17DF                        l2753 17B9  
                      l2745 1789                        l2737 176E                        l2729 1751  
                      l2681 153F                        l2673 151B                        l2665 1507  
                      l2657 14F4                        l2649 14E1                        l2841 118F  
                      l2825 110B                        l2817 1B08                        l2809 1B31  
                      l2921 0125                        l2913 00BC                        l3377 0E9B  
                      l3393 0EF3                        l3369 0E5D                        l3297 0C24  
                      l3289 0C0C                        l3465 1B54                        l2595 1434  
                      l2579 1403                        l2587 1417                        l2499 1302  
                      l2763 17EB                        l2755 17C4                        l2747 178D  
                      l2691 15D8                        l2683 155A                        l2667 1509  
                      l2659 14F5                        l2843 11A8                        l2835 114E  
                      l2827 1118                        l2851 1B66                        l2931 0248  
                      l2923 0183                        l3395 0F1C                        l3387 0EDE  
                      l3379 0EC6                        l3299 0C30                        l2589 141B  
                      l2765 17EF                        l2757 17D3                        l2749 17A6  
                      l2693 15E1                        l2685 1576                        l2677 1524  
                      l2669 1511                        l2845 11B1                        l2837 1167  
                      l2829 111F                        l2853 1B6B                        l2781 1C6D  
                      l2773 1C4B                        l2941 02EE                        l2933 024E  
                      l2925 01BC                        l2917 00D6                        l2909 00B0  
                      l2861 11DE                        l3397 0F47                        l3389 0EEA  
                      ?_pad 0028                        l2599 143C                        l2767 17F0  
                      l2759 17DD                        l2695 15EF                        l2687 15A0  
                      l2679 1532                        l2791 1E0D                        l2847 11CA  
                      l2839 117E                        l2855 1B70                        l2783 1C7B  
                      l2775 1C51                        l2951 0319                        l2943 02F4  
                      l2927 021C                        l2919 00E6                        l2871 123C  
                      l2863 11F6                        l3399 0F4D                        l2769 17F7  
                      l2697 160C                        l2689 15BC                        l2793 1E26  
                      l2785 1DDE                        l2857 1B72                        l2777 1C56  
                      l2961 0331                        l2953 0321                        l2945 02FF  
                      l2929 0227                        l2937 02AD                        l2881 125D  
                      l2873 1248                        l2865 121D                        l2699 161A  
                      l2795 1E2B                        l2787 1DF0                        l2779 1C65  
                      l2971 0405                        l2963 0339                        l2955 0323  
                      l2947 030F                        l2939 02E6                        l2891 1299  
                      l2883 1270                        l2875 124D                        l2867 1221  
                      l2859 11DB                        l2789 1E07                        l2981 04B6  
                      l2973 0424                        l2965 0342                        l2957 0329  
                      l2949 0315                        l2885 1277                        l2877 1252  
                      l2869 1238                        l2799 1E30                        l2991 050B  
                      l2983 04C1                        l2967 0380                        l2975 042A  
                      l2959 032F                        l2887 1287                        l2895 12B5  
                      l2879 1257                        l2993 0559                        l2985 04DC  
                      l2977 0440                        l2969 0393                        l2897 12CC  
                      l2889 1291                        l2995 0561                        l2987 04E2  
                      l2979 047F                        l2899 12D3                        l2997 05A0  
                      l2989 04EA                        l2999 05A6                        STR_1 1806  
                      STR_2 1806                        STR_3 1806                        STR_4 1806  
                      STR_5 180B                        STR_8 180F                        u3000 1CF9  
                      u3001 1CF8                        u3010 1D13                        u3011 1D12  
                      u3020 0022                        u3100 1D73                        u3021 0021  
                      u3101 1D72                        u3030 003E                        u3110 1D8A  
                      u3015 1D0F                        u3031 003D                        u3200 12FC  
                      u3040 004A                        u3120 1D9E                        u4000 1118  
                      u2400 1E63                        u3201 12FB                        u3041 0049  
                      u3121 1D9D                        u4001 1117                        u2401 1E62  
                      u3210 1302                        u3130 1DA5                        u4010 111F  
                      u2410 1E69                        u3211 1301                        u3051 0059  
                      u3131 1DA4                        u3115 1D85                        u4011 111E  
                      u2411 1E68                        u3220 1307                        u3060 0072  
                      u3052 005A                        u2500 085F                        u4100 11CA  
                      u4020 112F                        u2420 1E88                        u3221 1306  
                      u3061 0071                        u3053 005F                        u2501 085E  
                      u4101 11C9                        u4005 1114                        u2421 1E87  
                      u3310 13B7                        u3230 1325                        u3054 0060  
                      u2510 0864                        u3150 1DB5                        u4030 114D  
                      u4110 1B86                        u2430 1EBA                        u3311 13B6  
                      u3231 1324                        u3071 0081                        u3055 0065  
                      u2511 0863                        u3151 1DB4                        u4031 114C  
                      u4111 1B85                        u2431 1EB9                        u3400 141B  
                      u3240 132B                        u3080 00AC                        u3072 0082  
                      u3056 0066                        u2600 08F6                        u2520 087D  
                      u3160 1DBC                        u4040 115C                        u2440 1EDB  
                      u4120 121D                        u3401 141A                        u3305 13AC  
                      u3241 132A                        u3081 00AB                        u3073 0087  
                      u2601 08F5                        u2521 087C                        u3161 1DBB  
                      u3145 1DA7                        u4025 112A                        u4201 0148  
                      u4121 121C                        u3410 1420                        u3330 13D3  
                      u3250 1330                        u3074 0088                        u3090 1AED  
                      u2610 08FA                        u2530 0881                        u2450 0828  
                      u4050 1167                        u4210 0183                        u4202 014B  
                      u4130 124D                        u3411 141F                        u3331 13D2  
                      u3251 132F                        u3075 008D                        u3091 1AEC  
                      u2611 08F9                        u2531 0880                        u2451 0827  
                      u4051 1166                        u2435 1EB6                        u4211 0182  
                      u4203 0152                        u4131 124C                        u3420 1434  
                      u3340 13E8                        u3260 134B                        u3076 008E  
                      u3500 14CC                        u2700 0988                        u2620 08FF  
                      u2540 08B9                        u2460 082E                        u3180 1DCD  
                      u4300 0319                        u4220 01BC                        u4204 0155  
                      u4140 1252                        u3421 1433                        u3325 13BA  
                      u3261 134A                        u3085 00A8                        u3501 14CB  
                      u2701 0989                        u2621 08FE                        u2541 08B8  
                      u2461 082D                        u3181 1DCC                        u4061 1170  
                      u4045 1157                        u4301 0318                        u4221 01BB  
                      u4213 017F                        u4205 015C                        u4141 1251  
                      u3430 143B                        u3350 13F0                        u3270 1367  
                      u3510 14D2                        u2710 09A5                        u2702 098E  
                      u2550 08C2                        u2470 0833                        u3190 1DD2  
                      u4070 119D                        u4062 1177                        u4310 0329  
                      u4206 015F                        u4150 1270                        u3431 143A  
                      u3351 13EF                        u3335 13CF                        u3271 1366  
                      u3511 14D1                        u2711 09A4                        u2703 098F  
                      u2631 0911                        u2551 08C0                        u2471 0832  
                      u3191 1DD1                        u3175 1DBF                        u4063 117E  
                      u4311 0328                        u4231 01E1                        u4151 126F  
                      u3440 1441                        u3360 13F8                        u3280 13A1  
                      u3520 14D7                        u2800 0A08                        u2720 09CA  
                      u2640 0923                        u2632 0918                        u2560 08C3  
                      u2480 0850                        u4080 11A8                        u4400 063D  
                      u4320 0440                        u4240 021C                        u4232 01E4  
                      u4160 1277                        u3441 1440                        u3361 13F7  
                      u3345 13DB                        u3281 13A0                        u3601 15AE  
                      u3521 14D6                        u2801 0A07                        u2721 09C9  
                      u2641 0922                        u2633 091F                        u2545 08B5  
                      u2481 084F                        u4081 11A7                        u4401 063C  
                      u4321 043F                        u4241 021B                        u4233 01EB  
                      u4161 1276                        u3450 1453                        u3346 13DC  
                      u3602 15B5                        u3530 14F4                        u2810 0A0F  
                      u2730 09CF                        u2650 0927                        u2570 08D3  
                      u2490 0859                        u4090 11BF                        u4410 0670  
                      u4330 04B6                        u4234 01EE                        u4170 12CC  
                      u3451 1452                        u3347 13E1                        u3611 15CA  
                      u3603 15BC                        u3531 14F3                        u2811 0A0E  
                      u2731 09CE                        u2651 0926                        u2571 08D2  
                      u2491 0858                        u4075 1198                        u4411 066F  
                      u4331 04B5                        u4251 0271                        u4243 0218  
                      u4235 01F5                        u4171 12C9                        u3460 1462  
                      u3380 1407                        u3348 13E2                        u3612 15D1  
                      u3540 14FA                        u2900 0A74                        u2820 0A15  
                      u2660 0936                        u2580 08E2                        u4420 0736  
                      u4340 04DC                        u4260 02AC                        u4252 0274  
                      u4236 01F8                        u4180 12D3                        u4500 1F26  
                      u3381 1406                        u3349 13E7                        u3701 16E7  
                      u3613 15D8                        u3541 14F9                        u2901 0A73  
                      u2821 0A14                        u2661 0935                        u2581 08E1  
                      u4421 0735                        u4341 04DB                        u4325 043C  
                      u4261 02AB                        u4253 027B                        u4181 12D2  
                      u4501 1F25                        u3470 147F                        u2910 1BDE  
                      u3710 1703                        u3702 16EE                        u3550 14FF  
                      u2830 0A27                        u2750 09E7                        u4430 0745  
                      u4350 04E2                        u4270 02E6                        u4254 027E  
                      u4190 00D5                        u4510 1F6A                        u3471 147E  
                      u3375 13FC                        u3295 13A3                        u2911 1BDD  
                      u3703 16F5                        u3631 15FE                        u3551 14FE  
                      u2831 0A26                        u2751 09E6                        u4095 11BA  
                      u4431 0744                        u4351 04E1                        u4271 02E5  
                      u4263 02A8                        u4255 0285                        u4191 00D4  
                      u4511 1F69                        u3480 149C                        u3800 1775  
                      u3632 1605                        u3560 1516                        u2840 0A38  
                      u2760 09EC                        u2680 095B                        u4440 077E  
                      u4360 0559                        u4280 02F4                        u4256 0288  
                      u4520 1C1B                        u4600 0C23                        u3481 149B  
                      u3465 145D                        u3801 1774                        u3721 170F  
                      u3641 1629                        u3633 160C                        u3625 15DA  
                      u3561 1515                        u2761 09EB                        u2745 09DC  
                      u2681 095A                        u4441 077C                        u4425 0732  
                      u4361 0558                        u4281 02F3                        u4521 1C1A  
                      u4601 0C22                        u3490 14B1                        u2930 1BF2  
                      u3810 177B                        u3722 1716                        u3642 1630  
                      u3570 151B                        u2850 0A47                        u2770 09F7  
                      u4450 077F                        u4370 05A6                        u4290 0315  
                      u4610 0C62                        u4530 0AAA                        u3491 14B0  
                      u3475 147B                        u3395 140A                        u2931 1BF1  
                      u3811 177A                        u3723 171D                        u3715 16FE  
                      u3643 1637                        u3571 151A                        u2851 0A46  
                      u2771 09F6                        u2691 0974                        u2683 0957  
                      u2675 093B                        u2595 08E7                        u4435 0741  
                      u4371 05A5                        u4291 0314                        u4611 0C61  
                      u4531 0AA9                        u3820 178D                        u2860 0A4E  
                      u2780 09FD                        u2692 0975                        u3900 1E0D  
                      u2940 1C4A                        u4460 0792                        u4380 0618  
                      u4700 0E45                        u4620 0C8D                        u4540 0AF2  
                      u3485 1498                        u2925 1BE5                        u3821 178C  
                      u3661 165D                        u3581 1568                        u2861 0A4D  
                      u2845 0A33                        u2781 09FC                        u2693 097A  
                      u3901 1E0C                        u2941 1C49                        u4461 0791  
                      u4381 0617                        u4701 0E44                        u4621 0C8C  
                      u4605 0C1F                        u4541 0AF1                        u3830 179C  
                      u3750 1741                        u3662 1664                        u3582 156F  
                      u2870 0A53                        u2790 0A02                        u2694 097B  
                      u3910 1E1B                        u4390 0639                        u2950 1BB1  
                      u4470 1D28                        u4710 0E5C                        u4630 0CA4  
                      u4550 0B1D                        u3751 1740                        u3735 171F  
                      u3671 1688                        u3663 166B                        u3655 1639  
                      u3591 1584                        u3583 1576                        u2871 0A52  
                      u2791 0A01                        u2695 0980                        u4391 0638  
                      u2951 1BB0                        u4471 1D27                        u4711 0E5B  
                      u4631 0CA3                        u4551 0B1C                        u4535 0AA6  
                      u3840 17B9                        u3672 168F                        u3592 158B  
                      u2880 0A60                        u2696 0981                        u3920 1E26  
                      u4480 1D65                        u4720 0E9B                        u4640 0CE3  
                      u4560 0B68                        u3841 17B8                        u3745 1736  
                      u3681 16B3                        u3673 1696                        u3593 1592  
                      u2881 0A5F                        u3921 1E25                        u4385 0614  
                      u4481 1D64                        u4721 0E9A                        u4641 0CE2  
                      u4561 0B67                        u3850 17D3                        u3770 1755  
                      u3690 16DB                        u3682 16BA                        u2890 0A65  
                      u3930 1E36                        u4490 1F08                        u4730 0EC6  
                      u4650 0D0E                        u4570 0BBA                        u3851 17D2  
                      u3835 1797                        u3771 1754                        u3683 16C1  
                      u2891 0A64                        u3931 1E35                        u3915 1E16  
                      u4491 1F07                        u4731 0EC5                        u4715 0E58  
                      u4651 0D0D                        u4635 0CA0                        u4571 0BB9  
                      u4555 0B19                        u3860 17EF                        u3780 175A  
                      u3940 1E44                        u2980 1BCB                        u4740 0EDD  
                      u4660 0D25                        u4580 0BE1                        u3861 17EE  
                      u3845 17B5                        u3781 1759                        u3765 1744  
                      u2981 1BCA                        u2965 1BB8                        u4741 0EDC  
                      u4661 0D24                        u4581 0BE0                        u2990 1CDD  
                      u3790 176E                        u3950 1E50                        u3870 1C51  
                      u4750 0F1C                        u4670 0DA1                        u4590 0C0C  
                      u2991 1CDC                        u3855 17CF                        u3791 176D  
                      u3695 16D6                        u3951 1E4E                        u3871 1C50  
                      u2975 1BBF                        u4751 0F1B                        u4671 0DA0  
                      u4591 0C0B                        u4807 1B5C                        u3960 1E51  
                      u3880 1C7B                        u4760 0F47                        u4680 0DF3  
                      u3945 1E3F                        u3881 1C7A                        u4761 0F46  
                      u4745 0ED9                        u4681 0DF2                        u4665 0D21  
                      u4817 103F                        u3890 1DFE                        u3970 1B49  
                      u4770 0F5E                        u4690 0E1A                        u4907 080E  
                      u3971 1B48                        u4771 0F5D                        u4691 0E19  
                      u4827 1052                        u3980 1B07                        u4780 0FC4  
                      u3981 1B06                        u3885 1C77                        u4781 0FC3  
                      u4837 1065                        u3990 10FA                        u4790 0FDB  
                      u3895 1DF9                        u4791 0FDA                        u4775 0F5A  
                      u4847 1078                        u4857 108B                        u3995 10F5  
                      u4795 0FD7                        u4867 109E                        u4877 10B1  
                      u4887 10C4                        u4897 1B25                        _dbuf 0110  
                      _labs 1B03                        _main 1B4A                        _prec 0068  
                      pad@i 002D                        pad@p 002B                        btemp 007E  
             ___fpclassifyf 1DDE                        start 0000             ___fldiv@new_exp 0025  
           __end_of_LcdData 1B31                  _LcdCommand 0800             __end_of_Lcdinit 10CC  
                     ??_pad 007D               ___fltol@sign1 0078                       ?_labs 0070  
           __end_of___fladd 0A76                       ?_main 0070             __end_of___fldiv 14BE  
           __end_of___flneg 1AF0             __end_of___flmul 1800             __end_of___flsub 1BAB  
           __end_of___fltol 1DDE                vfpfcnvrt@fmt 00CE                       _PORTB 0006  
                     _PORTC 0007                       _PORTD 0008                       _TRISB 0086  
                     _TRISC 0087                       _TRISD 0088                       _Array 01BD  
                     _flags 006A         read_prec_or_width@c 0078         read_prec_or_width@n 0079  
                     _fputc 1E5D                       _fputs 1C20                       _value 01EA  
                     labs@a 0070                       pad@fp 0028                       _width 0066  
                     _putch 0003                       pclath 000A                       status 0003  
                     wtemp0 007E             __end_of_sprintf 1031              ?___fpclassifyf 0070  
           __initialization 07C3                __end_of_labs 1B18                __end_of_main 1B66  
                    ??_labs 0074                      ??_main 00DA  __end_of_read_prec_or_width 1D6A  
                    ?_fputc 0070                      ?_fputs 0020                      ?_putch 0070  
                 ??_LcdData 0070                   ??_Lcdinit 0074              _BatMediumArray 019F  
               ?_LcdCommand 0070                vfprintf@cfmt 0054                      ___flge 000C  
                    ___fleq 1CC9                   ??___fladd 0020                      ___wmul 1BAB  
                 ??___fldiv 0078                   ??___flneg 0074                   ??___flmul 0079  
                 ??___flsub 007E                   ??___fltol 0074                      _efgtoa 11DB  
                    _buffer 00E1                      _floorf 10CC                      _memcpy 1B66  
      read_prec_or_width@ap 0077                      pad@buf 002A                      _strcpy 1B31  
                    fputc@c 0070                      fputs@c 0025                      fputs@i 0026  
                    fputs@s 0020             ___fpclassifyf@e 0020             ___fpclassifyf@u 0022  
           ___fpclassifyf@x 0070           __end_of_BatStatus 1000                      putch@c 0070  
          __end_of_vfprintf 1C20                   ??_sprintf 0055                  ___flge@ff1 0035  
                ___flge@ff2 0039             ??___fpclassifyf 0074                  ___fleq@ff1 0070  
                ___fleq@ff2 0074     __end_of__initialization 07FC                  ___flneg@f1 0070  
                ___fltol@f1 0070              __pcstackCOMMON 0070                __pidataBANK1 1000  
              __pidataBANK3 1C89               __end_of_fputc 1EF7               __end_of_fputs 1C4B  
             __end_of_putch 0004                     ??_fputc 0074                     ??_fputs 0023  
                   ??_putch 0070                  __pbssBANK0 0062                  __pbssBANK1 00DD  
                __pbssBANK2 0110                  __pbssBANK3 01EA           __end_of__Umul8_16 1BF7  
                _efgtoa$670 00A6                  __pmaintext 1B4A                     ?___flge 0035  
                   ?___fleq 0070                     ?___wmul 0070                     ?_efgtoa 0041  
                   ?_floorf 002D                     ?_memcpy 0070                     ?_strcpy 0070  
                __stringtab 1800                     _LcdData 1B18                     _Lcdinit 1031  
                   ___fladd 081A                     ___fldiv 12EE                     ___flneg 1AE5  
                   ___flmul 14BE                     ___flsub 1B87                     ___fltol 1D6A  
                 ?_vfprintf 00D0                     __ptext1 1031                     __ptext2 0A76  
                   __ptext3 1004                     __ptext4 1BF7                     __ptext5 1EF7  
                   __ptext6 1D17                     __ptext7 1BAB                     __ptext8 11DB  
                   __ptext9 1B31       read_prec_or_width@fmt 0076                     efgtoa@c 0047  
                   efgtoa@d 00AB                     efgtoa@e 00AF                     efgtoa@f 0043  
                   efgtoa@g 00C4                     efgtoa@h 00B9                     efgtoa@i 00B7  
                   efgtoa@l 00BD                     efgtoa@m 00AD                     efgtoa@n 00C2  
                   efgtoa@p 00A2                     efgtoa@t 00A4                     efgtoa@u 00C8  
                   efgtoa@w 00B1                     _sprintf 1004                     clrloop0 0005  
      end_of_initialization 07FC                     floorf@e 003B                     floorf@m 0037  
                   floorf@u 003D                     floorf@x 002D                     memcpy@d 0075  
                   memcpy@n 0072                     memcpy@s 0076                     fputc@fp 0072  
                   fputs@fp 0021          _read_prec_or_width 1D17                ??_LcdCommand 0070  
         __end_of_vfpfcnvrt 2000                  efgtoa@mode 00A9                  efgtoa@sign 00C1  
       ?_read_prec_or_width 0076                     psplit$0 1A0030            vfpfcnvrt@convarg 004E  
                ??_vfprintf 007E                     strcpy@d 0072                 ___fladd@grs 007B  
      ??_read_prec_or_width 0078                 ___fldiv@grs 0027                 ___fldiv@rem 0020  
        __end_of_LcdCommand 081A                   _BatStatus 0A76                 ___flmul@grs 0029  
            __end_of___flge 00B0              __end_of___fleq 1D17                 vfpfcnvrt@ap 00CF  
               vfpfcnvrt@cp 0053                 vfpfcnvrt@fp 00CC              __end_of___wmul 1BD0  
            __end_of_efgtoa 07C3              __end_of_floorf 11DB              __end_of_memcpy 1B87  
                floorf@F521 00DD              __end_of_strcpy 1B4A         start_initialization 07C3  
               __end_of_pad 1C89           pnum$text8_split_1 0030                  ?_BatStatus 0070  
     __end_of___fpclassifyf 1E5D                 vfprintf@fmt 00D2                    ??___flge 003D  
                  ??___fleq 0078                    ??___wmul 0074                  init_fetch0 1AF0  
                  ??_efgtoa 0048                   __Umul8_16 1BD0                 __pdataBANK1 00EB  
               __pdataBANK3 0190                    ??_floorf 0031                    ??_memcpy 0074  
                  ??_strcpy 0072                   ___fladd@a 0074                   ___fladd@b 0070  
                 ___fldiv@a 0070                   ___fldiv@b 0074                   ___flmul@a 0024  
                 ___flmul@b 0020                   ___flsub@a 0035                   ___flsub@b 0039  
                 ___latbits 0002               __pcstackBANK0 0020               __pcstackBANK1 00A0  
             __pcstackBANK3 01D0                    ?_LcdData 0070                    ?_Lcdinit 0070  
                  ?___fladd 0070                    ?___fldiv 0070                    ?___flneg 0070  
                  ?___flmul 0020                    ?___flsub 0035                    ?___fltol 0070  
                ?__Umul8_16 0070                   __pstrings 1800               BatStatus@i_80 01DA  
             BatStatus@i_90 01E6               BatStatus@i_82 01D2               BatStatus@i_83 01DC  
             BatStatus@i_84 01DE               BatStatus@i_92 01D6               BatStatus@i_93 01E8  
             BatStatus@i_85 01E0               BatStatus@i_87 01D4               BatStatus@i_79 01D0  
             BatStatus@i_88 01E2               BatStatus@i_89 01E4                    ?_sprintf 00D4  
               ??_BatStatus 007E              ___wmul@product 0074                   clear_ram0 0004  
                  LcdData@i 0073                   _vfpfcnvrt 1EF7                 __stringbase 1805  
         ___wmul@multiplier 0070                  vfpfcnvrt@c 0052                   memcpy@tmp 0074  
                vfprintf@ap 00D3                  vfprintf@fp 00D0                 ??__Umul8_16 0072  
                ?_vfpfcnvrt 00CC          __end_of__stringtab 1806          ___fpclassifyf@F465 0062  
                sprintf@fmt 00D5                    __ptext10 1C4B                    __ptext11 1C20  
                  __ptext20 081A                    __ptext12 1E5D                    __ptext21 1AE5  
                  __ptext13 0003                    __ptext22 14BE                    __ptext14 1B66  
                  __ptext23 1BD0                    __ptext15 1B03                    __ptext24 000C  
                  __ptext16 10CC                    __ptext25 1CC9                    __ptext17 1DDE  
                  __ptext26 12EE                    __ptext18 1D6A                    __ptext27 1B18  
                  __ptext19 1B87                    __ptext28 0800                  BatStatus@i 01D8  
               LcdCommand@i 0073                  strcpy@dest 0070                   pnum$text8 001A  
                  efgtoa@fp 0041                    efgtoa@ne 00A0                    efgtoa@pp 00A8  
                  efgtoa@ou 00B3                    _vfprintf 1BF7                    memcpy@d1 0070  
                  memcpy@s1 0071                    init_ram0 1AF4                   sprintf@ap 0056  
                 strcpy@src 0071                   stringcode 1800                 efgtoa@nmode 00AA  
               ??_vfpfcnvrt 004C      __Umul8_16@multiplicand 0070                  _OPTION_REG 0081  
                  sprintf@f 0057                    sprintf@s 00D4                    stringdir 1800  
                  stringtab 1800               ___fladd@signs 0078                ___fladd@aexp 0079  
              ___fladd@bexp 007A        __Umul8_16@multiplier 0078           __Umul8_16@product 0074  
